 rainfall

 Timestamp is 5a94a295 (Tue Feb 27 00:13:09 2018)

 Preferred load address is 0000000180000000

 Start         Length     Name                   Class
 0001:00000000 000001b0H .text$di                CODE
 0001:000001b0 00020b00H .text$mn                CODE
 0001:00020cb0 00000020H .text$mn$00             CODE
 0001:00020cd0 00000960H .text$x                 CODE
 0001:00021630 000001e2H .text$yd                CODE
 0002:00000000 000002c0H .idata$5                DATA
 0002:000002c0 00000010H .00cfg                  DATA
 0002:000002d0 00000008H .CRT$XCA                DATA
 0002:000002d8 00000048H .CRT$XCC                DATA
 0002:00000320 00000010H .CRT$XCL                DATA
 0002:00000330 00000020H .CRT$XCU                DATA
 0002:00000350 00000008H .CRT$XCZ                DATA
 0002:00000358 00000008H .CRT$XIA                DATA
 0002:00000360 00000030H .CRT$XIC                DATA
 0002:00000390 00000008H .CRT$XIZ                DATA
 0002:00000398 00000008H .CRT$XLA                DATA
 0002:000003a0 00000008H .CRT$XLZ                DATA
 0002:000003a8 00000008H .CRT$XPA                DATA
 0002:000003b0 00000008H .CRT$XPB                DATA
 0002:000003b8 00000010H .CRT$XPX                DATA
 0002:000003c8 00000008H .CRT$XPXA               DATA
 0002:000003d0 00000008H .CRT$XPZ                DATA
 0002:000003d8 00000008H .CRT$XTA                DATA
 0002:000003e0 00000010H .CRT$XTZ                DATA
 0002:000003f0 0000f9f8H .rdata                  DATA
 0002:0000fde8 00000028H .rdata$T                DATA
 0002:0000fe10 000010bcH .rdata$r                DATA
 0002:00010ecc 000004ccH .rdata$zzzdbg           DATA
 0002:00011398 00000008H .rtc$IAA                DATA
 0002:000113a0 00000008H .rtc$IZZ                DATA
 0002:000113a8 00000008H .rtc$TAA                DATA
 0002:000113b0 00000010H .rtc$TZZ                DATA
 0002:000113c0 00002708H .xdata                  DATA
 0002:00013ac8 000002a4H .xdata$x                DATA
 0002:00013d6c 00000020H .didat$2                DATA
 0002:00013d8c 00000024H .didat$3                DATA
 0002:00013db0 000000e8H .didat$4                DATA
 0002:00013e98 00000668H .didat$6                DATA
 0002:00014500 000000f0H .didat$7                DATA
 0002:000145f0 00000054H .edata                  DATA
 0002:00014644 00000014H .idata$2                DATA
 0002:00014658 00000018H .idata$3                DATA
 0002:00014670 000002c0H .idata$4                DATA
 0002:00014930 00000648H .idata$6                DATA
 0003:00000000 00000c60H .data                   DATA
 0003:00000c60 00000660H .data$r                 DATA
 0003:000012c0 000000f0H .didat$5                DATA
 0003:000013b0 00001f74H .bss                    DATA
 0004:00000000 000020b8H .pdata                  DATA
 0005:00000000 000000b4H .gfids$x                DATA
 0005:000000b4 0000023cH .gfids$y                DATA
 0006:00000000 00000004H .tls                    DATA
 0006:00000004 00000004H .tls$                   DATA
 0006:00000008 00000001H .tls$ZZZ                DATA
 0007:00000000 00000060H .rsrc$01                DATA
 0007:00000060 00000180H .rsrc$02                DATA

  Address         Publics by Value              Rva+Base               Lib:Object

 0000:00000000       __guard_iat_count          0000000000000000     <absolute>
 0000:00000000       __dynamic_value_reloc_table 0000000000000000     <absolute>
 0000:00000000       __guard_iat_table          0000000000000000     <absolute>
 0000:00000000       __guard_longjmp_table      0000000000000000     <absolute>
 0000:00000000       __guard_longjmp_count      0000000000000000     <absolute>
 0000:00000000       __guard_fids_count         0000000000000000     <absolute>
 0000:00000000       ___safe_se_handler_table   0000000000000000     <absolute>
 0000:00000000       ___safe_se_handler_count   0000000000000000     <absolute>
 0000:00000000       __guard_fids_table         0000000000000000     <absolute>
 0000:00000100       __guard_flags              0000000000000100     <absolute>
 0000:00000000       __ImageBase                0000000180000000     <linker-defined>
 0001:000001b0       ?_Deallocate@std@@YAXPEAX_K1@Z 00000001800011b0 f i rainfall.obj
 0001:00000220       ?calc_rain_stats@@YA?AVrain_result@@AEAVlocation@@@Z 0000000180001220 f   rainfall.obj
 0001:000003d0       ??1?$basic_string@DU?$char_traits@D@std@@V?$allocator@D@2@@std@@QEAA@XZ 00000001800013d0 f i rainfall.obj
 0001:00000460       ??0?$basic_string@DU?$char_traits@D@std@@V?$allocator@D@2@@std@@QEAA@$$QEAV01@@Z 0000000180001460 f i rainfall.obj
 0001:00000500       ?_Assign_rv@?$basic_string@DU?$char_traits@D@std@@V?$allocator@D@2@@std@@QEAAX$$QEAV12@@Z 0000000180001500 f i rainfall.obj
 0001:00000580       ?_Xlen@?$basic_string@DU?$char_traits@D@std@@V?$allocator@D@2@@std@@QEBAXXZ 0000000180001580 f i rainfall.obj
 0001:000005a0       ?erase@?$basic_string@DU?$char_traits@D@std@@V?$allocator@D@2@@std@@QEAAAEAV12@_K0@Z 00000001800015a0 f i rainfall.obj
 0001:00000670       ?_Copy@?$basic_string@DU?$char_traits@D@std@@V?$allocator@D@2@@std@@QEAAX_K0@Z 0000000180001670 f i rainfall.obj
 0001:000007f0       ??$_Sort_unchecked1@PEAVsample@@_JU?$less@X@std@@@std@@YAXPEAVsample@@0_JAEAU?$less@X@0@@Z 00000001800017f0 f i rainfall.obj
 0001:00000960       ??$_Partition_by_median_guess_unchecked@PEAVsample@@U?$less@X@std@@@std@@YA?AU?$pair@PEAVsample@@PEAV1@@0@PEAVsample@@0AEAU?$less@X@0@@Z 0000000180001960 f i rainfall.obj
 0001:00000e20       ??$_Make_heap_unchecked@PEAVsample@@U?$less@X@std@@@std@@YAXPEAVsample@@0AEAU?$less@X@0@@Z 0000000180001e20 f i rainfall.obj
 0001:00000fb0       ??$_Sort_heap_unchecked@PEAVsample@@U?$less@X@std@@@std@@YAXPEAVsample@@0AEAU?$less@X@0@@Z 0000000180001fb0 f i rainfall.obj
 0001:00001180       ??$_Insertion_sort_unchecked@PEAVsample@@U?$less@X@std@@@std@@YAXPEAVsample@@0AEAU?$less@X@0@@Z 0000000180002180 f i rainfall.obj
 0001:00001500       ??1sample@@QEAA@XZ         0000000180002500 f i rainfall.obj
 0001:00001510       ??4?$basic_string@DU?$char_traits@D@std@@V?$allocator@D@2@@std@@QEAAAEAV01@$$QEAV01@@Z 0000000180002510 f i rainfall.obj
 0001:000015c0       ??$_Guess_median_unchecked@PEAVsample@@U?$less@X@std@@@std@@YAXPEAVsample@@00AEAU?$less@X@0@@Z 00000001800025c0 f i rainfall.obj
 0001:000017d0       ??$_Pop_heap_hole_by_index@PEAVsample@@_JV1@U?$less@X@std@@@std@@YAXPEAVsample@@_J1$$QEAV1@AEAU?$less@X@0@@Z 00000001800027d0 f i rainfall.obj
 0001:000019b0       ??$swap@Vsample@@X@std@@YAXAEAVsample@@0@Z 00000001800029b0 f i rainfall.obj
 0001:00001a50       ??$_Push_heap_by_index@PEAVsample@@_JV1@U?$less@X@std@@@std@@YAXPEAVsample@@_J1$$QEAV1@AEAU?$less@X@0@@Z 0000000180002a50 f i rainfall.obj
 0001:00001bf0       ??$_Move_backward_unchecked1@PEAVsample@@PEAV1@@std@@YAPEAVsample@@PEAV1@00U_General_ptr_iterator_tag@0@@Z 0000000180002bf0 f i rainfall.obj
 0001:00001d50       ?what@exception@stdext@@UEBAPEBDXZ 0000000180002d50 f i rainfall_node.obj
 0001:00001d70       ?_Raise@exception@stdext@@QEBAXXZ 0000000180002d70 f i rainfall_node.obj
 0001:00001db0       __except_validate_context_record 0000000180002db0 f i libvcruntime:jbcxrval.obj
 0001:00001db0       ?_Doraise@exception@stdext@@MEBAXXZ 0000000180002db0 f i rainfall_node.obj
 0001:00001db0       ??3@YAXPEAX0@Z             0000000180002db0 f i rainfall_node.obj
 0001:00001db0       ?imbue@?$basic_streambuf@DU?$char_traits@D@std@@@std@@MEAAXAEBVlocale@2@@Z 0000000180002db0 f i libcpmt:cerr.obj
 0001:00001db0       ?_Lock@?$basic_streambuf@DU?$char_traits@D@std@@@std@@UEAAXXZ 0000000180002db0 f i libcpmt:cerr.obj
 0001:00001db0       _guard_check_icall_nop     0000000180002db0 f i LIBCMT:guard_support.obj
 0001:00001db0       ?_Unlock@?$basic_streambuf@DU?$char_traits@D@std@@@std@@UEAAXXZ 0000000180002db0 f i libcpmt:cerr.obj
 0001:00001dc0       ??_Eexception@stdext@@UEAAPEAXI@Z 0000000180002dc0 f i * CIL library *:* CIL module *
 0001:00001dc0       ??_Eruntime_error@std@@UEAAPEAXI@Z 0000000180002dc0 f i * CIL library *:* CIL module *
 0001:00001dc0       ??_Gexception@stdext@@UEAAPEAXI@Z 0000000180002dc0 f i rainfall_node.obj
 0001:00001dc0       ??_Gruntime_error@std@@UEAAPEAXI@Z 0000000180002dc0 f i rainfall_node.obj
 0001:00001df0       ??1failure@ios_base@std@@UEAA@XZ 0000000180002df0 f i rainfall_node.obj
 0001:00001df0       ??1runtime_error@std@@UEAA@XZ 0000000180002df0 f i rainfall_node.obj
 0001:00001e00       ?NODE_SET_METHOD@node@@YAXV?$Local@VObject@v8@@@v8@@PEBDP6AXAEBV?$FunctionCallbackInfo@VValue@v8@@@3@@Z@Z 0000000180002e00 f i rainfall_node.obj
 0001:00001ee0       ??0_Locinfo@std@@QEAA@PEBD@Z 0000000180002ee0 f i rainfall_node.obj
 0001:00001f80       ??1_Locinfo@std@@QEAA@XZ   0000000180002f80 f i rainfall_node.obj
 0001:00002020       ??_G_Facet_base@std@@UEAAPEAXI@Z 0000000180003020 f i rainfall_node.obj
 0001:00002020       ??_E_Facet_base@std@@UEAAPEAXI@Z 0000000180003020 f i * CIL library *:* CIL module *
 0001:00002050       ?_Incref@facet@locale@std@@UEAAXXZ 0000000180003050 f i rainfall_node.obj
 0001:00002060       ?_Decref@facet@locale@std@@UEAAPEAV_Facet_base@3@XZ 0000000180003060 f i rainfall_node.obj
 0001:00002070       ??1locale@std@@QEAA@XZ     0000000180003070 f i rainfall_node.obj
 0001:000020a0       ?_Getcat@?$ctype@D@std@@SA_KPEAPEBVfacet@locale@2@PEBV42@@Z 00000001800030a0 f i rainfall_node.obj
 0001:00002200       ?do_tolower@?$ctype@D@std@@MEBADD@Z 0000000180003200 f i rainfall_node.obj
 0001:00002210       ?do_tolower@?$ctype@D@std@@MEBAPEBDPEADPEBD@Z 0000000180003210 f i rainfall_node.obj
 0001:00002270       ?do_toupper@?$ctype@D@std@@MEBADD@Z 0000000180003270 f i rainfall_node.obj
 0001:00002280       ?do_toupper@?$ctype@D@std@@MEBAPEBDPEADPEBD@Z 0000000180003280 f i rainfall_node.obj
 0001:000022e0       ?do_widen@?$ctype@D@std@@MEBADD@Z 00000001800032e0 f i rainfall_node.obj
 0001:000022e0       ?do_narrow@?$ctype@D@std@@MEBADDD@Z 00000001800032e0 f i rainfall_node.obj
 0001:000022f0       ?do_widen@?$ctype@D@std@@MEBAPEBDPEBD0PEAD@Z 00000001800032f0 f i rainfall_node.obj
 0001:00002310       ?do_narrow@?$ctype@D@std@@MEBAPEBDPEBD0DPEAD@Z 0000000180003310 f i rainfall_node.obj
 0001:00002330       ??_G?$ctype@D@std@@MEAAPEAXI@Z 0000000180003330 f i rainfall_node.obj
 0001:00002330       ??_E?$ctype@D@std@@MEAAPEAXI@Z 0000000180003330 f i * CIL library *:* CIL module *
 0001:000023a0       ??_G_Iostream_error_category@std@@UEAAPEAXI@Z 00000001800033a0 f i rainfall_node.obj
 0001:000023a0       ??_Eerror_category@std@@UEAAPEAXI@Z 00000001800033a0 f i * CIL library *:* CIL module *
 0001:000023a0       ??_E_Iostream_error_category@std@@UEAAPEAXI@Z 00000001800033a0 f i * CIL library *:* CIL module *
 0001:000023a0       ??_Gerror_category@std@@UEAAPEAXI@Z 00000001800033a0 f i rainfall_node.obj
 0001:000023d0       ?message@error_code@std@@QEBA?AV?$basic_string@DU?$char_traits@D@std@@V?$allocator@D@2@@2@XZ 00000001800033d0 f i rainfall_node.obj
 0001:00002400       ?default_error_condition@error_category@std@@UEBA?AVerror_condition@2@H@Z 0000000180003400 f i rainfall_node.obj
 0001:00002410       ?equivalent@error_category@std@@UEBA_NHAEBVerror_condition@2@@Z 0000000180003410 f i rainfall_node.obj
 0001:00002470       ?equivalent@error_category@std@@UEBA_NAEBVerror_code@2@H@Z 0000000180003470 f i rainfall_node.obj
 0001:00002490       ?_Makestr@_System_error@std@@CA?AV?$basic_string@DU?$char_traits@D@std@@V?$allocator@D@2@@2@Verror_code@2@V32@@Z 0000000180003490 f i rainfall_node.obj
 0001:00002590       ??_G_System_error@std@@UEAAPEAXI@Z 0000000180003590 f i rainfall_node.obj
 0001:00002590       ??_Efailure@ios_base@std@@UEAAPEAXI@Z 0000000180003590 f i * CIL library *:* CIL module *
 0001:00002590       ??_Gfailure@ios_base@std@@UEAAPEAXI@Z 0000000180003590 f i rainfall_node.obj
 0001:00002590       ??_E_System_error@std@@UEAAPEAXI@Z 0000000180003590 f i * CIL library *:* CIL module *
 0001:000025c0       ?message@_Generic_error_category@std@@UEBA?AV?$basic_string@DU?$char_traits@D@std@@V?$allocator@D@2@@2@H@Z 00000001800035c0 f i rainfall_node.obj
 0001:00002620       ?name@_Iostream_error_category@std@@UEBAPEBDXZ 0000000180003620 f i rainfall_node.obj
 0001:00002630       ?message@_Iostream_error_category@std@@UEBA?AV?$basic_string@DU?$char_traits@D@std@@V?$allocator@D@2@@2@H@Z 0000000180003630 f i rainfall_node.obj
 0001:00002680       ?clear@ios_base@std@@QEAAXH_N@Z 0000000180003680 f i rainfall_node.obj
 0001:00002b20       ?getloc@ios_base@std@@QEBA?AVlocale@2@XZ 0000000180003b20 f i rainfall_node.obj
 0001:00002ea0       ?CalculateResultsAsync@@YAXAEBV?$FunctionCallbackInfo@VValue@v8@@@v8@@@Z 0000000180003ea0 f   rainfall_node.obj
 0001:00003050       ??1location@@QEAA@XZ       0000000180004050 f i rainfall_node.obj
 0001:00003060       ?CalculateResultsSync@@YAXAEBV?$FunctionCallbackInfo@VValue@v8@@@v8@@@Z 0000000180004060 f   rainfall_node.obj
 0001:00003420       ?CalculateResults@@YAXAEBV?$FunctionCallbackInfo@VValue@v8@@@v8@@@Z 0000000180004420 f   rainfall_node.obj
 0001:00003700       ?pack_rain_result@@YAXPEAVIsolate@v8@@AEAV?$Local@VObject@v8@@@2@AEAVrain_result@@@Z 0000000180004700 f   rainfall_node.obj
 0001:00003840       ?RainfallData@@YAXAEBV?$FunctionCallbackInfo@VValue@v8@@@v8@@@Z 0000000180004840 f   rainfall_node.obj
 0001:00003910       ?unpack_sample@@YA?AVsample@@PEAVIsolate@v8@@V?$Local@VObject@v8@@@3@@Z 0000000180004910 f   rainfall_node.obj
 0001:00003ab0       ?unpack_location@@YA?AVlocation@@PEAVIsolate@v8@@V?$Local@VObject@v8@@@3@@Z 0000000180004ab0 f   rainfall_node.obj
 0001:00003ca0       ?AvgRainfall@@YAXAEBV?$FunctionCallbackInfo@VValue@v8@@@v8@@@Z 0000000180004ca0 f   rainfall_node.obj
 0001:00003d80       ?init@@YAXV?$Local@VObject@v8@@@v8@@0@Z 0000000180004d80 f   rainfall_node.obj
 0001:00003e20       ?resize@?$vector@Vrain_result@@V?$allocator@Vrain_result@@@std@@@std@@QEAAX_K@Z 0000000180004e20 f i rainfall_node.obj
 0001:00003f20       ??1?$vector@Vrain_result@@V?$allocator@Vrain_result@@@std@@@std@@QEAA@XZ 0000000180004f20 f i rainfall_node.obj
 0001:00003f30       ??1?$vector@Vlocation@@V?$allocator@Vlocation@@@std@@@std@@QEAA@XZ 0000000180004f30 f i rainfall_node.obj
 0001:00003f40       ?push_back@?$vector@Vlocation@@V?$allocator@Vlocation@@@std@@@std@@QEAAX$$QEAVlocation@@@Z 0000000180004f40 f i rainfall_node.obj
 0001:00004070       ?push_back@?$vector@Vsample@@V?$allocator@Vsample@@@std@@@std@@QEAAXAEBVsample@@@Z 0000000180005070 f i rainfall_node.obj
 0001:00004190       ??1?$_Yarn@_W@std@@QEAA@XZ 0000000180005190 f i rainfall_node.obj
 0001:00004190       ??1?$_Yarn@D@std@@QEAA@XZ  0000000180005190 f i rainfall_node.obj
 0001:000041c0       ?_Tidy@?$vector@Vrain_result@@V?$allocator@Vrain_result@@@std@@@std@@IEAAXXZ 00000001800051c0 f i rainfall_node.obj
 0001:00004250       ?_Tidy@?$vector@Vlocation@@V?$allocator@Vlocation@@@std@@@std@@IEAAXXZ 0000000180005250 f i rainfall_node.obj
 0001:00004340       ?_Reserve@?$vector@Vlocation@@V?$allocator@Vlocation@@@std@@@std@@IEAAX_K@Z 0000000180005340 f i rainfall_node.obj
 0001:00004410       ?_Tidy@?$vector@Vsample@@V?$allocator@Vsample@@@std@@@std@@IEAAXXZ 0000000180005410 f i rainfall_node.obj
 0001:000044d0       ?_Reserve@?$vector@Vsample@@V?$allocator@Vsample@@@std@@@std@@IEAAX_K@Z 00000001800054d0 f i rainfall_node.obj
 0001:000045a0       ?assign@?$basic_string@DU?$char_traits@D@std@@V?$allocator@D@2@@std@@QEAAAEAV12@PEBD_K@Z 00000001800055a0 f i rainfall_node.obj
 0001:000046d0       ?assign@?$basic_string@DU?$char_traits@D@std@@V?$allocator@D@2@@std@@QEAAAEAV12@AEBV12@_K1@Z 00000001800056d0 f i rainfall_node.obj
 0001:00004800       ?append@?$basic_string@DU?$char_traits@D@std@@V?$allocator@D@2@@std@@QEAAAEAV12@PEBD_K@Z 0000000180005800 f i rainfall_node.obj
 0001:00004950       ?append@?$basic_string@DU?$char_traits@D@std@@V?$allocator@D@2@@std@@QEAAAEAV12@AEBV12@_K1@Z 0000000180005950 f i rainfall_node.obj
 0001:00004a80       ?_Reallocate@?$vector@Vrain_result@@V?$allocator@Vrain_result@@@std@@@std@@IEAAX_K@Z 0000000180005a80 f i rainfall_node.obj
 0001:00004bc0       ?_Reallocate@?$vector@Vlocation@@V?$allocator@Vlocation@@@std@@@std@@IEAAX_K@Z 0000000180005bc0 f i rainfall_node.obj
 0001:00004db0       ?_Reallocate@?$vector@Vsample@@V?$allocator@Vsample@@@std@@@std@@IEAAX_K@Z 0000000180005db0 f i rainfall_node.obj
 0001:00004f60       ??$use_facet@V?$ctype@D@std@@@std@@YAAEBV?$ctype@D@0@AEBVlocale@0@@Z 0000000180005f60 f i rainfall_node.obj
 0001:00005090       ??$_Immortalize@V_Iostream_error_category@std@@@std@@YAAEAV_Iostream_error_category@0@XZ 0000000180006090 f i rainfall_node.obj
 0001:00005110       ??$?6U?$char_traits@D@std@@@std@@YAAEAV?$basic_ostream@DU?$char_traits@D@std@@@0@AEAV10@PEBD@Z 0000000180006110 f i rainfall_node.obj
 0001:00005390       ??1sentry@?$basic_ostream@DU?$char_traits@D@std@@@std@@QEAA@XZ 0000000180006390 f i rainfall_node.obj
 0001:00005410       ??0sentry@?$basic_ostream@DU?$char_traits@D@std@@@std@@QEAA@AEAV12@@Z 0000000180006410 f i rainfall_node.obj
 0001:00005490       ?flush@?$basic_ostream@DU?$char_traits@D@std@@@std@@QEAAAEAV12@XZ 0000000180006490 f i rainfall_node.obj
 0001:00005590       ?put@?$basic_ostream@DU?$char_traits@D@std@@@std@@QEAAAEAV12@D@Z 0000000180006590 f i rainfall_node.obj
 0001:00005700       ?widen@?$basic_ios@DU?$char_traits@D@std@@@std@@QEBADD@Z 0000000180006700 f i rainfall_node.obj
 0001:00005780       ??1_Sentry_base@?$basic_ostream@DU?$char_traits@D@std@@@std@@QEAA@XZ 0000000180006780 f i rainfall_node.obj
 0001:000057a0       ??$_Destroy_range1@V?$allocator@Vsample@@@std@@PEAVsample@@@std@@YAXPEAVsample@@0AEAU?$_Wrap_alloc@V?$allocator@Vsample@@@std@@@0@U?$integral_constant@_N$0A@@0@@Z 00000001800067a0 f i rainfall_node.obj
 0001:000058ac       __imp_load_uv_queue_work   00000001800068ac f   node:node.exe
 0001:000058b8       __tailMerge_node_exe       00000001800068b8 f i node:node.exe
 0001:00005931       __imp_load_?Global@Context@v8@@QEAA?AV?$Local@VObject@v8@@@2@XZ 0000000180006931 f   node:node.exe
 0001:0000593d       __imp_load_?New@Integer@v8@@SA?AV?$Local@VInteger@v8@@@2@PEAVIsolate@2@H@Z 000000018000693d f   node:node.exe
 0001:00005949       __imp_load_?GetCurrentContext@Isolate@v8@@QEAA?AV?$Local@VContext@v8@@@2@XZ 0000000180006949 f   node:node.exe
 0001:00005955       __imp_load_?GetCurrent@Isolate@v8@@SAPEAV12@XZ 0000000180006955 f   node:node.exe
 0001:00005961       __imp_load_?CreateHandle@HandleScope@v8@@KAPEAPEAVObject@internal@2@PEAVIsolate@42@PEAV342@@Z 0000000180006961 f   node:node.exe
 0001:0000596d       __imp_load_??1HandleScope@v8@@QEAA@XZ 000000018000696d f   node:node.exe
 0001:00005979       __imp_load_??0HandleScope@v8@@QEAA@PEAVIsolate@1@@Z 0000000180006979 f   node:node.exe
 0001:00005985       __imp_load_?New@Array@v8@@SA?AV?$Local@VArray@v8@@@2@PEAVIsolate@2@H@Z 0000000180006985 f   node:node.exe
 0001:00005991       __imp_load_?Length@Array@v8@@QEBAIXZ 0000000180006991 f   node:node.exe
 0001:0000599d       __imp_load_?GetFunction@FunctionTemplate@v8@@QEAA?AV?$Local@VFunction@v8@@@2@XZ 000000018000699d f   node:node.exe
 0001:000059a9       __imp_load_?New@FunctionTemplate@v8@@SA?AV?$Local@VFunctionTemplate@v8@@@2@PEAVIsolate@2@P6AXAEBV?$FunctionCallbackInfo@VValue@v8@@@2@@ZV?$Local@VValue@v8@@@2@V?$Local@VSignature@v8@@@2@HW4ConstructorBehavior@2@@Z 00000001800069a9 f   node:node.exe
 0001:000059b5       __imp_load_?DisposeGlobal@V8@v8@@CAXPEAPEAVObject@internal@2@@Z 00000001800069b5 f   node:node.exe
 0001:000059c1       __imp_load_?GlobalizeReference@V8@v8@@CAPEAPEAVObject@internal@2@PEAVIsolate@42@PEAPEAV342@@Z 00000001800069c1 f   node:node.exe
 0001:000059cd       __imp_load_?NumberValue@Value@v8@@QEBANXZ 00000001800069cd f   node:node.exe
 0001:000059d9       __imp_load_??1Utf8Value@String@v8@@QEAA@XZ 00000001800069d9 f   node:node.exe
 0001:000059e5       __imp_load_??0Utf8Value@String@v8@@QEAA@V?$Local@VValue@v8@@@2@@Z 00000001800069e5 f   node:node.exe
 0001:000059f1       __imp_load_?NewFromUtf8@String@v8@@SA?AV?$Local@VString@v8@@@2@PEAVIsolate@2@PEBDW4NewStringType@12@H@Z 00000001800069f1 f   node:node.exe
 0001:000059fd       __imp_load_?New@Number@v8@@SA?AV?$Local@VNumber@v8@@@2@PEAVIsolate@2@N@Z 00000001800069fd f   node:node.exe
 0001:00005a09       __imp_load_?New@Object@v8@@SA?AV?$Local@VObject@v8@@@2@PEAVIsolate@2@@Z 0000000180006a09 f   node:node.exe
 0001:00005a15       __imp_load_?Get@Object@v8@@QEAA?AV?$Local@VValue@v8@@@2@V32@@Z 0000000180006a15 f   node:node.exe
 0001:00005a21       __imp_load_?Get@Object@v8@@QEAA?AV?$Local@VValue@v8@@@2@I@Z 0000000180006a21 f   node:node.exe
 0001:00005a2d       __imp_load_?Set@Object@v8@@QEAA_NV?$Local@VValue@v8@@@2@0@Z 0000000180006a2d f   node:node.exe
 0001:00005a39       __imp_load_?Set@Object@v8@@QEAA_NIV?$Local@VValue@v8@@@2@@Z 0000000180006a39 f   node:node.exe
 0001:00005a45       __imp_load_?SetName@Function@v8@@QEAAXV?$Local@VString@v8@@@2@@Z 0000000180006a45 f   node:node.exe
 0001:00005a51       __imp_load_?Call@Function@v8@@QEAA?AV?$Local@VValue@v8@@@2@V32@HQEAV32@@Z 0000000180006a51 f   node:node.exe
 0001:00005a5d       __imp_load_node_module_register 0000000180006a5d f   node:node.exe
 0001:00005a69       __imp_load_uv_default_loop 0000000180006a69 f   node:node.exe
 0001:00005a78       ??0bad_alloc@std@@QEAA@AEBV01@@Z 0000000180006a78 f i libcpmt:xthrow.obj
 0001:00005ab8       ??0bad_alloc@std@@QEAA@XZ  0000000180006ab8 f i libcpmt:xthrow.obj
 0001:00005ad8       ??0exception@std@@QEAA@AEBV01@@Z 0000000180006ad8 f i libcpmt:xthrow.obj
 0001:00005b10       ??0length_error@std@@QEAA@AEBV01@@Z 0000000180006b10 f i libcpmt:xthrow.obj
 0001:00005b50       ??0length_error@std@@QEAA@PEBD@Z 0000000180006b50 f i libcpmt:xthrow.obj
 0001:00005b9c       ??0logic_error@std@@QEAA@AEBV01@@Z 0000000180006b9c f i libcpmt:xthrow.obj
 0001:00005bdc       ??0out_of_range@std@@QEAA@AEBV01@@Z 0000000180006bdc f i libcpmt:xthrow.obj
 0001:00005c1c       ??0out_of_range@std@@QEAA@PEBD@Z 0000000180006c1c f i libcpmt:xthrow.obj
 0001:00005c68       ??1out_of_range@std@@UEAA@XZ 0000000180006c68 f i libcpmt:xthrow.obj
 0001:00005c68       ??1bad_array_new_length@std@@UEAA@XZ 0000000180006c68 f i LIBCMT:throw_bad_alloc.obj
 0001:00005c68       ??1bad_cast@std@@UEAA@XZ   0000000180006c68 f i libcpmt:cerr.obj
 0001:00005c68       ??1bad_exception@std@@UEAA@XZ 0000000180006c68 f i libvcruntime:frame.obj
 0001:00005c68       ??1length_error@std@@UEAA@XZ 0000000180006c68 f i libcpmt:xthrow.obj
 0001:00005c68       ??1bad_alloc@std@@UEAA@XZ  0000000180006c68 f i libcpmt:xthrow.obj
 0001:00005c7c       ?_Xlength_error@std@@YAXPEBD@Z 0000000180006c7c f   libcpmt:xthrow.obj
 0001:00005ca0       ?_Xout_of_range@std@@YAXPEBD@Z 0000000180006ca0 f   libcpmt:xthrow.obj
 0001:00005cc4       ?what@exception@std@@UEBAPEBDXZ 0000000180006cc4 f i libcpmt:xthrow.obj
 0001:00005cd8       ??0_Init_locks@std@@QEAA@XZ 0000000180006cd8 f   libcpmt:xlock.obj
 0001:00005d24       ??0_Lockit@std@@QEAA@H@Z   0000000180006d24 f   libcpmt:xlock.obj
 0001:00005d60       ??1_Init_locks@std@@QEAA@XZ 0000000180006d60 f   libcpmt:xlock.obj
 0001:00005da4       ??1_Lockit@std@@QEAA@XZ    0000000180006da4 f   libcpmt:xlock.obj
 0001:00005dd8       ??4?$_Yarn@D@std@@QEAAAEAV01@PEBD@Z 0000000180006dd8 f i libcpmt:locale0.obj
 0001:00005e50       ??_G_Fac_node@std@@QEAAPEAXI@Z 0000000180006e50 f i libcpmt:locale0.obj
 0001:00005edc       ??_E_Locimp@locale@std@@MEAAPEAXI@Z 0000000180006edc f i libcpmt:locale0.obj
 0001:00005edc       ??_G_Locimp@locale@std@@MEAAPEAXI@Z 0000000180006edc f i libcpmt:locale0.obj
 0001:00005f48       ?_Facet_Register@std@@YAXPEAV_Facet_base@1@@Z 0000000180006f48 f   libcpmt:locale0.obj
 0001:00005f80       ?_Getgloballocale@locale@std@@CAPEAV_Locimp@12@XZ 0000000180006f80 f   libcpmt:locale0.obj
 0001:00005f88       ?_Init@locale@std@@CAPEAV_Locimp@12@_N@Z 0000000180006f88 f   libcpmt:locale0.obj
 0001:00006044       ?_Locimp_dtor@_Locimp@locale@std@@CAXPEAV123@@Z 0000000180007044 f   libcpmt:locale0.obj
 0001:000060ec       ?_Locinfo_ctor@_Locinfo@std@@SAXPEAV12@PEBD@Z 00000001800070ec f   libcpmt:locale0.obj
 0001:00006158       ?_Locinfo_dtor@_Locinfo@std@@SAXPEAV12@@Z 0000000180007158 f   libcpmt:locale0.obj
 0001:0000617c       ?_New_Locimp@_Locimp@locale@std@@CAPEAV123@_N@Z 000000018000717c f   libcpmt:locale0.obj
 0001:000061ec       ?_Setgloballocale@locale@std@@CAXPEAX@Z 00000001800071ec f   libcpmt:locale0.obj
 0001:00006220       _Deletegloballocale        0000000180007220 f   libcpmt:locale0.obj
 0001:000062a8       ??$use_facet@V?$codecvt@DDU_Mbstatet@@@std@@@std@@YAAEBV?$codecvt@DDU_Mbstatet@@@0@AEBVlocale@0@@Z 00000001800072a8 f i libcpmt:cerr.obj
 0001:000063e0       ??0?$basic_ostream@DU?$char_traits@D@std@@@std@@QEAA@PEAV?$basic_streambuf@DU?$char_traits@D@std@@@1@_N@Z 00000001800073e0 f i libcpmt:cerr.obj
 0001:000064a8       ??0?$basic_streambuf@DU?$char_traits@D@std@@@std@@IEAA@XZ 00000001800074a8 f i libcpmt:cerr.obj
 0001:00006558       ??0bad_cast@std@@QEAA@AEBV01@@Z 0000000180007558 f i libcpmt:cerr.obj
 0001:00006598       ??0bad_cast@std@@QEAA@XZ   0000000180007598 f i libcpmt:cerr.obj
 0001:000065b8       ??1?$basic_filebuf@DU?$char_traits@D@std@@@std@@UEAA@XZ 00000001800075b8 f i libcpmt:cerr.obj
 0001:00006664       ??1?$basic_ios@DU?$char_traits@D@std@@@std@@UEAA@XZ 0000000180007664 f i libcpmt:cerr.obj
 0001:00006688       ??_E?$basic_ostream@DU?$char_traits@D@std@@@std@@$4PPPPPPPM@A@EAAPEAXI@Z 0000000180007688 f i libcpmt:cerr.obj
 0001:00006694       ??_E?$basic_filebuf@DU?$char_traits@D@std@@@std@@UEAAPEAXI@Z 0000000180007694 f i libcpmt:cerr.obj
 0001:00006694       ??_G?$basic_filebuf@DU?$char_traits@D@std@@@std@@UEAAPEAXI@Z 0000000180007694 f i libcpmt:cerr.obj
 0001:000066c8       ??_E?$basic_ios@DU?$char_traits@D@std@@@std@@UEAAPEAXI@Z 00000001800076c8 f i libcpmt:cerr.obj
 0001:000066c8       ??_G?$basic_ios@DU?$char_traits@D@std@@@std@@UEAAPEAXI@Z 00000001800076c8 f i libcpmt:cerr.obj
 0001:00006714       ??_G?$basic_ostream@DU?$char_traits@D@std@@@std@@UEAAPEAXI@Z 0000000180007714 f i libcpmt:cerr.obj
 0001:00006714       ??_E?$basic_ostream@DU?$char_traits@D@std@@@std@@UEAAPEAXI@Z 0000000180007714 f i libcpmt:cerr.obj
 0001:00006784       ??_G?$basic_streambuf@DU?$char_traits@D@std@@@std@@UEAAPEAXI@Z 0000000180007784 f i libcpmt:cerr.obj
 0001:00006784       ??_E?$basic_streambuf@DU?$char_traits@D@std@@@std@@UEAAPEAXI@Z 0000000180007784 f i libcpmt:cerr.obj
 0001:000067d4       ??_E?$codecvt@DDU_Mbstatet@@@std@@MEAAPEAXI@Z 00000001800077d4 f i libcpmt:cerr.obj
 0001:000067d4       ??_G?$codecvt@DDU_Mbstatet@@@std@@MEAAPEAXI@Z 00000001800077d4 f i libcpmt:cerr.obj
 0001:00006800       ??_Gios_base@std@@UEAAPEAXI@Z 0000000180007800 f i libcpmt:cerr.obj
 0001:00006800       ??_Eios_base@std@@UEAAPEAXI@Z 0000000180007800 f i libcpmt:cerr.obj
 0001:0000684c       ??_Glocale@std@@QEAAPEAXI@Z 000000018000784c f i libcpmt:cerr.obj
 0001:000068dc       ?_Endwrite@?$basic_filebuf@DU?$char_traits@D@std@@@std@@IEAA_NXZ 00000001800078dc f i libcpmt:cerr.obj
 0001:00006a90       ?_Getcat@?$codecvt@DDU_Mbstatet@@@std@@SA_KPEAPEBVfacet@locale@2@PEBV42@@Z 0000000180007a90 f i libcpmt:cerr.obj
 0001:00006b54       ?_Init@?$basic_filebuf@DU?$char_traits@D@std@@@std@@IEAAXPEAU_iobuf@@W4_Initfl@12@@Z 0000000180007b54 f i libcpmt:cerr.obj
 0001:00006c40       ?_Init@ios_base@std@@IEAAXXZ 0000000180007c40 f i libcpmt:cerr.obj
 0001:00006cc0       ?_Initcvt@?$basic_filebuf@DU?$char_traits@D@std@@@std@@IEAAXPEBV?$codecvt@DDU_Mbstatet@@@2@@Z 0000000180007cc0 f i libcpmt:cerr.obj
 0001:00006d60       ?_Lock@?$basic_filebuf@DU?$char_traits@D@std@@@std@@UEAAXXZ 0000000180007d60 f i libcpmt:cerr.obj
 0001:00006d7c       ?_Unlock@?$basic_filebuf@DU?$char_traits@D@std@@@std@@UEAAXXZ 0000000180007d7c f i libcpmt:cerr.obj
 0001:00006d98       ?append@?$basic_string@DU?$char_traits@D@std@@V?$allocator@D@2@@std@@QEAAAEAV12@_KD@Z 0000000180007d98 f i libcpmt:cerr.obj
 0001:00006e88       ?do_length@?$codecvt@DDU_Mbstatet@@@std@@MEBAHAEAU_Mbstatet@@PEBD1_K@Z 0000000180007e88 f i libcpmt:cerr.obj
 0001:00006e9c       ?do_out@?$codecvt@DDU_Mbstatet@@@std@@MEBAHAEAU_Mbstatet@@PEBD1AEAPEBDPEAD3AEAPEAD@Z 0000000180007e9c f i libcpmt:cerr.obj
 0001:00006e9c       ?do_in@?$codecvt@DDU_Mbstatet@@@std@@MEBAHAEAU_Mbstatet@@PEBD1AEAPEBDPEAD3AEAPEAD@Z 0000000180007e9c f i libcpmt:cerr.obj
 0001:00006eb8       ?do_unshift@?$codecvt@DDU_Mbstatet@@@std@@MEBAHAEAU_Mbstatet@@PEAD1AEAPEAD@Z 0000000180007eb8 f i libcpmt:cerr.obj
 0001:00006ec4       ?imbue@?$basic_filebuf@DU?$char_traits@D@std@@@std@@MEAAXAEBVlocale@2@@Z 0000000180007ec4 f i libcpmt:cerr.obj
 0001:00006ee8       ?overflow@?$basic_filebuf@DU?$char_traits@D@std@@@std@@MEAAHH@Z 0000000180007ee8 f i libcpmt:cerr.obj
 0001:00007148       ?pbackfail@?$basic_filebuf@DU?$char_traits@D@std@@@std@@MEAAHH@Z 0000000180008148 f i libcpmt:cerr.obj
 0001:00007218       ?underflow@?$basic_streambuf@DU?$char_traits@D@std@@@std@@MEAAHXZ 0000000180008218 f i libcpmt:cerr.obj
 0001:00007218       ?pbackfail@?$basic_streambuf@DU?$char_traits@D@std@@@std@@MEAAHH@Z 0000000180008218 f i libcpmt:cerr.obj
 0001:00007218       ?overflow@?$basic_streambuf@DU?$char_traits@D@std@@@std@@MEAAHH@Z 0000000180008218 f i libcpmt:cerr.obj
 0001:0000721c       ?seekoff@?$basic_filebuf@DU?$char_traits@D@std@@@std@@MEAA?AV?$fpos@U_Mbstatet@@@2@_JHH@Z 000000018000821c f i libcpmt:cerr.obj
 0001:00007308       ?seekpos@?$basic_filebuf@DU?$char_traits@D@std@@@std@@MEAA?AV?$fpos@U_Mbstatet@@@2@V32@H@Z 0000000180008308 f i libcpmt:cerr.obj
 0001:00007408       ?seekoff@?$basic_streambuf@DU?$char_traits@D@std@@@std@@MEAA?AV?$fpos@U_Mbstatet@@@2@_JHH@Z 0000000180008408 f i libcpmt:cerr.obj
 0001:00007408       ?seekpos@?$basic_streambuf@DU?$char_traits@D@std@@@std@@MEAA?AV?$fpos@U_Mbstatet@@@2@V32@H@Z 0000000180008408 f i libcpmt:cerr.obj
 0001:00007424       ?setbuf@?$basic_filebuf@DU?$char_traits@D@std@@@std@@MEAAPEAV?$basic_streambuf@DU?$char_traits@D@std@@@2@PEAD_J@Z 0000000180008424 f i libcpmt:cerr.obj
 0001:00007478       ?setbuf@?$basic_streambuf@DU?$char_traits@D@std@@@std@@MEAAPEAV12@PEAD_J@Z 0000000180008478 f i libcpmt:cerr.obj
 0001:0000747c       ?showmanyc@?$basic_streambuf@DU?$char_traits@D@std@@@std@@MEAA_JXZ 000000018000847c f i libcpmt:cerr.obj
 0001:0000747c       ?_Get_deleter@_Ref_count_base@std@@UEBAPEAXAEBVtype_info@@@Z 000000018000847c f i libcpmt:excptptr.obj
 0001:0000747c       ?sync@?$basic_streambuf@DU?$char_traits@D@std@@@std@@MEAAHXZ 000000018000847c f i libcpmt:cerr.obj
 0001:00007480       ?sync@?$basic_filebuf@DU?$char_traits@D@std@@@std@@MEAAHXZ 0000000180008480 f i libcpmt:cerr.obj
 0001:000074e0       ?uflow@?$basic_filebuf@DU?$char_traits@D@std@@@std@@MEAAHXZ 00000001800084e0 f i libcpmt:cerr.obj
 0001:00007778       ?uflow@?$basic_streambuf@DU?$char_traits@D@std@@@std@@MEAAHXZ 0000000180008778 f i libcpmt:cerr.obj
 0001:000077c4       ?underflow@?$basic_filebuf@DU?$char_traits@D@std@@@std@@MEAAHXZ 00000001800087c4 f i libcpmt:cerr.obj
 0001:0000783c       ?xsgetn@?$basic_streambuf@DU?$char_traits@D@std@@@std@@MEAA_JPEAD_J@Z 000000018000883c f i libcpmt:cerr.obj
 0001:000078fc       ?xsputn@?$basic_streambuf@DU?$char_traits@D@std@@@std@@MEAA_JPEBD_J@Z 00000001800088fc f i libcpmt:cerr.obj
 0001:000079c0       ?_Syserror_map@std@@YAPEBDH@Z 00000001800089c0 f   libcpmt:syserror.obj
 0001:000079e8       _Getctype                  00000001800089e8 f   libcpmt:_tolower.obj
 0001:00007aa8       _Tolower                   0000000180008aa8 f   libcpmt:_tolower.obj
 0001:00007bd0       _Thrd_sleep                0000000180008bd0 f   libcpmt:cthread.obj
 0001:00007c44       _Toupper                   0000000180008c44 f   libcpmt:_toupper.obj
 0001:00007d7c       _Xtime_diff_to_millis2     0000000180008d7c f   libcpmt:xtime.obj
 0001:00007e48       _Xtime_get_ticks           0000000180008e48 f   libcpmt:xtime.obj
 0001:00007e78       xtime_get                  0000000180008e78 f   libcpmt:xtime.obj
 0001:00007ed0       _Mtxdst                    0000000180008ed0 f   libcpmt:xmtx.obj
 0001:00007ed0       ??1_NonReentrantBlockingLock@details@Concurrency@@QEAA@XZ 0000000180008ed0 f   libconcrt:rtlocks.obj
 0001:00007ed8       _Mtxinit                   0000000180008ed8 f   libcpmt:xmtx.obj
 0001:00007ee8       _Mtxlock                   0000000180008ee8 f   libcpmt:xmtx.obj
 0001:00007ef0       _Mtxunlock                 0000000180008ef0 f   libcpmt:xmtx.obj
 0001:00007ef8       ?_Atexit@@YAXP6AXXZ@Z      0000000180008ef8 f   libcpmt:iosptrs.obj
 0001:00007f38       __local_stdio_printf_options 0000000180008f38 f i libcpmt:locale.obj
 0001:00007f40       ?_Addstd@ios_base@std@@SAXPEAV12@@Z 0000000180008f40 f   libcpmt:ios.obj
 0001:00007fb0       ?_Ios_base_dtor@ios_base@std@@CAXPEAV12@@Z 0000000180008fb0 f   libcpmt:ios.obj
 0001:00007ff4       ?_Tidy@ios_base@std@@AEAAXXZ 0000000180008ff4 f i libcpmt:ios.obj
 0001:00008084       __crtLCMapStringA          0000000180009084 f   libcpmt:StlLCMapStringA.obj
 0001:00008840       __crtGetSystemTimePreciseAsFileTime 0000000180009840 f   libcpmt:winapisupp.obj
 0001:00008880       __crtInitializeCriticalSectionEx 0000000180009880 f   libcpmt:winapisupp.obj
 0001:000088e0       GetTableIndexFromLocaleName 00000001800098e0 f   libcpmt:winapinls.obj
 0001:0000896c       __crtDownlevelLocaleNameToLCID 000000018000996c f   libcpmt:winapinls.obj
 0001:000089a0       __crtLCMapStringEx         00000001800099a0 f   libcpmt:winapinls.obj
 0001:00008a5c       __wcsnicmp_ascii           0000000180009a5c f   libcpmt:winapinls.obj
 0001:00008ad0       __security_check_cookie    0000000180009ad0 f   LIBCMT:_amdsecgs_.obj
 0001:00008af4       ??2@YAPEAX_K@Z             0000000180009af4 f   LIBCMT:new_scalar.obj
 0001:00008b30       ??3@YAXPEAX@Z              0000000180009b30 f   LIBCMT:delete_scalar.obj
 0001:00008c80       _Init_thread_footer        0000000180009c80 f   LIBCMT:thread_safe_statics.obj
 0001:00008ce0       _Init_thread_header        0000000180009ce0 f   LIBCMT:thread_safe_statics.obj
 0001:00008d48       _Init_thread_notify        0000000180009d48 f   LIBCMT:thread_safe_statics.obj
 0001:00008da4       _Init_thread_wait          0000000180009da4 f   LIBCMT:thread_safe_statics.obj
 0001:00008e3c       __scrt_acquire_startup_lock 0000000180009e3c f   LIBCMT:utility.obj
 0001:00008e78       __scrt_dllmain_after_initialize_c 0000000180009e78 f   LIBCMT:utility.obj
 0001:00008eac       __scrt_dllmain_before_initialize_c 0000000180009eac f   LIBCMT:utility.obj
 0001:00008ec4       __scrt_dllmain_crt_thread_attach 0000000180009ec4 f   LIBCMT:utility.obj
 0001:00008eec       __scrt_dllmain_crt_thread_detach 0000000180009eec f   LIBCMT:utility.obj
 0001:00008f04       __scrt_dllmain_exception_filter 0000000180009f04 f   LIBCMT:utility.obj
 0001:00008f68       __scrt_dllmain_uninitialize_c 0000000180009f68 f   LIBCMT:utility.obj
 0001:00008f98       __scrt_dllmain_uninitialize_critical 0000000180009f98 f   LIBCMT:utility.obj
 0001:00008fac       __scrt_initialize_crt      0000000180009fac f   LIBCMT:utility.obj
 0001:00008ff8       __scrt_initialize_onexit_tables 0000000180009ff8 f   LIBCMT:utility.obj
 0001:000090c4       __scrt_is_nonwritable_in_current_image 000000018000a0c4 f   LIBCMT:utility.obj
 0001:00009160       __scrt_release_startup_lock 000000018000a160 f   LIBCMT:utility.obj
 0001:00009184       __scrt_uninitialize_crt    000000018000a184 f   LIBCMT:utility.obj
 0001:000091b0       _onexit                    000000018000a1b0 f   LIBCMT:utility.obj
 0001:00009200       atexit                     000000018000a200 f   LIBCMT:utility.obj
 0001:00009218       ??_V@YAXPEAX@Z             000000018000a218 f   LIBCMT:delete_array.obj
 0001:00009218       ??3@YAXPEAX_K@Z            000000018000a218 f   LIBCMT:delete_scalar_size.obj
 0001:0000956c       _DllMainCRTStartup         000000018000a56c f   LIBCMT:dll_dllmain.obj
 0001:000095ac       ??_Etype_info@@UEAAPEAXI@Z 000000018000a5ac f i LIBCMT:std_type_info_static.obj
 0001:000095ac       ??_Gtype_info@@UEAAPEAXI@Z 000000018000a5ac f i LIBCMT:std_type_info_static.obj
 0001:000095d8       _guard_check_icall         000000018000a5d8 f i LIBCMT:checkcfg.obj
 0001:000095e0       __GSHandlerCheck           000000018000a5e0 f   LIBCMT:_gshandler_.obj
 0001:00009600       __GSHandlerCheckCommon     000000018000a600 f   LIBCMT:_gshandler_.obj
 0001:0000965c       __GSHandlerCheck_EH        000000018000a65c f   LIBCMT:gshandlereh.obj
 0001:000096f0       _alloca_probe              000000018000a6f0 f   LIBCMT:_chkstk_.obj
 0001:000096f0       __chkstk                   000000018000a6f0 f   LIBCMT:_chkstk_.obj
 0001:00009744       __raise_securityfailure    000000018000a744 f   LIBCMT:gs_report.obj
 0001:00009778       __report_gsfailure         000000018000a778 f   LIBCMT:gs_report.obj
 0001:0000984c       __report_rangecheckfailure 000000018000a84c f   LIBCMT:gs_report.obj
 0001:00009860       __report_securityfailure   000000018000a860 f   LIBCMT:gs_report.obj
 0001:000099e0       ??0bad_array_new_length@std@@QEAA@AEBV01@@Z 000000018000a9e0 f i LIBCMT:throw_bad_alloc.obj
 0001:00009a20       ??0bad_array_new_length@std@@QEAA@XZ 000000018000aa20 f i LIBCMT:throw_bad_alloc.obj
 0001:00009a40       ?_Xbad_alloc@std@@YAXXZ    000000018000aa40 f   libcpmt:xthrow.obj
 0001:00009a40       ?__scrt_throw_std_bad_alloc@@YAXXZ 000000018000aa40 f   LIBCMT:throw_bad_alloc.obj
 0001:00009a60       ?__scrt_throw_std_bad_array_new_length@@YAXXZ 000000018000aa60 f   LIBCMT:throw_bad_alloc.obj
 0001:00009a80       __crt_debugger_hook        000000018000aa80 f   LIBCMT:utility_desktop.obj
 0001:00009a88       __scrt_fastfail            000000018000aa88 f   LIBCMT:utility_desktop.obj
 0001:00009bd0       __isa_available_init       000000018000abd0 f   LIBCMT:_cpu_disp_.obj
 0001:00009d98       DllMain                    000000018000ad98 f   LIBCMT:dll_dllmain_stub.obj
 0001:00009d98       ?do_max_length@codecvt_base@std@@MEBAHXZ 000000018000ad98 f   libcpmt:cerr.obj
 0001:00009d98       ?do_encoding@codecvt_base@std@@MEBAHXZ 000000018000ad98 f   libcpmt:cerr.obj
 0001:00009d98       _get_startup_argv_mode     000000018000ad98 f   LIBCMT:argv_mode.obj
 0001:00009da0       __scrt_is_ucrt_dll_in_use  000000018000ada0 f   LIBCMT:ucrt_detection.obj
 0001:00009dac       __security_init_cookie     000000018000adac f   LIBCMT:gs_support.obj
 0001:00009e58       ?__scrt_initialize_type_info@@YAXXZ 000000018000ae58 f   LIBCMT:tncleanup.obj
 0001:00009e68       ?__scrt_uninitialize_type_info@@YAXXZ 000000018000ae68 f   LIBCMT:tncleanup.obj
 0001:00009e74       __local_stdio_scanf_options 000000018000ae74 f i LIBCMT:default_local_stdio_options.obj
 0001:00009e7c       __scrt_initialize_default_local_stdio_options 000000018000ae7c f   LIBCMT:default_local_stdio_options.obj
 0001:00009e98       __scrt_get_dyn_tls_init_callback 000000018000ae98 f   LIBCMT:dyn_tls_init.obj
 0001:00009ea0       _RTC_Initialize            000000018000aea0 f   LIBCMT:_initsect_.obj
 0001:00009eec       _RTC_Terminate             000000018000aeec f   LIBCMT:_initsect_.obj
 0001:00009f40       ??1DefaultWaiterPool@platform@details@Concurrency@@QEAA@XZ 000000018000af40 f i libconcrt:Platform.obj
 0001:00009fa8       ?__TlsFree@platform@details@Concurrency@@YAXK@Z 000000018000afa8 f   libconcrt:Platform.obj
 0001:00009fb0       _concrt_static_cleanup     000000018000afb0 f   libconcrt:utils.obj
 0001:00009fc8       ?InitializeCookie@Security@details@Concurrency@@SA_KXZ 000000018000afc8 f   libconcrt:utils.obj
 0001:0000a02c       ?CheckOneShotStaticDestruction@SchedulerBase@details@Concurrency@@SAXXZ 000000018000b02c f   libconcrt:SchedulerBase.obj
 0001:0000a06c       ?OneShotStaticDestruction@UMSThreadScheduler@details@Concurrency@@SAXXZ 000000018000b06c f   libconcrt:UMSThreadScheduler.obj
 0001:0000a0a0       memcpy                     000000018000b0a0 f   libvcruntime:memcpy.obj
 0001:0000a0a0       memmove                    000000018000b0a0 f   libvcruntime:memcpy.obj
 0001:0000a4d8       __DestructExceptionObject  000000018000b4d8 f   libvcruntime:frame.obj
 0001:0000a560       ??0bad_exception@std@@QEAA@AEBV01@@Z 000000018000b560 f i libvcruntime:frame.obj
 0001:0000a5a0       ??0bad_exception@std@@QEAA@XZ 000000018000b5a0 f i libvcruntime:frame.obj
 0001:0000a5c0       ??_Gbad_exception@std@@UEAAPEAXI@Z 000000018000b5c0 f i libvcruntime:frame.obj
 0001:0000a5c0       ??_Ebad_cast@std@@UEAAPEAXI@Z 000000018000b5c0 f i libcpmt:cerr.obj
 0001:0000a5c0       ??_Gbad_alloc@std@@UEAAPEAXI@Z 000000018000b5c0 f i libcpmt:xthrow.obj
 0001:0000a5c0       ??_Gbad_cast@std@@UEAAPEAXI@Z 000000018000b5c0 f i libcpmt:cerr.obj
 0001:0000a5c0       ??_Ebad_exception@std@@UEAAPEAXI@Z 000000018000b5c0 f i libvcruntime:frame.obj
 0001:0000a5c0       ??_Ebad_array_new_length@std@@UEAAPEAXI@Z 000000018000b5c0 f i LIBCMT:throw_bad_alloc.obj
 0001:0000a5c0       ??_Elength_error@std@@UEAAPEAXI@Z 000000018000b5c0 f i libcpmt:xthrow.obj
 0001:0000a5c0       ??_Eout_of_range@std@@UEAAPEAXI@Z 000000018000b5c0 f i libcpmt:xthrow.obj
 0001:0000a5c0       ??_Eexception@std@@UEAAPEAXI@Z 000000018000b5c0 f i libcpmt:xthrow.obj
 0001:0000a5c0       ??_Gexception@std@@UEAAPEAXI@Z 000000018000b5c0 f i libcpmt:xthrow.obj
 0001:0000a5c0       ??_Glength_error@std@@UEAAPEAXI@Z 000000018000b5c0 f i libcpmt:xthrow.obj
 0001:0000a5c0       ??_Gbad_array_new_length@std@@UEAAPEAXI@Z 000000018000b5c0 f i LIBCMT:throw_bad_alloc.obj
 0001:0000a5c0       ??_Elogic_error@std@@UEAAPEAXI@Z 000000018000b5c0 f i libcpmt:xthrow.obj
 0001:0000a5c0       ??_Glogic_error@std@@UEAAPEAXI@Z 000000018000b5c0 f i libcpmt:xthrow.obj
 0001:0000a5c0       ??_Ebad_alloc@std@@UEAAPEAXI@Z 000000018000b5c0 f i libcpmt:xthrow.obj
 0001:0000a5c0       ??_Gout_of_range@std@@UEAAPEAXI@Z 000000018000b5c0 f i libcpmt:xthrow.obj
 0001:0000af60       ?_CallMemberFunction0@@YAXPEAXP6AX0@Z@Z 000000018000bf60 f i libvcruntime:frame.obj
 0001:0000af64       ?_CallMemberFunction1@@YAXPEAXP6AX0@Z0@Z 000000018000bf64 f i libvcruntime:frame.obj
 0001:0000af70       ?_CallMemberFunction2@@YAXPEAXP6AX0@Z0H@Z 000000018000bf70 f i libvcruntime:frame.obj
 0001:0000af80       __AdjustPointer            000000018000bf80 f   libvcruntime:frame.obj
 0001:0000afa4       __BuildCatchObject         000000018000bfa4 f   libvcruntime:frame.obj
 0001:0000b068       __BuildCatchObjectHelper   000000018000c068 f   libvcruntime:frame.obj
 0001:0000b248       __CxxCallCatchBlock        000000018000c248 f   libvcruntime:frame.obj
 0001:0000b434       __FrameUnwindFilter        000000018000c434 f   libvcruntime:frame.obj
 0001:0000b480       __FrameUnwindToState       000000018000c480 f   libvcruntime:frame.obj
 0001:0000b614       __InternalCxxFrameHandler  000000018000c614 f   libvcruntime:frame.obj
 0001:0000b86c       __TypeMatch                000000018000c86c f   libvcruntime:frame.obj
 0001:0000b9ac       __std_terminate            000000018000c9ac f   libvcruntime:frame.obj
 0001:0000b9b8       _purecall                  000000018000c9b8 f   libvcruntime:purevirt.obj
 0001:0000b9f4       __std_exception_copy       000000018000c9f4 f   libvcruntime:std_exception.obj
 0001:0000ba84       __std_exception_destroy    000000018000ca84 f   libvcruntime:std_exception.obj
 0001:0000baac       _CxxThrowException         000000018000caac f   libvcruntime:throw.obj
 0001:0000bb84       ?_ExecutionInCatch@@YAHPEAU_xDISPATCHER_CONTEXT@@PEBU_s_FuncInfo@@@Z 000000018000cb84 f   libvcruntime:trnsctrl.obj
 0001:0000bbf8       ?_GetEstablisherFrame@@YAPEA_KPEA_KPEAU_xDISPATCHER_CONTEXT@@PEBU_s_FuncInfo@@0@Z 000000018000cbf8 f   libvcruntime:trnsctrl.obj
 0001:0000bcc4       ?_GetRangeOfTrysToCheck@@YAPEBU_s_TryBlockMapEntry@@PEA_KPEBU_s_FuncInfo@@HHPEAI2PEAU_xDISPATCHER_CONTEXT@@@Z 000000018000ccc4 f   libvcruntime:trnsctrl.obj
 0001:0000bdf0       ?__FrameUnwindToEmptyState@@YAXPEA_KPEAU_xDISPATCHER_CONTEXT@@PEBU_s_FuncInfo@@@Z 000000018000cdf0 f   libvcruntime:trnsctrl.obj
 0001:0000be84       ?__SehTransFilter@@YAHPEAU_EXCEPTION_POINTERS@@PEAUEHExceptionRecord@@PEA_KPEAU_CONTEXT@@PEAU_xDISPATCHER_CONTEXT@@PEBU_s_FuncInfo@@PEAH@Z 000000018000ce84 f   libvcruntime:trnsctrl.obj
 0001:0000bf1c       _CallSETranslator          000000018000cf1c f   libvcruntime:trnsctrl.obj
 0001:0000bf74       _CreateFrameInfo           000000018000cf74 f   libvcruntime:trnsctrl.obj
 0001:0000bfb0       _FindAndUnlinkFrame        000000018000cfb0 f   libvcruntime:trnsctrl.obj
 0001:0000c008       _GetImageBase              000000018000d008 f   libvcruntime:trnsctrl.obj
 0001:0000c01c       _GetThrowImageBase         000000018000d01c f   libvcruntime:trnsctrl.obj
 0001:0000c030       _IsExceptionObjectToBeDestroyed 000000018000d030 f   libvcruntime:trnsctrl.obj
 0001:0000c060       _SetImageBase              000000018000d060 f   libvcruntime:trnsctrl.obj
 0001:0000c078       _SetThrowImageBase         000000018000d078 f   libvcruntime:trnsctrl.obj
 0001:0000c090       _UnwindNestedFrames        000000018000d090 f   libvcruntime:trnsctrl.obj
 0001:0000c1b4       __CxxFrameHandler3         000000018000d1b4 f   libvcruntime:trnsctrl.obj
 0001:0000c250       memset                     000000018000d250 f   libvcruntime:memset.obj
 0001:0000c400       memcmp                     000000018000d400 f   libvcruntime:memcmp.obj
 0001:0000c690       __vcrt_FlsAlloc            000000018000d690 f   libvcruntime:winapi_downlevel.obj
 0001:0000c6e4       __vcrt_FlsFree             000000018000d6e4 f   libvcruntime:winapi_downlevel.obj
 0001:0000c738       __vcrt_FlsGetValue         000000018000d738 f   libvcruntime:winapi_downlevel.obj
 0001:0000c78c       __vcrt_FlsSetValue         000000018000d78c f   libvcruntime:winapi_downlevel.obj
 0001:0000c7f4       __vcrt_InitializeCriticalSectionEx 000000018000d7f4 f   libvcruntime:winapi_downlevel.obj
 0001:0000c86c       __vcrt_initialize_winapi_thunks 000000018000d86c f   libvcruntime:winapi_downlevel.obj
 0001:0000c8b8       __vcrt_uninitialize_winapi_thunks 000000018000d8b8 f   libvcruntime:winapi_downlevel.obj
 0001:0000c8f8       __vcrt_initialize          000000018000d8f8 f   libvcruntime:initialization.obj
 0001:0000c92c       __vcrt_thread_attach       000000018000d92c f   libvcruntime:initialization.obj
 0001:0000c940       __vcrt_thread_detach       000000018000d940 f   libvcruntime:initialization.obj
 0001:0000c954       __vcrt_uninitialize        000000018000d954 f   libvcruntime:initialization.obj
 0001:0000c974       __vcrt_uninitialize_critical 000000018000d974 f   libvcruntime:initialization.obj
 0001:0000c984       __C_specific_handler       000000018000d984 f   libvcruntime:_chandler_.obj
 0001:0000cb80       __std_type_info_compare    000000018000db80 f   libvcruntime:std_type_info.obj
 0001:0000cba8       __std_type_info_destroy_list 000000018000dba8 f   libvcruntime:std_type_info.obj
 0001:0000cbd4       __vcrt_freefls             000000018000dbd4 f   libvcruntime:per_thread_data.obj
 0001:0000cbf4       __vcrt_freeptd             000000018000dbf4 f   libvcruntime:per_thread_data.obj
 0001:0000cc44       __vcrt_getptd              000000018000dc44 f   libvcruntime:per_thread_data.obj
 0001:0000cc60       __vcrt_getptd_noexit       000000018000dc60 f   libvcruntime:per_thread_data.obj
 0001:0000cd18       __vcrt_initialize_ptd      000000018000dd18 f   libvcruntime:per_thread_data.obj
 0001:0000cd58       __vcrt_uninitialize_ptd    000000018000dd58 f   libvcruntime:per_thread_data.obj
 0001:0000cd7c       ?__GetCurrentState@@YAHPEA_KPEAU_xDISPATCHER_CONTEXT@@PEBU_s_FuncInfo@@@Z 000000018000dd7c f   libvcruntime:ehstate.obj
 0001:0000cda4       ?__GetUnwindTryBlock@@YAHPEA_KPEAU_xDISPATCHER_CONTEXT@@PEBU_s_FuncInfo@@@Z 000000018000dda4 f   libvcruntime:ehstate.obj
 0001:0000cdd0       ?__SetState@@YAXPEA_KPEAU_xDISPATCHER_CONTEXT@@PEBU_s_FuncInfo@@H@Z 000000018000ddd0 f   libvcruntime:ehstate.obj
 0001:0000cddc       ?__SetUnwindTryBlock@@YAXPEA_KPEAU_xDISPATCHER_CONTEXT@@PEBU_s_FuncInfo@@H@Z 000000018000dddc f   libvcruntime:ehstate.obj
 0001:0000ce18       ?__StateFromControlPc@@YAHPEBU_s_FuncInfo@@PEAU_xDISPATCHER_CONTEXT@@@Z 000000018000de18 f   libvcruntime:ehstate.obj
 0001:0000ce20       ?__StateFromIp@@YAHPEBU_s_FuncInfo@@PEAU_xDISPATCHER_CONTEXT@@_J@Z 000000018000de20 f   libvcruntime:ehstate.obj
 0001:0000cea0       _CallSettingFrame          000000018000dea0 f   libvcruntime:handlers.obj
 0001:0000cef0       _local_unwind              000000018000def0 f   libvcruntime:_jmpuwind_.obj
 0001:0000cf20       _NLG_Notify                000000018000df20 f   libvcruntime:_jmpuwind_.obj
 0001:0000cf40       __NLG_Dispatch2            000000018000df40 f   libvcruntime:_jmpuwind_.obj
 0001:0000cf50       __NLG_Return2              000000018000df50 f   libvcruntime:_jmpuwind_.obj
 0001:0000cf54       __vcrt_initialize_pure_virtual_call_handler 000000018000df54 f   libvcruntime:purevirt_data.obj
 0001:0000cf78       __vcrt_initialize_locks    000000018000df78 f   libvcruntime:locks.obj
 0001:0000cfc0       __vcrt_uninitialize_locks  000000018000dfc0 f   libvcruntime:locks.obj
 0001:0000cff8       __acrt_call_reportfault    000000018000dff8 f   libucrt:invalid_parameter.obj
 0001:0000d154       __acrt_initialize_invalid_parameter_handler 000000018000e154 f   libucrt:invalid_parameter.obj
 0001:0000d15c       _invalid_parameter         000000018000e15c f   libucrt:invalid_parameter.obj
 0001:0000d204       _invalid_parameter_noinfo  000000018000e204 f   libucrt:invalid_parameter.obj
 0001:0000d224       _invalid_parameter_noinfo_noreturn 000000018000e224 f   libucrt:invalid_parameter.obj
 0001:0000d254       _invoke_watson             000000018000e254 f   libucrt:invalid_parameter.obj
 0001:0000d29c       abort                      000000018000e29c f   libucrt:abort.obj
 0001:0000d2f4       free                       000000018000e2f4 f   libucrt:free.obj
 0001:0000d2fc       ??0_LocaleUpdate@@QEAA@QEAU__crt_locale_pointers@@@Z 000000018000e2fc f i libucrt:stricmp.obj
 0001:0000d38c       __ascii_stricmp            000000018000e38c f   libucrt:stricmp.obj
 0001:0000d3c8       _stricmp                   000000018000e3c8 f   libucrt:stricmp.obj
 0001:0000d410       _stricmp_l                 000000018000e410 f   libucrt:stricmp.obj
 0001:0000d4c4       __acrt_initialize_locks    000000018000e4c4 f   libucrt:locks.obj
 0001:0000d50c       __acrt_lock                000000018000e50c f   libucrt:locks.obj
 0001:0000d528       __acrt_uninitialize_locks  000000018000e528 f   libucrt:locks.obj
 0001:0000d560       __acrt_unlock              000000018000e560 f   libucrt:locks.obj
 0001:0000d57c       _lock_locales              000000018000e57c f   libucrt:locks.obj
 0001:0000d58c       _unlock_locales            000000018000e58c f   libucrt:locks.obj
 0001:0000d59c       malloc                     000000018000e59c f   libucrt:malloc.obj
 0001:0000d68c       setlocale                  000000018000e68c f   libucrt:setlocale.obj
 0001:0000d858       __acrt_errno_from_os_error 000000018000e858 f   libucrt:errno.obj
 0001:0000d8a0       __acrt_errno_map_os_error  000000018000e8a0 f   libucrt:errno.obj
 0001:0000d8f0       __doserrno                 000000018000e8f0 f   libucrt:errno.obj
 0001:0000d910       _errno                     000000018000e910 f   libucrt:errno.obj
 0001:0000d930       __acrt_initialize_stdio    000000018000e930 f   libucrt:_file.obj
 0001:0000da50       __acrt_iob_func            000000018000ea50 f   libucrt:_file.obj
 0001:0000da64       __acrt_uninitialize_stdio  000000018000ea64 f   libucrt:_file.obj
 0001:0000dac0       _get_stream_buffer_pointers 000000018000eac0 f   libucrt:_file.obj
 0001:0000db08       _lock_file                 000000018000eb08 f   libucrt:_file.obj
 0001:0000db14       _unlock_file               000000018000eb14 f   libucrt:_file.obj
 0001:0000db20       _fclose_nolock             000000018000eb20 f   libucrt:fclose.obj
 0001:0000dba4       fclose                     000000018000eba4 f   libucrt:fclose.obj
 0001:0000dc10       __acrt_stdio_flush_nolock  000000018000ec10 f   libucrt:fflush.obj
 0001:0000dc88       _fflush_nolock             000000018000ec88 f   libucrt:fflush.obj
 0001:0000dcd4       _flushall                  000000018000ecd4 f   libucrt:fflush.obj
 0001:0000ddc4       fflush                     000000018000edc4 f   libucrt:fflush.obj
 0001:0000de08       _fgetc_nolock              000000018000ee08 f   libucrt:fgetc.obj
 0001:0000de4c       fgetc                      000000018000ee4c f   libucrt:fgetc.obj
 0001:0000df50       fgetpos                    000000018000ef50 f   libucrt:fgetpos.obj
 0001:0000df9c       fputc                      000000018000ef9c f   libucrt:fputc.obj
 0001:0000e0bc       fsetpos                    000000018000f0bc f   libucrt:fsetpos.obj
 0001:0000e368       _fseeki64                  000000018000f368 f   libucrt:fseek.obj
 0001:0000e370       ??$?RV<lambda_5d4c3fee44080f75d5d9762853974fe0>@@AEAV<lambda_532e024f4337e6fc7ad266c2bef9f4ed>@@V<lambda_c87bdc10097eb2402edb8ba9bdf0697b>@@@?$__crt_seh_guarded_call@_K@@QEAA_K$$QEAV<lambda_5d4c3fee44080f75d5d9762853974fe0>@@AEAV<lambda_532e024f4337e6fc7ad266c2bef9f4ed>@@$$QEAV<lambda_c87bdc10097eb2402edb8ba9bdf0697b>@@@Z 000000018000f370 f i libucrt:fwrite.obj
 0001:0000e414       _fwrite_nolock             000000018000f414 f   libucrt:fwrite.obj
 0001:0000e5b0       fwrite                     000000018000f5b0 f   libucrt:fwrite.obj
 0001:0000e634       ??$?RV<lambda_7a5ef57ff966f610505f1d28a3d40618>@@AEAV<lambda_b721fa326cdb32351d23dfa67958c160>@@V<lambda_5e0fb27672408a07956fe59e48ccb2aa>@@@?$__crt_seh_guarded_call@H@@QEAAH$$QEAV<lambda_7a5ef57ff966f610505f1d28a3d40618>@@AEAV<lambda_b721fa326cdb32351d23dfa67958c160>@@$$QEAV<lambda_5e0fb27672408a07956fe59e48ccb2aa>@@@Z 000000018000f634 f i libucrt:setvbuf.obj
 0001:0000e764       setvbuf                    000000018000f764 f   libucrt:setvbuf.obj
 0001:0000e804       _ungetc_nolock             000000018000f804 f   libucrt:ungetc.obj
 0001:0000e914       ungetc                     000000018000f914 f   libucrt:ungetc.obj
 0001:0000e974       _calloc_base               000000018000f974 f   libucrt:calloc_base.obj
 0001:0000e9ec       __pctype_func              000000018000f9ec f   libucrt:ctype.obj
 0001:0000ea1c       islower                    000000018000fa1c f i libucrt:_ctype.obj
 0001:0000ea90       isupper                    000000018000fa90 f i libucrt:_ctype.obj
 0001:0000eb04       _wcsdup                    000000018000fb04 f   libucrt:wcsdup.obj
 0001:0000eb88       ___lc_codepage_func        000000018000fb88 f   libucrt:initctype.obj
 0001:0000ebb8       ___lc_locale_name_func     000000018000fbb8 f   libucrt:initctype.obj
 0001:0000ebec       __acrt_locale_initialize_ctype 000000018000fbec f   libucrt:initctype.obj
 0001:0000f1c0       _malloc_base               00000001800101c0 f   libucrt:malloc_base.obj
 0001:0000f220       _realloc_base              0000000180010220 f   libucrt:realloc_base.obj
 0001:0000f2b0       pow                        00000001800102b0 f   libucrt:pow.obj
 0001:00010950       powf                       0000000180011950 f   libucrt:powf.obj
 0001:00011818       __strncnt                  0000000180012818 f   libucrt:strncnt.obj
 0001:00011830       _free_base                 0000000180012830 f   libucrt:free_base.obj
 0001:00011870       terminate                  0000000180012870 f   libucrt:terminate.obj
 0001:00011910       _ismbblead                 0000000180012910 f   libucrt:ismbbyte.obj
 0001:00011974       _tolower_l                 0000000180012974 f   libucrt:tolower_toupper.obj
 0001:00011ab4       wcscpy_s                   0000000180012ab4 f   libucrt:wcscpy_s.obj
 0001:00011b1c       wcsnlen                    0000000180012b1c f   libucrt:strnlen.obj
 0001:00011d0c       __acrt_initialize_new_handler 0000000180012d0c f   libucrt:new_handler.obj
 0001:00011d14       _callnewh                  0000000180012d14 f   libucrt:new_handler.obj
 0001:00011d54       _query_new_handler         0000000180012d54 f   libucrt:new_handler.obj
 0001:00011d88       _seh_filter_dll            0000000180012d88 f   libucrt:exception_filter.obj
 0001:00011d9c       _seh_filter_exe            0000000180012d9c f   libucrt:exception_filter.obj
 0001:0001215c       __acrt_initialize_thread_local_exit_callback 000000018001315c f   libucrt:exit.obj
 0001:00012164       _cexit                     0000000180013164 f   libucrt:exit.obj
 0001:00012174       _exit                      0000000180013174 f   libucrt:exit.obj
 0001:00012180       _is_c_termination_complete 0000000180013180 f   libucrt:exit.obj
 0001:00012344       __acrt_allocate_buffer_for_argv 0000000180013344 f   libucrt:argv_parsing.obj
 0001:000123a8       _configure_narrow_argv     00000001800133a8 f   libucrt:argv_parsing.obj
 0001:00012704       __dcrt_uninitialize_environments_nolock 0000000180013704 f   libucrt:environment_initialization.obj
 0001:0001273c       _initialize_narrow_environment 000000018001373c f   libucrt:environment_initialization.obj
 0001:00012744       ??$?RV<lambda_b8c45f8f788dd370798f47cfe8ac3a86>@@AEAV<lambda_4e60a939b0d047cfe11ddc22648dfba9>@@V<lambda_332c3edc96d0294ec56c57d38c1cdfd5>@@@?$__crt_seh_guarded_call@H@@QEAAH$$QEAV<lambda_b8c45f8f788dd370798f47cfe8ac3a86>@@AEAV<lambda_4e60a939b0d047cfe11ddc22648dfba9>@@$$QEAV<lambda_332c3edc96d0294ec56c57d38c1cdfd5>@@@Z 0000000180013744 f i libucrt:onexit.obj
 0001:00012780       ??$?RV<lambda_e24bbb7b643b32fcea6fa61b31d4c984>@@AEAV<lambda_275893d493268fdec8709772e3fcec0e>@@V<lambda_9d71df4d7cf3f480f8d633942495c3b0>@@@?$__crt_seh_guarded_call@H@@QEAAH$$QEAV<lambda_e24bbb7b643b32fcea6fa61b31d4c984>@@AEAV<lambda_275893d493268fdec8709772e3fcec0e>@@$$QEAV<lambda_9d71df4d7cf3f480f8d633942495c3b0>@@@Z 0000000180013780 f i libucrt:onexit.obj
 0001:00012afc       _crt_atexit                0000000180013afc f   libucrt:onexit.obj
 0001:00012b0c       _execute_onexit_table      0000000180013b0c f   libucrt:onexit.obj
 0001:00012b48       _initialize_onexit_table   0000000180013b48 f   libucrt:onexit.obj
 0001:00012b88       _register_onexit_function  0000000180013b88 f   libucrt:onexit.obj
 0001:00012d04       __acrt_initialize          0000000180013d04 f   libucrt:initialization.obj
 0001:00012d18       __acrt_thread_attach       0000000180013d18 f   libucrt:initialization.obj
 0001:00012d2c       __acrt_thread_detach       0000000180013d2c f   libucrt:initialization.obj
 0001:00012d3c       __acrt_uninitialize        0000000180013d3c f   libucrt:initialization.obj
 0001:00012d50       __acrt_uninitialize_critical 0000000180013d50 f   libucrt:initialization.obj
 0001:00012d60       _initterm                  0000000180013d60 f   libucrt:initterm.obj
 0001:00012dd8       _initterm_e                0000000180013dd8 f   libucrt:initterm.obj
 0001:00012e30       exp                        0000000180013e30 f   libucrt:exp.obj
 0001:00013228       sqrt                       0000000180014228 f   libucrt:sqrt.obj
 0001:000132fc       wcsncpy_s                  00000001800142fc f   libucrt:wcsncpy_s.obj
 0001:000133e0       strcpy_s                   00000001800143e0 f   libucrt:strcpy_s.obj
 0001:00013440       ??$is_overflow_condition@K@__crt_strtox@@YA_NIK@Z 0000000180014440 f i libucrt:atox.obj
 0001:0001346c       ??$make_c_string_character_source@_W$$T@__crt_strtox@@YA?AV?$c_string_character_source@_W@0@QEB_W$$T@Z 000000018001446c f i libucrt:atox.obj
 0001:00013480       ??$parse_integer@KV?$c_string_character_source@_W@__crt_strtox@@@__crt_strtox@@YAKQEAU__crt_locale_pointers@@V?$c_string_character_source@_W@0@H_N@Z 0000000180014480 f i libucrt:atox.obj
 0001:00013b54       _wtol                      0000000180014b54 f   libucrt:atox.obj
 0001:00013b80       ??$?RV<lambda_46352004c1216016012b18bd6f87e700>@@AEAV<lambda_3bd07e1a1191394380780325891bf33f>@@V<lambda_334532d3f185bcaa59b5be82d7d22bff>@@@?$__crt_seh_guarded_call@X@@QEAAX$$QEAV<lambda_46352004c1216016012b18bd6f87e700>@@AEAV<lambda_3bd07e1a1191394380780325891bf33f>@@$$QEAV<lambda_334532d3f185bcaa59b5be82d7d22bff>@@@Z 0000000180014b80 f i libucrt:per_thread_data.obj
 0001:00013be0       ??$?RV<lambda_5e887d1dcbef67a5eb4283622ba103bf>@@AEAV<lambda_4466841279450cc726390878d4a41900>@@V<lambda_341c25c0346d94847f1f3c463c57e077>@@@?$__crt_seh_guarded_call@X@@QEAAX$$QEAV<lambda_5e887d1dcbef67a5eb4283622ba103bf>@@AEAV<lambda_4466841279450cc726390878d4a41900>@@$$QEAV<lambda_341c25c0346d94847f1f3c463c57e077>@@@Z 0000000180014be0 f i libucrt:per_thread_data.obj
 0001:00013c28       ??$?RV<lambda_72d1df2b273a38828b1ce30cbf4cdab5>@@AEAV<lambda_876a65b173b8412d3a47c70a915b0cf4>@@V<lambda_41932305e351933ebe8f8be3ed8bb5dc>@@@?$__crt_seh_guarded_call@X@@QEAAX$$QEAV<lambda_72d1df2b273a38828b1ce30cbf4cdab5>@@AEAV<lambda_876a65b173b8412d3a47c70a915b0cf4>@@$$QEAV<lambda_41932305e351933ebe8f8be3ed8bb5dc>@@@Z 0000000180014c28 f i libucrt:per_thread_data.obj
 0001:00013c68       ??$?RV<lambda_fb3a7dec4e47f37f22dae91bb15c9095>@@AEAV<lambda_698284760c8add0bfb0756c19673e34b>@@V<lambda_dfb8eca1e75fef3034a8fb18dd509707>@@@?$__crt_seh_guarded_call@X@@QEAAX$$QEAV<lambda_fb3a7dec4e47f37f22dae91bb15c9095>@@AEAV<lambda_698284760c8add0bfb0756c19673e34b>@@$$QEAV<lambda_dfb8eca1e75fef3034a8fb18dd509707>@@@Z 0000000180014c68 f i libucrt:per_thread_data.obj
 0001:00013ef8       __acrt_freeptd             0000000180014ef8 f   libucrt:per_thread_data.obj
 0001:00013f3c       __acrt_getptd              0000000180014f3c f   libucrt:per_thread_data.obj
 0001:00013fd0       __acrt_getptd_noexit       0000000180014fd0 f   libucrt:per_thread_data.obj
 0001:00014070       __acrt_initialize_ptd      0000000180015070 f   libucrt:per_thread_data.obj
 0001:000140ac       __acrt_uninitialize_ptd    00000001800150ac f   libucrt:per_thread_data.obj
 0001:000140d0       ??$?RV<lambda_c36588078e9f5dfd39652860aa6b3aaf>@@AEAV<lambda_ec61778202f4f5fc7e7711acc23c3bca>@@V<lambda_dc9d2797ccde5d239b4a0efae8ebd7db>@@@?$__crt_seh_guarded_call@P6AXH@Z@@QEAAP6AXH@Z$$QEAV<lambda_c36588078e9f5dfd39652860aa6b3aaf>@@AEAV<lambda_ec61778202f4f5fc7e7711acc23c3bca>@@$$QEAV<lambda_dc9d2797ccde5d239b4a0efae8ebd7db>@@@Z 00000001800150d0 f i libucrt:signal.obj
 0001:00014118       __acrt_get_sigabrt_handler 0000000180015118 f   libucrt:signal.obj
 0001:00014148       __acrt_initialize_signal_handlers 0000000180015148 f   libucrt:signal.obj
 0001:00014168       raise                      0000000180015168 f   libucrt:signal.obj
 0001:00014404       __acrt_update_locale_info  0000000180015404 f   libucrt:locale_update.obj
 0001:00014438       __acrt_update_multibyte_info 0000000180015438 f   libucrt:locale_update.obj
 0001:0001446c       ??$?RV<lambda_5df02c53a8f32f81fd64e5bbb78039f1>@@AEAV<lambda_2af78c5f5901b1372d98f9ab3177dfa6>@@AEAV<lambda_f51fe5fd7c79a33db34fc9310f277369>@@@?$__crt_seh_guarded_call@X@@QEAAX$$QEAV<lambda_5df02c53a8f32f81fd64e5bbb78039f1>@@AEAV<lambda_2af78c5f5901b1372d98f9ab3177dfa6>@@AEAV<lambda_f51fe5fd7c79a33db34fc9310f277369>@@@Z 000000018001546c f i libucrt:wsetlocale.obj
 0001:00014498       ??$?RV<lambda_d67e8342c384adda8f857579ab50b2ae>@@AEAV<lambda_30712929f77e709619002f448b6a9510>@@V<lambda_4525336fd7e478d965fb7ca7a337cad8>@@@?$__crt_seh_guarded_call@X@@QEAAX$$QEAV<lambda_d67e8342c384adda8f857579ab50b2ae>@@AEAV<lambda_30712929f77e709619002f448b6a9510>@@$$QEAV<lambda_4525336fd7e478d965fb7ca7a337cad8>@@@Z 0000000180015498 f i libucrt:wsetlocale.obj
 0001:00014664       __acrt_copy_locale_name    0000000180015664 f   libucrt:wsetlocale.obj
 0001:000146e8       __acrt_set_locale_changed  00000001800156e8 f   libucrt:wsetlocale.obj
 0001:000146f4       __acrt_uninitialize_locale 00000001800156f4 f   libucrt:wsetlocale.obj
 0001:0001473c       __lc_lctowcs               000000018001573c f   libucrt:wsetlocale.obj
 0001:000147e0       __lc_wcstolc               00000001800157e0 f   libucrt:wsetlocale.obj
 0001:00014a58       _expandlocale              0000000180015a58 f   libucrt:wsetlocale.obj
 0001:00014e54       _wcscats                   0000000180015e54 f   libucrt:wsetlocale.obj
 0001:00014ebc       _wsetlocale                0000000180015ebc f   libucrt:wsetlocale.obj
 0001:0001574c       ??$?RV<lambda_630b2aca97f6d20d5b5ea6529ea6b6af>@@AEAV<lambda_af91936f1d075d609f72d9d8cba980af>@@V<lambda_e82fa975f615b5c7c7b0e4d178fdae67>@@@?$__crt_seh_guarded_call@H@@QEAAH$$QEAV<lambda_630b2aca97f6d20d5b5ea6529ea6b6af>@@AEAV<lambda_af91936f1d075d609f72d9d8cba980af>@@$$QEAV<lambda_e82fa975f615b5c7c7b0e4d178fdae67>@@@Z 000000018001674c f i libucrt:winapi_thunks.obj
 0001:00015984       __acrt_EnumSystemLocalesEx 0000000180016984 f   libucrt:winapi_thunks.obj
 0001:00015a2c       __acrt_FlsAlloc            0000000180016a2c f   libucrt:winapi_thunks.obj
 0001:00015a84       __acrt_FlsFree             0000000180016a84 f   libucrt:winapi_thunks.obj
 0001:00015adc       __acrt_FlsGetValue         0000000180016adc f   libucrt:winapi_thunks.obj
 0001:00015b34       __acrt_FlsSetValue         0000000180016b34 f   libucrt:winapi_thunks.obj
 0001:00015b9c       __acrt_GetLocaleInfoEx     0000000180016b9c f   libucrt:winapi_thunks.obj
 0001:00015c34       __acrt_GetUserDefaultLocaleName 0000000180016c34 f   libucrt:winapi_thunks.obj
 0001:00015ca8       __acrt_InitializeCriticalSectionEx 0000000180016ca8 f   libucrt:winapi_thunks.obj
 0001:00015d20       __acrt_IsValidLocaleName   0000000180016d20 f   libucrt:winapi_thunks.obj
 0001:00015d88       __acrt_LCIDToLocaleName    0000000180016d88 f   libucrt:winapi_thunks.obj
 0001:00015e14       __acrt_LCMapStringEx       0000000180016e14 f   libucrt:winapi_thunks.obj
 0001:00015f04       __acrt_LocaleNameToLCID    0000000180016f04 f   libucrt:winapi_thunks.obj
 0001:00015f6c       __acrt_can_use_vista_locale_apis 0000000180016f6c f   libucrt:winapi_thunks.obj
 0001:00015f9c       __acrt_initialize_winapi_thunks 0000000180016f9c f   libucrt:winapi_thunks.obj
 0001:00015fd4       __acrt_is_packaged_app     0000000180016fd4 f   libucrt:winapi_thunks.obj
 0001:0001605c       __acrt_uninitialize_winapi_thunks 000000018001705c f   libucrt:winapi_thunks.obj
 0001:0001627c       _mbstowcs_s_l              000000018001727c f   libucrt:mbstowcs.obj
 0001:000163ac       mbstowcs_s                 00000001800173ac f   libucrt:mbstowcs.obj
 0001:00016700       _wcstombs_s_l              0000000180017700 f   libucrt:wcstombs.obj
 0001:000167ec       _fcloseall                 00000001800177ec f   libucrt:closeall.obj
 0001:000168a0       __acrt_stdio_free_buffer_nolock 00000001800178a0 f   libucrt:_freebuf.obj
 0001:00016ac8       __acrt_initialize_lowio    0000000180017ac8 f   libucrt:ioinit.obj
 0001:00016b04       __acrt_uninitialize_lowio  0000000180017b04 f   libucrt:ioinit.obj
 0001:00016b44       ??$?RV<lambda_bfedae4ebbf01fab1bb6dcc6a9e276e0>@@AEAV<lambda_2fe9b910cf3cbf4a0ab98a02ba45b3ec>@@V<lambda_237c231691f317818eb88cc1d5d642d6>@@@?$__crt_seh_guarded_call@H@@QEAAH$$QEAV<lambda_bfedae4ebbf01fab1bb6dcc6a9e276e0>@@AEAV<lambda_2fe9b910cf3cbf4a0ab98a02ba45b3ec>@@$$QEAV<lambda_237c231691f317818eb88cc1d5d642d6>@@@Z 0000000180017b44 f i libucrt:close.obj
 0001:00016bb8       _close                     0000000180017bb8 f   libucrt:close.obj
 0001:00016c5c       _close_nolock              0000000180017c5c f   libucrt:close.obj
 0001:00016d18       _fileno                    0000000180017d18 f   libucrt:fileno.obj
 0001:00016d40       ?__acrt_stdio_free_stream@@YAXV__crt_stdio_stream@@@Z 0000000180017d40 f   libucrt:stream.obj
 0001:00016d84       ??$?RV<lambda_b521505b218e5242e90febf6bfebc422>@@AEAV<lambda_6978c1fb23f02e42e1d9e99668cc68aa>@@V<lambda_314360699dd331753a4119843814e9a7>@@@?$__crt_seh_guarded_call@H@@QEAAH$$QEAV<lambda_b521505b218e5242e90febf6bfebc422>@@AEAV<lambda_6978c1fb23f02e42e1d9e99668cc68aa>@@$$QEAV<lambda_314360699dd331753a4119843814e9a7>@@@Z 0000000180017d84 f i libucrt:commit.obj
 0001:00016e10       _commit                    0000000180017e10 f   libucrt:commit.obj
 0001:00017444       _write                     0000000180018444 f   libucrt:write.obj
 0001:00017530       _write_nolock              0000000180018530 f   libucrt:write.obj
 0001:000179bc       __acrt_stdio_refill_and_read_narrow_nolock 00000001800189bc f   libucrt:_filbuf.obj
 0001:00017e80       _ftelli64                  0000000180018e80 f   libucrt:ftell.obj
 0001:00017e88       _ftelli64_nolock           0000000180018e88 f   libucrt:ftell.obj
 0001:00017f94       __acrt_stdio_flush_and_write_narrow_nolock 0000000180018f94 f   libucrt:_flsbuf.obj
 0001:00018208       _lseeki64                  0000000180019208 f   libucrt:lseek.obj
 0001:00018210       _lseeki64_nolock           0000000180019210 f   libucrt:lseek.obj
 0001:00018218       __acrt_stdio_begin_temporary_buffering_nolock 0000000180019218 f   libucrt:_sftbuf.obj
 0001:000182e8       __acrt_stdio_end_temporary_buffering_nolock 00000001800192e8 f   libucrt:_sftbuf.obj
 0001:00018324       __acrt_stdio_allocate_buffer_nolock 0000000180019324 f   libucrt:_getbuf.obj
 0001:00018388       _query_new_mode            0000000180019388 f   libucrt:new_mode.obj
 0001:00018390       __acrt_initialize_heap     0000000180019390 f   libucrt:heap_handle.obj
 0001:000183ac       __acrt_uninitialize_heap   00000001800193ac f   libucrt:heap_handle.obj
 0001:000183b8       _isctype_l                 00000001800193b8 f   libucrt:isctype.obj
 0001:00018668       __acrt_GetLocaleInfoA      0000000180019668 f   libucrt:getlocaleinfoa.obj
 0001:00018830       __acrt_GetStringTypeA      0000000180019830 f   libucrt:getstringtypea.obj
 0001:00018d40       __acrt_LCMapStringA        0000000180019d40 f   libucrt:lcmapstringa.obj
 0001:00018dd8       iswctype                   0000000180019dd8 f   libucrt:iswctype.obj
 0001:00018e48       _raise_exc                 0000000180019e48 f   libucrt:fpexcept.obj
 0001:00018e70       _raise_exc_ex              0000000180019e70 f   libucrt:fpexcept.obj
 0001:00019178       _raise_excf                000000018001a178 f   libucrt:fpexcept.obj
 0001:000191a4       _set_errno_from_matherr    000000018001a1a4 f   libucrt:fpexcept.obj
 0001:000191d4       _clrfp                     000000018001a1d4 f   libucrt:fpctrl.obj
 0001:000191f4       _ctrlfp                    000000018001a1f4 f   libucrt:fpctrl.obj
 0001:00019270       _set_statfp                000000018001a270 f   libucrt:fpctrl.obj
 0001:00019290       _statfp                    000000018001a290 f   libucrt:fpctrl.obj
 0001:000192a4       _mbtowc_l                  000000018001a2a4 f   libucrt:mbtowc.obj
 0001:000193ec       mbtowc                     000000018001a3ec f   libucrt:mbtowc.obj
 0001:00019400       __acrt_initialize_fma3     000000018001a400 f   libucrt:fma3_available.obj
 0001:00019470       _pow_special               000000018001a470 f   libucrt:pow_special.obj
 0001:00019594       _powf_special              000000018001a594 f   libucrt:pow_special.obj
 0001:00019720       _wcsicmp                   000000018001a720 f   libucrt:wcsicmp.obj
 0001:000197a8       _wcsicmp_l                 000000018001a7a8 f   libucrt:wcsicmp.obj
 0001:00019898       __acrt_initialize_timeset  000000018001a898 f   libucrt:timeset.obj
 0001:000198c8       _isleadbyte_l              000000018001a8c8 f i libucrt:_wctype.obj
 0001:00019de4       ?expand_if_necessary@?$argument_list@D@?A0xca0879c4@@AEAAHXZ 000000018001ade4 f i libucrt:argv_wildcards.obj
 0001:00019eac       __acrt_expand_narrow_argv_wildcards 000000018001aeac f   libucrt:argv_wildcards.obj
 0001:00019eb4       ??$?RV<lambda_99476a1ad63dd22509b5d3e65b0ffc95>@@AEAV<lambda_ad1ced32f4ac17aa236e5ef05d6b3b7c>@@V<lambda_f7424dd8d45958661754dc4f2697e9c3>@@@?$__crt_seh_guarded_call@X@@QEAAX$$QEAV<lambda_99476a1ad63dd22509b5d3e65b0ffc95>@@AEAV<lambda_ad1ced32f4ac17aa236e5ef05d6b3b7c>@@$$QEAV<lambda_f7424dd8d45958661754dc4f2697e9c3>@@@Z 000000018001aeb4 f i libucrt:mbctype.obj
 0001:0001a5b0       __acrt_initialize_multibyte 000000018001b5b0 f   libucrt:mbctype.obj
 0001:0001a5d8       __acrt_update_thread_multibyte_data 000000018001b5d8 f   libucrt:mbctype.obj
 0001:0001a698       _setmbcp_nolock            000000018001b698 f   libucrt:mbctype.obj
 0001:0001a940       __acrt_initialize_command_line 000000018001b940 f   libucrt:argv_data.obj
 0001:0001a968       ?do_always_noconv@?$codecvt@DDU_Mbstatet@@@std@@MEBA_NXZ 000000018001b968 f   libcpmt:cerr.obj
 0001:0001a968       __acrt_uninitialize_command_line 000000018001b968 f   libucrt:argv_data.obj
 0001:0001a96c       __dcrt_get_narrow_environment_from_os 000000018001b96c f   libucrt:get_environment_from_os.obj
 0001:0001aa70       _recalloc                  000000018001ba70 f   libucrt:recalloc.obj
 0001:0001aa78       _recalloc_base             000000018001ba78 f   libucrt:recalloc.obj
 0001:0001ab10       __acrt_execute_initializers 000000018001bb10 f   libucrt:shared_initialization.obj
 0001:0001aba4       __acrt_execute_uninitializers 000000018001bba4 f   libucrt:shared_initialization.obj
 0001:0001abf4       __acrt_has_user_matherr    000000018001bbf4 f   libucrt:matherr.obj
 0001:0001ac14       __acrt_initialize_user_matherr 000000018001bc14 f   libucrt:matherr.obj
 0001:0001ac1c       __acrt_invoke_user_matherr 000000018001bc1c f   libucrt:matherr.obj
 0001:0001ac64       _exp_special               000000018001bc64 f   libucrt:exp_special.obj
 0001:0001ae20       _handle_error              000000018001be20 f   libucrt:libm_error.obj
 0001:0001af48       _handle_errorf             000000018001bf48 f   libucrt:libm_error.obj
 0001:0001b07c       _handle_nan                000000018001c07c f   libucrt:libm_error.obj
 0001:0001b098       _handle_nanf               000000018001c098 f   libucrt:libm_error.obj
 0001:0001b0a8       __acrt_add_locale_ref      000000018001c0a8 f   libucrt:locale_refcounting.obj
 0001:0001b134       __acrt_free_locale         000000018001c134 f   libucrt:locale_refcounting.obj
 0001:0001b2ac       __acrt_locale_add_lc_time_reference 000000018001c2ac f   libucrt:locale_refcounting.obj
 0001:0001b2d4       __acrt_locale_free_lc_time_if_unreferenced 000000018001c2d4 f   libucrt:locale_refcounting.obj
 0001:0001b30c       __acrt_locale_release_lc_time_reference 000000018001c30c f   libucrt:locale_refcounting.obj
 0001:0001b334       __acrt_release_locale_ref  000000018001c334 f   libucrt:locale_refcounting.obj
 0001:0001b3dc       __acrt_update_thread_locale_data 000000018001c3dc f   libucrt:locale_refcounting.obj
 0001:0001b44c       _updatetlocinfoEx_nolock   000000018001c44c f   libucrt:locale_refcounting.obj
 0001:0001b4b4       __acrt_locale_free_monetary 000000018001c4b4 f   libucrt:initmon.obj
 0001:0001b5c0       __acrt_locale_initialize_monetary 000000018001c5c0 f   libucrt:initmon.obj
 0001:0001baf8       __acrt_locale_free_numeric 000000018001caf8 f   libucrt:initnum.obj
 0001:0001bb64       __acrt_locale_initialize_numeric 000000018001cb64 f   libucrt:initnum.obj
 0001:0001c1e8       __acrt_locale_free_time    000000018001d1e8 f   libucrt:inittime.obj
 0001:0001c2f0       __acrt_locale_initialize_time 000000018001d2f0 f   libucrt:inittime.obj
 0001:0001c384       wcscat_s                   000000018001d384 f   libucrt:wcscat_s.obj
 0001:0001c404       wcscspn                    000000018001d404 f   libucrt:wcscspn.obj
 0001:0001c444       wcsncmp                    000000018001d444 f   libucrt:wcsncmp.obj
 0001:0001c470       wcspbrk                    000000018001d470 f   libucrt:wcspbrk.obj
 0001:0001cd14       __acrt_get_qualified_locale 000000018001dd14 f   libucrt:get_qualified_locale.obj
 0001:0001d700       __acrt_get_qualified_locale_downlevel 000000018001e700 f   libucrt:getqloc_downlevel.obj
 0001:0001da58       __acrt_DownlevelLCIDToLocaleName 000000018001ea58 f   libucrt:lcidtoname_downlevel.obj
 0001:0001db3c       __acrt_DownlevelLocaleNameToLCID 000000018001eb3c f   libucrt:lcidtoname_downlevel.obj
 0001:0001db70       __acrt_lowio_create_handle_array 000000018001eb70 f   libucrt:osfinfo.obj
 0001:0001dc08       __acrt_lowio_destroy_handle_array 000000018001ec08 f   libucrt:osfinfo.obj
 0001:0001dc58       __acrt_lowio_ensure_fh_exists 000000018001ec58 f   libucrt:osfinfo.obj
 0001:0001dd10       __acrt_lowio_lock_fh       000000018001ed10 f   libucrt:osfinfo.obj
 0001:0001dd34       __acrt_lowio_unlock_fh     000000018001ed34 f   libucrt:osfinfo.obj
 0001:0001dd58       _free_osfhnd               000000018001ed58 f   libucrt:osfinfo.obj
 0001:0001de14       _get_osfhandle             000000018001ee14 f   libucrt:osfinfo.obj
 0001:0001de8c       _isatty                    000000018001ee8c f   libucrt:isatty.obj
 0001:0001deec       _putwch_nolock             000000018001eeec f   libucrt:putwch.obj
 0001:0001e478       _read                      000000018001f478 f   libucrt:read.obj
 0001:0001e590       _read_nolock               000000018001f590 f   libucrt:read.obj
 0001:0001e9f8       strncpy_s                  000000018001f9f8 f   libucrt:strncpy_s.obj
 0001:0001eae0       _get_fpsr                  000000018001fae0 f   libucrt:fpsr.obj
 0001:0001eaf0       _set_fpsr                  000000018001faf0 f   libucrt:fpsr.obj
 0001:0001eafa       _fclrf                     000000018001fafa f   libucrt:fpsr.obj
 0001:0001eb0e       _frnd                      000000018001fb0e f   libucrt:fpsr.obj
 0001:0001eb30       _towlower_l                000000018001fb30 f   libucrt:towlower.obj
 0001:0001ecd0       qsort                      000000018001fcd0 f   libucrt:qsort.obj
 0001:0001f004       strpbrk                    0000000180020004 f   libucrt:strpbrk.obj
 0001:0001f0a4       _mbsdec                    00000001800200a4 f   libucrt:mbsdec.obj
 0001:0001f0ac       _mbsdec_l                  00000001800200ac f   libucrt:mbsdec.obj
 0001:0001f15c       _msize                     000000018002015c f   libucrt:msize.obj
 0001:0001f2c0       _itow_s                    00000001800202c0 f   libucrt:xtoa.obj
 0001:0001f2e0       _wcsnicmp                  00000001800202e0 f   libucrt:wcsnicmp.obj
 0001:0001f37c       _wcsnicmp_l                000000018002037c f   libucrt:wcsnicmp.obj
 0001:0001f494       wcscmp                     0000000180020494 f   libucrt:wcscmp.obj
 0001:0001f4cc       _query_app_type            00000001800204cc f   libucrt:report_runtime_error.obj
 0001:0001f4d4       __dcrt_lowio_initialize_console_output 00000001800204d4 f   libucrt:initcon.obj
 0001:0001f510       __dcrt_terminate_console_output 0000000180020510 f   libucrt:initcon.obj
 0001:0001f530       log10                      0000000180020530 f   libucrt:log10.obj
 0001:0001fadc       __acrt_LCMapStringW        0000000180020adc f   libucrt:lcmapstringw.obj
 0001:0001fb70       _log10_special             0000000180020b70 f   libucrt:log_special.obj
 0001:0001fc26       IsProcessorFeaturePresent  0000000180020c26 f   kernel32:KERNEL32.dll
 0001:0001fc2c       RtlUnwindEx                0000000180020c2c f   kernel32:KERNEL32.dll
 0001:0001fc34       ?DloadAcquireSectionWriteAccess@@YAXXZ 0000000180020c34 f i DelayImp:delayhlp.obj
 0001:0001fcf0       ?DloadGetSRWLockFunctionPointers@@YAEXZ 0000000180020cf0 f i DelayImp:delayhlp.obj
 0001:0001fd8c       ?DloadMakePermanentImageCommit@@YAXPEAX_K@Z 0000000180020d8c f i DelayImp:delayhlp.obj
 0001:0001fe24       ?DloadObtainSection@@YAPEAXPEAK0@Z 0000000180020e24 f i DelayImp:delayhlp.obj
 0001:0001febc       ?DloadProtectSection@@YAXKPEAK@Z 0000000180020ebc f i DelayImp:delayhlp.obj
 0001:0001ff4c       ?DloadReleaseSectionWriteAccess@@YAXXZ 0000000180020f4c f i DelayImp:delayhlp.obj
 0001:0001fff0       __delayLoadHelper2         0000000180020ff0 f   DelayImp:delayhlp.obj
 0001:000202ec       ??$?0AEAPEAUEHExceptionRecord@@_N@?$_Ref_count_obj_alloc@V__ExceptionPtr@@U?$_StaticAllocator@H@@@std@@QEAA@AEBU?$_StaticAllocator@H@@AEAPEAUEHExceptionRecord@@$$QEA_N@Z 00000001800212ec f i libcpmt:excptptr.obj
 0001:0002036c       ??$allocate_shared@V__ExceptionPtr@@U?$_StaticAllocator@H@@AEAPEAUEHExceptionRecord@@_N@std@@YA?AV?$shared_ptr@V__ExceptionPtr@@@0@AEBU?$_StaticAllocator@H@@AEAPEAUEHExceptionRecord@@$$QEA_N@Z 000000018002136c f i libcpmt:excptptr.obj
 0001:000203f8       ??$make_shared@V__ExceptionPtr@@AEAPEAUEHExceptionRecord@@_N@std@@YA?AV?$shared_ptr@V__ExceptionPtr@@@0@AEAPEAUEHExceptionRecord@@$$QEA_N@Z 00000001800213f8 f i libcpmt:excptptr.obj
 0001:00020494       ??0__ExceptionPtr@@QEAA@PEBUEHExceptionRecord@@_N@Z 0000000180021494 f   libcpmt:excptptr.obj
 0001:00020618       ??1_Ref_count_base@std@@UEAA@XZ 0000000180021618 f i libcpmt:excptptr.obj
 0001:00020624       ??1__ExceptionPtr@@QEAA@XZ 0000000180021624 f   libcpmt:excptptr.obj
 0001:00020700       ??_G?$_Ref_count_obj_alloc@V__ExceptionPtr@@U?$_StaticAllocator@H@@@std@@UEAAPEAXI@Z 0000000180021700 f i libcpmt:excptptr.obj
 0001:00020700       ??_E?$_Ref_count_obj@V__ExceptionPtr@@@std@@UEAAPEAXI@Z 0000000180021700 f i libcpmt:excptptr.obj
 0001:00020700       ??_E?$_Ref_count_obj_alloc@V__ExceptionPtr@@U?$_StaticAllocator@H@@@std@@UEAAPEAXI@Z 0000000180021700 f i libcpmt:excptptr.obj
 0001:00020700       ??_G?$_Ref_count_obj@V__ExceptionPtr@@@std@@UEAAPEAXI@Z 0000000180021700 f i libcpmt:excptptr.obj
 0001:0002072c       ??_E_Ref_count_base@std@@UEAAPEAXI@Z 000000018002172c f i libcpmt:excptptr.obj
 0001:0002072c       ??_G_Ref_count_base@std@@UEAAPEAXI@Z 000000018002172c f i libcpmt:excptptr.obj
 0001:00020758       ?_CallCopyCtor@__ExceptionPtr@@AEBAXPEAX0_KQEBU_s_CatchableType@@@Z 0000000180021758 f   libcpmt:excptptr.obj
 0001:00020844       ?_CopyException@__ExceptionPtr@@SA?AV?$shared_ptr@V__ExceptionPtr@@@std@@PEBXPEBU_s_ThrowInfo@@_N@Z 0000000180021844 f   libcpmt:excptptr.obj
 0001:0002095c       ?_Delete_this@?$_Ref_count_obj@V__ExceptionPtr@@@std@@EEAAXXZ 000000018002195c f i libcpmt:excptptr.obj
 0001:00020994       ?_Delete_this@?$_Ref_count_obj_alloc@V__ExceptionPtr@@U?$_StaticAllocator@H@@@std@@EEAAXXZ 0000000180021994 f i libcpmt:excptptr.obj
 0001:000209c8       ?_Destroy@?$_Ref_count_obj_alloc@V__ExceptionPtr@@U?$_StaticAllocator@H@@@std@@EEAAXXZ 00000001800219c8 f i libcpmt:excptptr.obj
 0001:000209c8       ?_Destroy@?$_Ref_count_obj@V__ExceptionPtr@@@std@@EEAAXXZ 00000001800219c8 f i libcpmt:excptptr.obj
 0001:000209d4       ?_InitBadAllocException@__ExceptionPtr@@CA?AV?$shared_ptr@V__ExceptionPtr@@@std@@XZ 00000001800219d4 f   libcpmt:excptptr.obj
 0001:00020a3c       ?_Reset0@?$_Ptr_base@V__ExceptionPtr@@@std@@QEAAXPEAV__ExceptionPtr@@PEAV_Ref_count_base@2@@Z 0000000180021a3c f i libcpmt:excptptr.obj
 0001:00020b40       _FindPESection             0000000180021b40 f   LIBCMT:pesect.obj
 0001:00020b90       _IsNonwritableInCurrentImage 0000000180021b90 f   LIBCMT:pesect.obj
 0001:00020be0       _ValidateImageBase         0000000180021be0 f   LIBCMT:pesect.obj
 0001:00020c10       wcschr                     0000000180021c10 f   libvcruntime:wcschr.obj
 0001:00020cc0       _guard_dispatch_icall_nop  0000000180021cc0 f   LIBCMT:_guard_dispatch_.obj
 0001:00021630       ??__F_Static@?1???$_Immortalize@V_Iostream_error_category@std@@@std@@YAAEAV_Iostream_error_category@0@XZ@YAXXZ 0000000180022630 f i rainfall_node.obj
 0002:00000000       __imp_GetModuleHandleA     0000000180023000     kernel32:KERNEL32.dll
 0002:00000008       __imp_WideCharToMultiByte  0000000180023008     kernel32:KERNEL32.dll
 0002:00000010       __imp_CloseHandle          0000000180023010     kernel32:KERNEL32.dll
 0002:00000018       __imp_WaitForSingleObjectEx 0000000180023018     kernel32:KERNEL32.dll
 0002:00000020       __imp_Sleep                0000000180023020     kernel32:KERNEL32.dll
 0002:00000028       __imp_GetCurrentProcess    0000000180023028     kernel32:KERNEL32.dll
 0002:00000030       __imp_GetCurrentThread     0000000180023030     kernel32:KERNEL32.dll
 0002:00000038       __imp_GetCurrentThreadId   0000000180023038     kernel32:KERNEL32.dll
 0002:00000040       __imp_QueryPerformanceCounter 0000000180023040     kernel32:KERNEL32.dll
 0002:00000048       __imp_EnterCriticalSection 0000000180023048     kernel32:KERNEL32.dll
 0002:00000050       __imp_LeaveCriticalSection 0000000180023050     kernel32:KERNEL32.dll
 0002:00000058       __imp_DeleteCriticalSection 0000000180023058     kernel32:KERNEL32.dll
 0002:00000060       __imp_EncodePointer        0000000180023060     kernel32:KERNEL32.dll
 0002:00000068       __imp_DecodePointer        0000000180023068     kernel32:KERNEL32.dll
 0002:00000070       __imp_MultiByteToWideChar  0000000180023070     kernel32:KERNEL32.dll
 0002:00000078       __imp_SetLastError         0000000180023078     kernel32:KERNEL32.dll
 0002:00000080       __imp_InitializeCriticalSectionAndSpinCount 0000000180023080     kernel32:KERNEL32.dll
 0002:00000088       __imp_CreateEventW         0000000180023088     kernel32:KERNEL32.dll
 0002:00000090       __imp_TlsAlloc             0000000180023090     kernel32:KERNEL32.dll
 0002:00000098       __imp_TlsGetValue          0000000180023098     kernel32:KERNEL32.dll
 0002:000000a0       __imp_TlsSetValue          00000001800230a0     kernel32:KERNEL32.dll
 0002:000000a8       __imp_TlsFree              00000001800230a8     kernel32:KERNEL32.dll
 0002:000000b0       __imp_GetSystemTimeAsFileTime 00000001800230b0     kernel32:KERNEL32.dll
 0002:000000b8       __imp_GetModuleHandleW     00000001800230b8     kernel32:KERNEL32.dll
 0002:000000c0       __imp_GetProcAddress       00000001800230c0     kernel32:KERNEL32.dll
 0002:000000c8       __imp_LCMapStringW         00000001800230c8     kernel32:KERNEL32.dll
 0002:000000d0       __imp_GetLocaleInfoW       00000001800230d0     kernel32:KERNEL32.dll
 0002:000000d8       __imp_GetStringTypeW       00000001800230d8     kernel32:KERNEL32.dll
 0002:000000e0       __imp_GetCPInfo            00000001800230e0     kernel32:KERNEL32.dll
 0002:000000e8       __imp_SetEvent             00000001800230e8     kernel32:KERNEL32.dll
 0002:000000f0       __imp_ResetEvent           00000001800230f0     kernel32:KERNEL32.dll
 0002:000000f8       __imp_RtlCaptureContext    00000001800230f8     kernel32:KERNEL32.dll
 0002:00000100       __imp_RtlLookupFunctionEntry 0000000180023100     kernel32:KERNEL32.dll
 0002:00000108       __imp_RtlVirtualUnwind     0000000180023108     kernel32:KERNEL32.dll
 0002:00000110       __imp_UnhandledExceptionFilter 0000000180023110     kernel32:KERNEL32.dll
 0002:00000118       __imp_SetUnhandledExceptionFilter 0000000180023118     kernel32:KERNEL32.dll
 0002:00000120       __imp_TerminateProcess     0000000180023120     kernel32:KERNEL32.dll
 0002:00000128       __imp_IsProcessorFeaturePresent 0000000180023128     kernel32:KERNEL32.dll
 0002:00000130       __imp_IsDebuggerPresent    0000000180023130     kernel32:KERNEL32.dll
 0002:00000138       __imp_GetStartupInfoW      0000000180023138     kernel32:KERNEL32.dll
 0002:00000140       __imp_GetCurrentProcessId  0000000180023140     kernel32:KERNEL32.dll
 0002:00000148       __imp_InitializeSListHead  0000000180023148     kernel32:KERNEL32.dll
 0002:00000150       __imp_GetLastError         0000000180023150     kernel32:KERNEL32.dll
 0002:00000158       __imp_GetThreadTimes       0000000180023158     kernel32:KERNEL32.dll
 0002:00000160       __imp_FreeLibrary          0000000180023160     kernel32:KERNEL32.dll
 0002:00000168       __imp_LoadLibraryExW       0000000180023168     kernel32:KERNEL32.dll
 0002:00000170       __imp_VirtualProtect       0000000180023170     kernel32:KERNEL32.dll
 0002:00000178       __imp_InterlockedFlushSList 0000000180023178     kernel32:KERNEL32.dll
 0002:00000180       __imp_RtlPcToFileHeader    0000000180023180     kernel32:KERNEL32.dll
 0002:00000188       __imp_RaiseException       0000000180023188     kernel32:KERNEL32.dll
 0002:00000190       __imp_RtlUnwindEx          0000000180023190     kernel32:KERNEL32.dll
 0002:00000198       __imp_HeapAlloc            0000000180023198     kernel32:KERNEL32.dll
 0002:000001a0       __imp_GetModuleHandleExW   00000001800231a0     kernel32:KERNEL32.dll
 0002:000001a8       __imp_HeapReAlloc          00000001800231a8     kernel32:KERNEL32.dll
 0002:000001b0       __imp_HeapFree             00000001800231b0     kernel32:KERNEL32.dll
 0002:000001b8       __imp_ExitProcess          00000001800231b8     kernel32:KERNEL32.dll
 0002:000001c0       __imp_GetModuleFileNameA   00000001800231c0     kernel32:KERNEL32.dll
 0002:000001c8       __imp_GetACP               00000001800231c8     kernel32:KERNEL32.dll
 0002:000001d0       __imp_IsValidLocale        00000001800231d0     kernel32:KERNEL32.dll
 0002:000001d8       __imp_GetUserDefaultLCID   00000001800231d8     kernel32:KERNEL32.dll
 0002:000001e0       __imp_EnumSystemLocalesW   00000001800231e0     kernel32:KERNEL32.dll
 0002:000001e8       __imp_GetStdHandle         00000001800231e8     kernel32:KERNEL32.dll
 0002:000001f0       __imp_GetFileType          00000001800231f0     kernel32:KERNEL32.dll
 0002:000001f8       __imp_FlushFileBuffers     00000001800231f8     kernel32:KERNEL32.dll
 0002:00000200       __imp_WriteFile            0000000180023200     kernel32:KERNEL32.dll
 0002:00000208       __imp_GetConsoleCP         0000000180023208     kernel32:KERNEL32.dll
 0002:00000210       __imp_GetConsoleMode       0000000180023210     kernel32:KERNEL32.dll
 0002:00000218       __imp_ReadFile             0000000180023218     kernel32:KERNEL32.dll
 0002:00000220       __imp_SetFilePointerEx     0000000180023220     kernel32:KERNEL32.dll
 0002:00000228       __imp_GetProcessHeap       0000000180023228     kernel32:KERNEL32.dll
 0002:00000230       __imp_FindClose            0000000180023230     kernel32:KERNEL32.dll
 0002:00000238       __imp_FindFirstFileExA     0000000180023238     kernel32:KERNEL32.dll
 0002:00000240       __imp_FindNextFileA        0000000180023240     kernel32:KERNEL32.dll
 0002:00000248       __imp_IsValidCodePage      0000000180023248     kernel32:KERNEL32.dll
 0002:00000250       __imp_GetOEMCP             0000000180023250     kernel32:KERNEL32.dll
 0002:00000258       __imp_GetCommandLineA      0000000180023258     kernel32:KERNEL32.dll
 0002:00000260       __imp_GetCommandLineW      0000000180023260     kernel32:KERNEL32.dll
 0002:00000268       __imp_GetEnvironmentStringsW 0000000180023268     kernel32:KERNEL32.dll
 0002:00000270       __imp_FreeEnvironmentStringsW 0000000180023270     kernel32:KERNEL32.dll
 0002:00000278       __imp_SetStdHandle         0000000180023278     kernel32:KERNEL32.dll
 0002:00000280       __imp_WriteConsoleW        0000000180023280     kernel32:KERNEL32.dll
 0002:00000288       __imp_ReadConsoleW         0000000180023288     kernel32:KERNEL32.dll
 0002:00000290       __imp_HeapSize             0000000180023290     kernel32:KERNEL32.dll
 0002:00000298       __imp_CreateFileW          0000000180023298     kernel32:KERNEL32.dll
 0002:000002a0       __imp_GetSystemInfo        00000001800232a0     kernel32:KERNEL32.dll
 0002:000002a8       __imp_VirtualQuery         00000001800232a8     kernel32:KERNEL32.dll
 0002:000002b0       __imp_LoadLibraryExA       00000001800232b0     kernel32:KERNEL32.dll
 0002:000002b8       \177KERNEL32_NULL_THUNK_DATA 00000001800232b8     kernel32:KERNEL32.dll
 0002:000002c0       __guard_check_icall_fptr   00000001800232c0     LIBCMT:guard_support.obj
 0002:000002c8       __guard_dispatch_icall_fptr 00000001800232c8     LIBCMT:guard_support.obj
 0002:000002d0       __xc_a                     00000001800232d0     LIBCMT:initializers.obj
 0002:00000348       _register_rainfall_        0000000180023348     rainfall_node.obj
 0002:00000350       __xc_z                     0000000180023350     LIBCMT:initializers.obj
 0002:00000358       __xi_a                     0000000180023358     LIBCMT:initializers.obj
 0002:00000370       __acrt_stdio_initializer   0000000180023370     libucrt:stdio_initializer.obj
 0002:00000378       __acrt_tran_fma3_initializer 0000000180023378     libucrt:fma3_initializer.obj
 0002:00000380       __acrt_timeset_initializer 0000000180023380     libucrt:timeset_initializer.obj
 0002:00000388       __acrt_multibyte_initializer 0000000180023388     libucrt:multibyte_initializer.obj
 0002:00000390       __xi_z                     0000000180023390     LIBCMT:initializers.obj
 0002:00000398       __xl_a                     0000000180023398     LIBCMT:tlssup.obj
 0002:000003a0       __xl_z                     00000001800233a0     LIBCMT:tlssup.obj
 0002:000003a8       __xp_a                     00000001800233a8     LIBCMT:initializers.obj
 0002:000003b8       __acrt_locale_terminator   00000001800233b8     libucrt:locale_initializer.obj
 0002:000003c0       __dcrt_console_output_terminator 00000001800233c0     libucrt:console_output_initializer.obj
 0002:000003c8       __acrt_stdio_terminator    00000001800233c8     libucrt:stdio_initializer.obj
 0002:000003d0       __xp_z                     00000001800233d0     LIBCMT:initializers.obj
 0002:000003d8       __xt_a                     00000001800233d8     LIBCMT:initializers.obj
 0002:000003e0       __xt_z                     00000001800233e0     LIBCMT:initializers.obj
 0002:000003f0       __sz_node_exe              00000001800233f0     node:node.exe
 0002:00000408       ??_7exception@std@@6B@     0000000180023408     libcpmt:xthrow.obj
 0002:00000418       ??_C@_0BC@EOODALEL@Unknown?5exception?$AA@ 0000000180023418     libcpmt:xthrow.obj
 0002:00000438       ??_7bad_alloc@std@@6B@     0000000180023438     libcpmt:xthrow.obj
 0002:00000448       ??_C@_0P@GHFPNOJB@bad?5allocation?$AA@ 0000000180023448     libcpmt:xthrow.obj
 0002:00000460       ??_7logic_error@std@@6B@   0000000180023460     libcpmt:xthrow.obj
 0002:00000478       ??_7length_error@std@@6B@  0000000180023478     libcpmt:xthrow.obj
 0002:00000490       ??_7out_of_range@std@@6B@  0000000180023490     libcpmt:xthrow.obj
 0002:000004a8       ??_7runtime_error@std@@6B@ 00000001800234a8     libcpmt:xthrow.obj
 0002:00000588       ??_7_Facet_base@std@@6B@   0000000180023588     libcpmt:locale0.obj
 0002:000005a8       ??_7_Locimp@locale@std@@6B@ 00000001800235a8     libcpmt:locale0.obj
 0002:000005c0       ??_C@_01NBENCBCI@?$CK?$AA@ 00000001800235c0     libcpmt:locale0.obj
 0002:000005c4       ??_C@_01GFHCPBMG@C?$AA@    00000001800235c4     libcpmt:locale0.obj
 0002:00000828       ??_7bad_cast@std@@6B@      0000000180023828     libcpmt:cerr.obj
 0002:00000838       ??_C@_08EPJLHIJG@bad?5cast?$AA@ 0000000180023838     libcpmt:cerr.obj
 0002:00000850       ??_7?$ctype@D@std@@6B@     0000000180023850     libcpmt:cerr.obj
 0002:000008b0       ??_7error_category@std@@6B@ 00000001800238b0     libcpmt:cerr.obj
 0002:000008e8       ??_7_System_error@std@@6B@ 00000001800238e8     libcpmt:cerr.obj
 0002:00000900       ??_7_Iostream_error_category@std@@6B@ 0000000180023900     libcpmt:cerr.obj
 0002:00000938       ??_7failure@ios_base@std@@6B@ 0000000180023938     libcpmt:cerr.obj
 0002:00000950       ??_7ios_base@std@@6B@      0000000180023950     libcpmt:cerr.obj
 0002:00000960       ??_7?$basic_streambuf@DU?$char_traits@D@std@@@std@@6B@ 0000000180023960     libcpmt:cerr.obj
 0002:000009e0       ??_7?$basic_filebuf@DU?$char_traits@D@std@@@std@@6B@ 00000001800239e0     libcpmt:cerr.obj
 0002:00000a60       ??_7?$basic_ios@DU?$char_traits@D@std@@@std@@6B@ 0000000180023a60     libcpmt:cerr.obj
 0002:00000a70       ??_7?$basic_ostream@DU?$char_traits@D@std@@@std@@6B@ 0000000180023a70     libcpmt:cerr.obj
 0002:00000a78       ??_8?$basic_ostream@DU?$char_traits@D@std@@@std@@7B@ 0000000180023a78     libcpmt:cerr.obj
 0002:00000a88       ??_7?$codecvt@DDU_Mbstatet@@@std@@6B@ 0000000180023a88     libcpmt:cerr.obj
 0002:00001210       ??_C@_0BN@LKKBCCDB@address?5family?5not?5supported?$AA@ 0000000180024210     libcpmt:syserror.obj
 0002:00001230       ??_C@_0P@LDMLAFHI@address?5in?5use?$AA@ 0000000180024230     libcpmt:syserror.obj
 0002:00001240       ??_C@_0BG@DHPCNBJB@address?5not?5available?$AA@ 0000000180024240     libcpmt:syserror.obj
 0002:00001258       ??_C@_0BC@DFIBIBIL@already?5connected?$AA@ 0000000180024258     libcpmt:syserror.obj
 0002:00001270       ??_C@_0BH@CAKOHOMI@argument?5list?5too?5long?$AA@ 0000000180024270     libcpmt:syserror.obj
 0002:00001288       ??_C@_0BH@CGIMPKIM@argument?5out?5of?5domain?$AA@ 0000000180024288     libcpmt:syserror.obj
 0002:000012a0       ??_C@_0M@KGHGGJGL@bad?5address?$AA@ 00000001800242a0     libcpmt:syserror.obj
 0002:000012b0       ??_C@_0BE@MPJPGCEO@bad?5file?5descriptor?$AA@ 00000001800242b0     libcpmt:syserror.obj
 0002:000012c8       ??_C@_0M@PMMIEFCP@bad?5message?$AA@ 00000001800242c8     libcpmt:syserror.obj
 0002:000012d8       ??_C@_0M@KPHOFDBE@broken?5pipe?$AA@ 00000001800242d8     libcpmt:syserror.obj
 0002:000012e8       ??_C@_0BD@MGNDDEGM@connection?5aborted?$AA@ 00000001800242e8     libcpmt:syserror.obj
 0002:00001300       ??_C@_0BP@KAIHPOGN@connection?5already?5in?5progress?$AA@ 0000000180024300     libcpmt:syserror.obj
 0002:00001320       ??_C@_0BD@PJLIIJEL@connection?5refused?$AA@ 0000000180024320     libcpmt:syserror.obj
 0002:00001338       ??_C@_0BB@IECNJNOI@connection?5reset?$AA@ 0000000180024338     libcpmt:syserror.obj
 0002:00001350       ??_C@_0BC@PPHBOELF@cross?5device?5link?$AA@ 0000000180024350     libcpmt:syserror.obj
 0002:00001368       ??_C@_0BN@KDMIFEIP@destination?5address?5required?$AA@ 0000000180024368     libcpmt:syserror.obj
 0002:00001388       ??_C@_0BI@NGCEHDD@device?5or?5resource?5busy?$AA@ 0000000180024388     libcpmt:syserror.obj
 0002:000013a0       ??_C@_0BE@JIDOCPHM@directory?5not?5empty?$AA@ 00000001800243a0     libcpmt:syserror.obj
 0002:000013b8       ??_C@_0BI@BNCLIGPB@executable?5format?5error?$AA@ 00000001800243b8     libcpmt:syserror.obj
 0002:000013d0       ??_C@_0M@MIDIAGJP@file?5exists?$AA@ 00000001800243d0     libcpmt:syserror.obj
 0002:000013e0       ??_C@_0P@DNAJLBJK@file?5too?5large?$AA@ 00000001800243e0     libcpmt:syserror.obj
 0002:000013f0       ??_C@_0BC@EJHOMAAK@filename?5too?5long?$AA@ 00000001800243f0     libcpmt:syserror.obj
 0002:00001408       ??_C@_0BH@KEFGLDAF@function?5not?5supported?$AA@ 0000000180024408     libcpmt:syserror.obj
 0002:00001420       ??_C@_0BB@DHFDFGDM@host?5unreachable?$AA@ 0000000180024420     libcpmt:syserror.obj
 0002:00001438       ??_C@_0BD@JPHBMONG@identifier?5removed?$AA@ 0000000180024438     libcpmt:syserror.obj
 0002:00001450       ??_C@_0BG@CDNPAGJK@illegal?5byte?5sequence?$AA@ 0000000180024450     libcpmt:syserror.obj
 0002:00001468       ??_C@_0CD@BNPLBMNA@inappropriate?5io?5control?5operati@ 0000000180024468     libcpmt:syserror.obj
 0002:00001490       ??_C@_0M@EGEKIIMP@interrupted?$AA@ 0000000180024490     libcpmt:syserror.obj
 0002:000014a0       ??_C@_0BB@FCMFBGOM@invalid?5argument?$AA@ 00000001800244a0     libcpmt:syserror.obj
 0002:000014b8       ??_C@_0N@OHAFKDEK@invalid?5seek?$AA@ 00000001800244b8     libcpmt:syserror.obj
 0002:000014c8       ??_C@_08GLNPIFBN@io?5error?$AA@ 00000001800244c8     libcpmt:syserror.obj
 0002:000014d8       ??_C@_0P@FLLDBIDK@is?5a?5directory?$AA@ 00000001800244d8     libcpmt:syserror.obj
 0002:000014e8       ??_C@_0N@IFLPBIOP@message?5size?$AA@ 00000001800244e8     libcpmt:syserror.obj
 0002:000014f8       ??_C@_0N@KIIEAAIO@network?5down?$AA@ 00000001800244f8     libcpmt:syserror.obj
 0002:00001508       ??_C@_0O@FNPDBHEE@network?5reset?$AA@ 0000000180024508     libcpmt:syserror.obj
 0002:00001518       ??_C@_0BE@IFNCKGE@network?5unreachable?$AA@ 0000000180024518     libcpmt:syserror.obj
 0002:00001530       ??_C@_0BA@PFFCAOFK@no?5buffer?5space?$AA@ 0000000180024530     libcpmt:syserror.obj
 0002:00001540       ??_C@_0BB@IEPBLJHK@no?5child?5process?$AA@ 0000000180024540     libcpmt:syserror.obj
 0002:00001558       ??_C@_07PLECNNKG@no?5link?$AA@ 0000000180024558     libcpmt:syserror.obj
 0002:00001560       ??_C@_0BC@NJECKMKE@no?5lock?5available?$AA@ 0000000180024560     libcpmt:syserror.obj
 0002:00001578       ??_C@_0BF@PBGGPKKE@no?5message?5available?$AA@ 0000000180024578     libcpmt:syserror.obj
 0002:00001590       ??_C@_0L@EDOLMPAK@no?5message?$AA@ 0000000180024590     libcpmt:syserror.obj
 0002:000015a0       ??_C@_0BD@EAMBFIDF@no?5protocol?5option?$AA@ 00000001800245a0     libcpmt:syserror.obj
 0002:000015b8       ??_C@_0BD@IJDJKDEA@no?5space?5on?5device?$AA@ 00000001800245b8     libcpmt:syserror.obj
 0002:000015d0       ??_C@_0BE@MKFDAFMP@no?5stream?5resources?$AA@ 00000001800245d0     libcpmt:syserror.obj
 0002:000015e8       ??_C@_0BK@IMCPHCBI@no?5such?5device?5or?5address?$AA@ 00000001800245e8     libcpmt:syserror.obj
 0002:00001608       ??_C@_0P@FDINDDOK@no?5such?5device?$AA@ 0000000180024608     libcpmt:syserror.obj
 0002:00001618       ??_C@_0BK@NDOCBPGE@no?5such?5file?5or?5directory?$AA@ 0000000180024618     libcpmt:syserror.obj
 0002:00001638       ??_C@_0BA@ENLPPKBN@no?5such?5process?$AA@ 0000000180024638     libcpmt:syserror.obj
 0002:00001648       ??_C@_0BA@DOCPFFJG@not?5a?5directory?$AA@ 0000000180024648     libcpmt:syserror.obj
 0002:00001658       ??_C@_0N@POEIPGGF@not?5a?5socket?$AA@ 0000000180024658     libcpmt:syserror.obj
 0002:00001668       ??_C@_0N@LGAPMMPI@not?5a?5stream?$AA@ 0000000180024668     libcpmt:syserror.obj
 0002:00001678       ??_C@_0O@GLMIBBEG@not?5connected?$AA@ 0000000180024678     libcpmt:syserror.obj
 0002:00001688       ??_C@_0BC@ENOOLCNF@not?5enough?5memory?$AA@ 0000000180024688     libcpmt:syserror.obj
 0002:000016a0       ??_C@_0O@NHEDABJP@not?5supported?$AA@ 00000001800246a0     libcpmt:syserror.obj
 0002:000016b0       ??_C@_0BD@MOLBPMEA@operation?5canceled?$AA@ 00000001800246b0     libcpmt:syserror.obj
 0002:000016c8       ??_C@_0BG@KDKHOPCO@operation?5in?5progress?$AA@ 00000001800246c8     libcpmt:syserror.obj
 0002:000016e0       ??_C@_0BI@OHIEJAAB@operation?5not?5permitted?$AA@ 00000001800246e0     libcpmt:syserror.obj
 0002:000016f8       ??_C@_0BI@LNEGIFLN@operation?5not?5supported?$AA@ 00000001800246f8     libcpmt:syserror.obj
 0002:00001710       ??_C@_0BG@OEMDKMEE@operation?5would?5block?$AA@ 0000000180024710     libcpmt:syserror.obj
 0002:00001728       ??_C@_0L@BLPOFLNJ@owner?5dead?$AA@ 0000000180024728     libcpmt:syserror.obj
 0002:00001738       ??_C@_0BC@CIJDGCDI@permission?5denied?$AA@ 0000000180024738     libcpmt:syserror.obj
 0002:00001750       ??_C@_0P@FNPOCJBE@protocol?5error?$AA@ 0000000180024750     libcpmt:syserror.obj
 0002:00001760       ??_C@_0BH@JPPPLHJB@protocol?5not?5supported?$AA@ 0000000180024760     libcpmt:syserror.obj
 0002:00001778       ??_C@_0BG@EICBIHDP@read?5only?5file?5system?$AA@ 0000000180024778     libcpmt:syserror.obj
 0002:00001790       ??_C@_0BO@BJBOMOEJ@resource?5deadlock?5would?5occur?$AA@ 0000000180024790     libcpmt:syserror.obj
 0002:000017b0       ??_C@_0BP@LKNGHENJ@resource?5unavailable?5try?5again?$AA@ 00000001800247b0     libcpmt:syserror.obj
 0002:000017d0       ??_C@_0BE@GOIPJJHG@result?5out?5of?5range?$AA@ 00000001800247d0     libcpmt:syserror.obj
 0002:000017e8       ??_C@_0BG@MPLKFPAE@state?5not?5recoverable?$AA@ 00000001800247e8     libcpmt:syserror.obj
 0002:00001800       ??_C@_0P@DIIFGFCG@stream?5timeout?$AA@ 0000000180024800     libcpmt:syserror.obj
 0002:00001810       ??_C@_0P@IPFDMIFL@text?5file?5busy?$AA@ 0000000180024810     libcpmt:syserror.obj
 0002:00001820       ??_C@_09KJPPMAOI@timed?5out?$AA@ 0000000180024820     libcpmt:syserror.obj
 0002:00001830       ??_C@_0BO@HACHBEKI@too?5many?5files?5open?5in?5system?$AA@ 0000000180024830     libcpmt:syserror.obj
 0002:00001850       ??_C@_0BE@GHAFMPAH@too?5many?5files?5open?$AA@ 0000000180024850     libcpmt:syserror.obj
 0002:00001868       ??_C@_0P@HCOMKFCC@too?5many?5links?$AA@ 0000000180024868     libcpmt:syserror.obj
 0002:00001878       ??_C@_0BO@EFGOJEF@too?5many?5symbolic?5link?5levels?$AA@ 0000000180024878     libcpmt:syserror.obj
 0002:00001898       ??_C@_0BA@KGKGOOJA@value?5too?5large?$AA@ 0000000180024898     libcpmt:syserror.obj
 0002:000018a8       ??_C@_0BE@MIEJDDNH@wrong?5protocol?5type?$AA@ 00000001800248a8     libcpmt:syserror.obj
 0002:000018c0       ??_C@_0O@BFJCFAAK@unknown?5error?$AA@ 00000001800248c0     libcpmt:syserror.obj
 0002:000018f8       ?_BADOFF@std@@3_JB         00000001800248f8     libcpmt:ios.obj
 0002:00001900       ??_C@_1BK@MGMFAEKH@?$AAk?$AAe?$AAr?$AAn?$AAe?$AAl?$AA3?$AA2?$AA?4?$AAd?$AAl?$AAl?$AA?$AA@ 0000000180024900     libcpmt:winapisupp.obj
 0002:00001920       ??_C@_08KNHFBNJ@FlsAlloc?$AA@ 0000000180024920     libcpmt:winapisupp.obj
 0002:00001930       ??_C@_07PEJMOBNF@FlsFree?$AA@ 0000000180024930     libcpmt:winapisupp.obj
 0002:00001938       ??_C@_0M@GDNOONDI@FlsGetValue?$AA@ 0000000180024938     libcpmt:winapisupp.obj
 0002:00001948       ??_C@_0M@JCPCPOEF@FlsSetValue?$AA@ 0000000180024948     libcpmt:winapisupp.obj
 0002:00001958       ??_C@_0BM@HCFOFFN@InitializeCriticalSectionEx?$AA@ 0000000180024958     libcpmt:winapisupp.obj
 0002:00001978       ??_C@_0BE@GPLMMCMH@InitOnceExecuteOnce?$AA@ 0000000180024978     libcpmt:winapisupp.obj
 0002:00001990       ??_C@_0P@DLHPPCNH@CreateEventExW?$AA@ 0000000180024990     libcpmt:winapisupp.obj
 0002:000019a0       ??_C@_0BB@MEFPJLHN@CreateSemaphoreW?$AA@ 00000001800249a0     libcpmt:winapisupp.obj
 0002:000019b8       ??_C@_0BD@KIEEOEEH@CreateSemaphoreExW?$AA@ 00000001800249b8     libcpmt:winapisupp.obj
 0002:000019d0       ??_C@_0BG@OGFAJCKC@CreateThreadpoolTimer?$AA@ 00000001800249d0     libcpmt:winapisupp.obj
 0002:000019e8       ??_C@_0BD@LPLEMMDI@SetThreadpoolTimer?$AA@ 00000001800249e8     libcpmt:winapisupp.obj
 0002:00001a00       ??_C@_0CA@FMNJENH@WaitForThreadpoolTimerCallbacks?$AA@ 0000000180024a00     libcpmt:winapisupp.obj
 0002:00001a20       ??_C@_0BF@DCFCCNOC@CloseThreadpoolTimer?$AA@ 0000000180024a20     libcpmt:winapisupp.obj
 0002:00001a38       ??_C@_0BF@FLABGKKM@CreateThreadpoolWait?$AA@ 0000000180024a38     libcpmt:winapisupp.obj
 0002:00001a50       ??_C@_0BC@MGCOHNA@SetThreadpoolWait?$AA@ 0000000180024a50     libcpmt:winapisupp.obj
 0002:00001a68       ??_C@_0BE@OCIOMIMP@CloseThreadpoolWait?$AA@ 0000000180024a68     libcpmt:winapisupp.obj
 0002:00001a80       ??_C@_0BJ@LKGHFHBO@FlushProcessWriteBuffers?$AA@ 0000000180024a80     libcpmt:winapisupp.obj
 0002:00001aa0       ??_C@_0BP@KALKKPMO@FreeLibraryWhenCallbackReturns?$AA@ 0000000180024aa0     libcpmt:winapisupp.obj
 0002:00001ac0       ??_C@_0BK@DFNBACLA@GetCurrentProcessorNumber?$AA@ 0000000180024ac0     libcpmt:winapisupp.obj
 0002:00001ae0       ??_C@_0BE@FKKLLFLM@CreateSymbolicLinkW?$AA@ 0000000180024ae0     libcpmt:winapisupp.obj
 0002:00001af8       ??_C@_0BE@JOGNEJCI@GetCurrentPackageId?$AA@ 0000000180024af8     libcpmt:winapisupp.obj
 0002:00001b10       ??_C@_0P@CDHHOHKP@GetTickCount64?$AA@ 0000000180024b10     libcpmt:winapisupp.obj
 0002:00001b20       ??_C@_0BN@NEEHBBPO@GetFileInformationByHandleEx?$AA@ 0000000180024b20     libcpmt:winapisupp.obj
 0002:00001b40       ??_C@_0BL@KBBHGKCM@SetFileInformationByHandle?$AA@ 0000000180024b40     libcpmt:winapisupp.obj
 0002:00001b60       ??_C@_0BP@FPNJPEJC@GetSystemTimePreciseAsFileTime?$AA@ 0000000180024b60     libcpmt:winapisupp.obj
 0002:00001b80       ??_C@_0BM@HLJJNPAH@InitializeConditionVariable?$AA@ 0000000180024b80     libcpmt:winapisupp.obj
 0002:00001ba0       ??_C@_0BG@BFNILBLN@WakeConditionVariable?$AA@ 0000000180024ba0     libcpmt:winapisupp.obj
 0002:00001bb8       ??_C@_0BJ@PGPPEPCC@WakeAllConditionVariable?$AA@ 0000000180024bb8     libcpmt:winapisupp.obj
 0002:00001bd8       ??_C@_0BJ@JEBJOJFJ@SleepConditionVariableCS?$AA@ 0000000180024bd8     libcpmt:winapisupp.obj
 0002:00001bf8       ??_C@_0BC@MMLHEBPB@InitializeSRWLock?$AA@ 0000000180024bf8     libcpmt:winapisupp.obj
 0002:00001c10       ??_C@_0BI@OMNLIJDB@AcquireSRWLockExclusive?$AA@ 0000000180024c10     libcpmt:winapisupp.obj
 0002:00001c28       ??_C@_0BL@OGHFEMNA@TryAcquireSRWLockExclusive?$AA@ 0000000180024c28     libcpmt:winapisupp.obj
 0002:00001c48       ??_C@_0BI@HMIEPCNJ@ReleaseSRWLockExclusive?$AA@ 0000000180024c48     libcpmt:winapisupp.obj
 0002:00001c60       ??_C@_0BK@LGACAGIC@SleepConditionVariableSRW?$AA@ 0000000180024c60     libcpmt:winapisupp.obj
 0002:00001c80       ??_C@_0BF@GGPHFPJA@CreateThreadpoolWork?$AA@ 0000000180024c80     libcpmt:winapisupp.obj
 0002:00001c98       ??_C@_0BF@NHDAIMMO@SubmitThreadpoolWork?$AA@ 0000000180024c98     libcpmt:winapisupp.obj
 0002:00001cb0       ??_C@_0BE@NPHIPNPD@CloseThreadpoolWork?$AA@ 0000000180024cb0     libcpmt:winapisupp.obj
 0002:00001cc8       ??_C@_0BA@IHGNDAEB@CompareStringEx?$AA@ 0000000180024cc8     libcpmt:winapisupp.obj
 0002:00001cd8       ??_C@_0BA@ONOKGCMP@GetLocaleInfoEx?$AA@ 0000000180024cd8     libcpmt:winapisupp.obj
 0002:00001ce8       ??_C@_0O@KKBNKAPF@LCMapStringEx?$AA@ 0000000180024ce8     libcpmt:winapisupp.obj
 0002:00001cf8       ??_C@_11LOCGONAA@?$AA?$AA@ 0000000180024cf8     libcpmt:wlocale.obj
 0002:00001cfc       ??_C@_01JOAMLHOP@?9?$AA@   0000000180024cfc     libcpmt:wlocale.obj
 0002:00001da0       ??_C@_1M@JKFFICHJ@?$AAe?$AAs?$AA?9?$AAv?$AAe?$AA?$AA@ 0000000180024da0     libcpmt:winapinls.obj
 0002:00001db0       ??_C@_1M@PNMLOJDF@?$AAe?$AAt?$AA?9?$AAe?$AAe?$AA?$AA@ 0000000180024db0     libcpmt:winapinls.obj
 0002:00001dc0       ??_C@_1M@GHHLIKEI@?$AAe?$AAu?$AA?9?$AAe?$AAs?$AA?$AA@ 0000000180024dc0     libcpmt:winapinls.obj
 0002:00001dd0       ??_C@_1M@PBNONODE@?$AAf?$AAa?$AA?9?$AAi?$AAr?$AA?$AA@ 0000000180024dd0     libcpmt:winapinls.obj
 0002:00001de0       ??_C@_1M@JEEHPMIL@?$AAf?$AAi?$AA?9?$AAf?$AAi?$AA?$AA@ 0000000180024de0     libcpmt:winapinls.obj
 0002:00001df0       ??_C@_1M@LMDCNDBA@?$AAf?$AAo?$AA?9?$AAf?$AAo?$AA?$AA@ 0000000180024df0     libcpmt:winapinls.obj
 0002:00001e00       ??_C@_1M@JKEOHLDK@?$AAf?$AAr?$AA?9?$AAb?$AAe?$AA?$AA@ 0000000180024e00     libcpmt:winapinls.obj
 0002:00001e10       ??_C@_1M@NOHADPMI@?$AAf?$AAr?$AA?9?$AAc?$AAa?$AA?$AA@ 0000000180024e10     libcpmt:winapinls.obj
 0002:00001e20       ??_C@_1M@KDHIHAEC@?$AAf?$AAr?$AA?9?$AAc?$AAh?$AA?$AA@ 0000000180024e20     libcpmt:winapinls.obj
 0002:00001e30       ??_C@_1M@MMBBFGAK@?$AAf?$AAr?$AA?9?$AAf?$AAr?$AA?$AA@ 0000000180024e30     libcpmt:winapinls.obj
 0002:00001e40       ??_C@_1M@PAFNENNF@?$AAf?$AAr?$AA?9?$AAl?$AAu?$AA?$AA@ 0000000180024e40     libcpmt:winapinls.obj
 0002:00001e50       ??_C@_1M@EOHDJGDD@?$AAf?$AAr?$AA?9?$AAm?$AAc?$AA?$AA@ 0000000180024e50     libcpmt:winapinls.obj
 0002:00001e60       ??_C@_1M@FAPLLOPF@?$AAg?$AAl?$AA?9?$AAe?$AAs?$AA?$AA@ 0000000180024e60     libcpmt:winapinls.obj
 0002:00001e70       ??_C@_1M@FOPBFLOO@?$AAg?$AAu?$AA?9?$AAi?$AAn?$AA?$AA@ 0000000180024e70     libcpmt:winapinls.obj
 0002:00001e80       ??_C@_1M@KBMCINPM@?$AAh?$AAe?$AA?9?$AAi?$AAl?$AA?$AA@ 0000000180024e80     libcpmt:winapinls.obj
 0002:00001e90       ??_C@_1M@BBPHKFPJ@?$AAh?$AAi?$AA?9?$AAi?$AAn?$AA?$AA@ 0000000180024e90     libcpmt:winapinls.obj
 0002:00001ea0       ??_C@_1M@PMBNDPHD@?$AAh?$AAr?$AA?9?$AAb?$AAa?$AA?$AA@ 0000000180024ea0     libcpmt:winapinls.obj
 0002:00001eb0       ??_C@_1M@BPCKOEGE@?$AAh?$AAr?$AA?9?$AAh?$AAr?$AA?$AA@ 0000000180024eb0     libcpmt:winapinls.obj
 0002:00001ec0       ??_C@_1M@GACBMHKE@?$AAh?$AAu?$AA?9?$AAh?$AAu?$AA?$AA@ 0000000180024ec0     libcpmt:winapinls.obj
 0002:00001ed0       ??_C@_1M@MILPAJJC@?$AAh?$AAy?$AA?9?$AAa?$AAm?$AA?$AA@ 0000000180024ed0     libcpmt:winapinls.obj
 0002:00001ee0       ??_C@_1M@BABBICEC@?$AAi?$AAd?$AA?9?$AAi?$AAd?$AA?$AA@ 0000000180024ee0     libcpmt:winapinls.obj
 0002:00001ef0       ??_C@_1M@BIKNHHPF@?$AAi?$AAs?$AA?9?$AAi?$AAs?$AA?$AA@ 0000000180024ef0     libcpmt:winapinls.obj
 0002:00001f00       ??_C@_1M@NMPCJPHE@?$AAi?$AAt?$AA?9?$AAc?$AAh?$AA?$AA@ 0000000180024f00     libcpmt:winapinls.obj
 0002:00001f10       ??_C@_1M@GHKGFEDF@?$AAi?$AAt?$AA?9?$AAi?$AAt?$AA?$AA@ 0000000180024f10     libcpmt:winapinls.obj
 0002:00001f20       ??_C@_1M@NIEJCJJA@?$AAj?$AAa?$AA?9?$AAj?$AAp?$AA?$AA@ 0000000180024f20     libcpmt:winapinls.obj
 0002:00001f30       ??_C@_1M@JILFNBIM@?$AAk?$AAa?$AA?9?$AAg?$AAe?$AA?$AA@ 0000000180024f30     libcpmt:winapinls.obj
 0002:00001f40       ??_C@_1M@PACPMGPH@?$AAk?$AAk?$AA?9?$AAk?$AAz?$AA?$AA@ 0000000180024f40     libcpmt:winapinls.obj
 0002:00001f50       ??_C@_1M@IELFGMHA@?$AAk?$AAn?$AA?9?$AAi?$AAn?$AA?$AA@ 0000000180024f50     libcpmt:winapinls.obj
 0002:00001f60       ??_C@_1M@DMHAEOGC@?$AAk?$AAo?$AA?9?$AAk?$AAr?$AA?$AA@ 0000000180024f60     libcpmt:winapinls.obj
 0002:00001f70       ??_C@_1O@IBBJHCH@?$AAk?$AAo?$AAk?$AA?9?$AAi?$AAn?$AA?$AA@ 0000000180024f70     libcpmt:winapinls.obj
 0002:00001f80       ??_C@_1M@HBAHBIGA@?$AAk?$AAy?$AA?9?$AAk?$AAg?$AA?$AA@ 0000000180024f80     libcpmt:winapinls.obj
 0002:00001f90       ??_C@_1M@KPMILCJG@?$AAl?$AAt?$AA?9?$AAl?$AAt?$AA?$AA@ 0000000180024f90     libcpmt:winapinls.obj
 0002:00001fa0       ??_C@_1M@BDEKKCA@?$AAl?$AAv?$AA?9?$AAl?$AAv?$AA?$AA@ 0000000180024fa0     libcpmt:winapinls.obj
 0002:00001fb0       ??_C@_1M@ELCKCCJJ@?$AAm?$AAi?$AA?9?$AAn?$AAz?$AA?$AA@ 0000000180024fb0     libcpmt:winapinls.obj
 0002:00001fc0       ??_C@_1M@CBOOLAPA@?$AAm?$AAk?$AA?9?$AAm?$AAk?$AA?$AA@ 0000000180024fc0     libcpmt:winapinls.obj
 0002:00001fd0       ??_C@_1M@GPHNBJKN@?$AAm?$AAl?$AA?9?$AAi?$AAn?$AA?$AA@ 0000000180024fd0     libcpmt:winapinls.obj
 0002:00001fe0       ??_C@_1M@PABJILIG@?$AAm?$AAn?$AA?9?$AAm?$AAn?$AA?$AA@ 0000000180024fe0     libcpmt:winapinls.obj
 0002:00001ff0       ??_C@_1M@FGBKKIPG@?$AAm?$AAr?$AA?9?$AAi?$AAn?$AA?$AA@ 0000000180024ff0     libcpmt:winapinls.obj
 0002:00002000       ??_C@_1M@NDBPDDAL@?$AAm?$AAs?$AA?9?$AAb?$AAn?$AA?$AA@ 0000000180025000     libcpmt:winapinls.obj
 0002:00002010       ??_C@_1M@OPIHOOPI@?$AAm?$AAs?$AA?9?$AAm?$AAy?$AA?$AA@ 0000000180025010     libcpmt:winapinls.obj
 0002:00002020       ??_C@_1M@PPDBCNFM@?$AAm?$AAt?$AA?9?$AAm?$AAt?$AA?$AA@ 0000000180025020     libcpmt:winapinls.obj
 0002:00002030       ??_C@_1M@KDJDKMDD@?$AAn?$AAb?$AA?9?$AAn?$AAo?$AA?$AA@ 0000000180025030     libcpmt:winapinls.obj
 0002:00002040       ??_C@_1M@KFCFLMJP@?$AAn?$AAl?$AA?9?$AAb?$AAe?$AA?$AA@ 0000000180025040     libcpmt:winapinls.obj
 0002:00002050       ??_C@_1M@KPOPDDGO@?$AAn?$AAl?$AA?9?$AAn?$AAl?$AA?$AA@ 0000000180025050     libcpmt:winapinls.obj
 0002:00002060       ??_C@_1M@LJKPEMLN@?$AAn?$AAn?$AA?9?$AAn?$AAo?$AA?$AA@ 0000000180025060     libcpmt:winapinls.obj
 0002:00002070       ??_C@_1M@BDGHHBFL@?$AAn?$AAs?$AA?9?$AAz?$AAa?$AA?$AA@ 0000000180025070     libcpmt:winapinls.obj
 0002:00002080       ??_C@_1M@IDEHOAP@?$AAp?$AAa?$AA?9?$AAi?$AAn?$AA?$AA@ 0000000180025080     libcpmt:winapinls.obj
 0002:00002090       ??_C@_1M@HDBKGOGH@?$AAp?$AAl?$AA?9?$AAp?$AAl?$AA?$AA@ 0000000180025090     libcpmt:winapinls.obj
 0002:000020a0       ??_C@_1M@LJLLCMEH@?$AAp?$AAt?$AA?9?$AAb?$AAr?$AA?$AA@ 00000001800250a0     libcpmt:winapinls.obj
 0002:000020b0       ??_C@_1M@NCMONAAL@?$AAp?$AAt?$AA?9?$AAp?$AAt?$AA?$AA@ 00000001800250b0     libcpmt:winapinls.obj
 0002:000020c0       ??_C@_1O@EAKMAJDN@?$AAq?$AAu?$AAz?$AA?9?$AAb?$AAo?$AA?$AA@ 00000001800250c0     libcpmt:winapinls.obj
 0002:000020d0       ??_C@_1O@BHHPIGDN@?$AAq?$AAu?$AAz?$AA?9?$AAe?$AAc?$AA?$AA@ 00000001800250d0     libcpmt:winapinls.obj
 0002:000020e0       ??_C@_1O@GBAPEKMJ@?$AAq?$AAu?$AAz?$AA?9?$AAp?$AAe?$AA?$AA@ 00000001800250e0     libcpmt:winapinls.obj
 0002:000020f0       ??_C@_1M@CLGLEFBO@?$AAr?$AAo?$AA?9?$AAr?$AAo?$AA?$AA@ 00000001800250f0     libcpmt:winapinls.obj
 0002:00002100       ??_C@_1M@CEEDODME@?$AAr?$AAu?$AA?9?$AAr?$AAu?$AA?$AA@ 0000000180025100     libcpmt:winapinls.obj
 0002:00002110       ??_C@_1M@HPKKKMPP@?$AAs?$AAa?$AA?9?$AAi?$AAn?$AA?$AA@ 0000000180025110     libcpmt:winapinls.obj
 0002:00002120       ??_C@_1M@BKMAIGOJ@?$AAs?$AAe?$AA?9?$AAf?$AAi?$AA?$AA@ 0000000180025120     libcpmt:winapinls.obj
 0002:00002130       ??_C@_1M@NDPIFLFI@?$AAs?$AAe?$AA?9?$AAn?$AAo?$AA?$AA@ 0000000180025130     libcpmt:winapinls.obj
 0002:00002140       ??_C@_1M@DANKKHJ@?$AAs?$AAe?$AA?9?$AAs?$AAe?$AA?$AA@ 0000000180025140     libcpmt:winapinls.obj
 0002:00002150       ??_C@_1M@PNBLONPJ@?$AAs?$AAk?$AA?9?$AAs?$AAk?$AA?$AA@ 0000000180025150     libcpmt:winapinls.obj
 0002:00002160       ??_C@_1M@LFMODOAL@?$AAs?$AAl?$AA?9?$AAs?$AAi?$AA?$AA@ 0000000180025160     libcpmt:winapinls.obj
 0002:00002170       ??_C@_1O@DFKOMPG@?$AAs?$AAm?$AAa?$AA?9?$AAn?$AAo?$AA?$AA@ 0000000180025170     libcpmt:winapinls.obj
 0002:00002180       ??_C@_1O@NDKPBNNH@?$AAs?$AAm?$AAa?$AA?9?$AAs?$AAe?$AA?$AA@ 0000000180025180     libcpmt:winapinls.obj
 0002:00002190       ??_C@_1O@PLLKBHAB@?$AAs?$AAm?$AAj?$AA?9?$AAn?$AAo?$AA?$AA@ 0000000180025190     libcpmt:winapinls.obj
 0002:000021a0       ??_C@_1O@CLEPOGCA@?$AAs?$AAm?$AAj?$AA?9?$AAs?$AAe?$AA?$AA@ 00000001800251a0     libcpmt:winapinls.obj
 0002:000021b0       ??_C@_1O@DLGJGKMK@?$AAs?$AAm?$AAn?$AA?9?$AAf?$AAi?$AA?$AA@ 00000001800251b0     libcpmt:winapinls.obj
 0002:000021c0       ??_C@_1O@OJDJGAJC@?$AAs?$AAm?$AAs?$AA?9?$AAf?$AAi?$AA?$AA@ 00000001800251c0     libcpmt:winapinls.obj
 0002:000021d0       ??_C@_1M@BOFOGHPB@?$AAs?$AAq?$AA?9?$AAa?$AAl?$AA?$AA@ 00000001800251d0     libcpmt:winapinls.obj
 0002:000021e0       ??_C@_1BG@LJBBIPGB@?$AAs?$AAr?$AA?9?$AAb?$AAa?$AA?9?$AAc?$AAy?$AAr?$AAl?$AA?$AA@ 00000001800251e0     libcpmt:winapinls.obj
 0002:000021f8       ??_C@_1BG@JLBENFOE@?$AAs?$AAr?$AA?9?$AAb?$AAa?$AA?9?$AAl?$AAa?$AAt?$AAn?$AA?$AA@ 00000001800251f8     libcpmt:winapinls.obj
 0002:00002210       ??_C@_1BG@KODPNHE@?$AAs?$AAr?$AA?9?$AAs?$AAp?$AA?9?$AAc?$AAy?$AAr?$AAl?$AA?$AA@ 0000000180025210     libcpmt:winapinls.obj
 0002:00002228       ??_C@_1BG@CIOGKHPB@?$AAs?$AAr?$AA?9?$AAs?$AAp?$AA?9?$AAl?$AAa?$AAt?$AAn?$AA?$AA@ 0000000180025228     libcpmt:winapinls.obj
 0002:00002240       ??_C@_1M@NGFJLMAC@?$AAs?$AAv?$AA?9?$AAf?$AAi?$AA?$AA@ 0000000180025240     libcpmt:winapinls.obj
 0002:00002250       ??_C@_1M@MPJEJAJC@?$AAs?$AAv?$AA?9?$AAs?$AAe?$AA?$AA@ 0000000180025250     libcpmt:winapinls.obj
 0002:00002260       ??_C@_1M@MPNDHLFK@?$AAs?$AAw?$AA?9?$AAk?$AAe?$AA?$AA@ 0000000180025260     libcpmt:winapinls.obj
 0002:00002270       ??_C@_1O@KOHBJJI@?$AAs?$AAy?$AAr?$AA?9?$AAs?$AAy?$AA?$AA@ 0000000180025270     libcpmt:winapinls.obj
 0002:00002280       ??_C@_1M@LDCEFHA@?$AAt?$AAa?$AA?9?$AAi?$AAn?$AA?$AA@ 0000000180025280     libcpmt:winapinls.obj
 0002:00002290       ??_C@_1M@CNJOFAK@?$AAt?$AAe?$AA?9?$AAi?$AAn?$AA?$AA@ 0000000180025290     libcpmt:winapinls.obj
 0002:000022a0       ??_C@_1M@GNAECACD@?$AAt?$AAh?$AA?9?$AAt?$AAh?$AA?$AA@ 00000001800252a0     libcpmt:winapinls.obj
 0002:000022b0       ??_C@_1M@CHBIHOJO@?$AAt?$AAn?$AA?9?$AAz?$AAa?$AA?$AA@ 00000001800252b0     libcpmt:winapinls.obj
 0002:000022c0       ??_C@_1M@GCCMIGPJ@?$AAt?$AAr?$AA?9?$AAt?$AAr?$AA?$AA@ 00000001800252c0     libcpmt:winapinls.obj
 0002:000022d0       ??_C@_1M@CELMCNBK@?$AAt?$AAt?$AA?9?$AAr?$AAu?$AA?$AA@ 00000001800252d0     libcpmt:winapinls.obj
 0002:000022e0       ??_C@_1M@KLMCELGA@?$AAu?$AAk?$AA?9?$AAu?$AAa?$AA?$AA@ 00000001800252e0     libcpmt:winapinls.obj
 0002:000022f0       ??_C@_1M@EPAJJAJF@?$AAu?$AAr?$AA?9?$AAp?$AAk?$AA?$AA@ 00000001800252f0     libcpmt:winapinls.obj
 0002:00002300       ??_C@_1BG@GEGPMCDJ@?$AAu?$AAz?$AA?9?$AAu?$AAz?$AA?9?$AAc?$AAy?$AAr?$AAl?$AA?$AA@ 0000000180025300     libcpmt:winapinls.obj
 0002:00002318       ??_C@_1BG@EGGKJILM@?$AAu?$AAz?$AA?9?$AAu?$AAz?$AA?9?$AAl?$AAa?$AAt?$AAn?$AA?$AA@ 0000000180025318     libcpmt:winapinls.obj
 0002:00002330       ??_C@_1M@GFOCLFF@?$AAv?$AAi?$AA?9?$AAv?$AAn?$AA?$AA@ 0000000180025330     libcpmt:winapinls.obj
 0002:00002340       ??_C@_1M@CPAMEDFI@?$AAx?$AAh?$AA?9?$AAz?$AAa?$AA?$AA@ 0000000180025340     libcpmt:winapinls.obj
 0002:00002350       ??_C@_1O@EBKIFIGN@?$AAz?$AAh?$AA?9?$AAc?$AAh?$AAs?$AA?$AA@ 0000000180025350     libcpmt:winapinls.obj
 0002:00002360       ??_C@_1O@NMHPGANE@?$AAz?$AAh?$AA?9?$AAc?$AAh?$AAt?$AA?$AA@ 0000000180025360     libcpmt:winapinls.obj
 0002:00002370       ??_C@_1M@LPINJOMC@?$AAz?$AAh?$AA?9?$AAc?$AAn?$AA?$AA@ 0000000180025370     libcpmt:winapinls.obj
 0002:00002380       ??_C@_1M@OCJEJODD@?$AAz?$AAh?$AA?9?$AAh?$AAk?$AA?$AA@ 0000000180025380     libcpmt:winapinls.obj
 0002:00002390       ??_C@_1M@DNDLJINH@?$AAz?$AAh?$AA?9?$AAm?$AAo?$AA?$AA@ 0000000180025390     libcpmt:winapinls.obj
 0002:000023a0       ??_C@_1M@MBFDNDND@?$AAz?$AAh?$AA?9?$AAs?$AAg?$AA?$AA@ 00000001800253a0     libcpmt:winapinls.obj
 0002:000023b0       ??_C@_1M@IMEPLEPE@?$AAz?$AAh?$AA?9?$AAt?$AAw?$AA?$AA@ 00000001800253b0     libcpmt:winapinls.obj
 0002:000023c0       ??_C@_1M@BBGHNHJP@?$AAz?$AAu?$AA?9?$AAz?$AAa?$AA?$AA@ 00000001800253c0     libcpmt:winapinls.obj
 0002:00004050       ??_C@_15EMKDOKLE@?$AAa?$AAr?$AA?$AA@ 0000000180027050     libcpmt:winapinls.obj
 0002:00004058       ??_C@_15KNPADPLH@?$AAb?$AAg?$AA?$AA@ 0000000180027058     libcpmt:winapinls.obj
 0002:00004060       ??_C@_15EDMHLDMO@?$AAc?$AAa?$AA?$AA@ 0000000180027060     libcpmt:winapinls.obj
 0002:00004068       ??_C@_1O@BPEAJADD@?$AAz?$AAh?$AA?9?$AAC?$AAH?$AAS?$AA?$AA@ 0000000180027068     libcpmt:winapinls.obj
 0002:00004078       ??_C@_15LJNHCMNK@?$AAc?$AAs?$AA?$AA@ 0000000180027078     libcpmt:winapinls.obj
 0002:00004080       ??_C@_15FOMCIDHG@?$AAd?$AAa?$AA?$AA@ 0000000180027080     libcpmt:winapinls.obj
 0002:00004088       ??_C@_15NBKABECB@?$AAd?$AAe?$AA?$AA@ 0000000180027088     libcpmt:winapinls.obj
 0002:00004090       ??_C@_15GHPEIIAO@?$AAe?$AAl?$AA?$AA@ 0000000180027090     libcpmt:winapinls.obj
 0002:00004098       ??_C@_15MNPNEAIF@?$AAe?$AAn?$AA?$AA@ 0000000180027098     libcpmt:winapinls.obj
 0002:000040a0       ??_C@_15GPIOMPMH@?$AAe?$AAs?$AA?$AA@ 00000001800270a0     libcpmt:winapinls.obj
 0002:000040a8       ??_C@_15NGLOAKJC@?$AAf?$AAi?$AA?$AA@ 00000001800270a8     libcpmt:winapinls.obj
 0002:000040b0       ??_C@_15FBKGNKAM@?$AAf?$AAr?$AA?$AA@ 00000001800270b0     libcpmt:winapinls.obj
 0002:000040b8       ??_C@_15KGGCNEFK@?$AAh?$AAe?$AA?$AA@ 00000001800270b8     libcpmt:winapinls.obj
 0002:000040c0       ??_C@_15PGHLIDMF@?$AAh?$AAu?$AA?$AA@ 00000001800270c0     libcpmt:winapinls.obj
 0002:000040c8       ??_C@_15BIEMAPLM@?$AAi?$AAs?$AA?$AA@ 00000001800270c8     libcpmt:winapinls.obj
 0002:000040d0       ??_C@_15IFJLDHAF@?$AAi?$AAt?$AA?$AA@ 00000001800270d0     libcpmt:winapinls.obj
 0002:000040d8       ??_C@_15GEMIOCAG@?$AAj?$AAa?$AA?$AA@ 00000001800270d8     libcpmt:winapinls.obj
 0002:000040e0       ??_C@_15EPELEGJA@?$AAk?$AAo?$AA?$AA@ 00000001800270e0     libcpmt:winapinls.obj
 0002:000040e8       ??_C@_15NDDHIMN@?$AAn?$AAl?$AA?$AA@ 00000001800270e8     libcpmt:winapinls.obj
 0002:000040f0       ??_C@_15BPIGNHCD@?$AAn?$AAo?$AA?$AA@ 00000001800270f0     libcpmt:winapinls.obj
 0002:000040f8       ??_C@_15DEOPBLCG@?$AAp?$AAl?$AA?$AA@ 00000001800270f8     libcpmt:winapinls.obj
 0002:00004100       ??_C@_15KBECGEFG@?$AAp?$AAt?$AA?$AA@ 0000000180027100     libcpmt:winapinls.obj
 0002:00004108       ??_C@_15GLJCBFMD@?$AAr?$AAo?$AA?$AA@ 0000000180027108     libcpmt:winapinls.obj
 0002:00004110       ??_C@_15FEDGKCDI@?$AAr?$AAu?$AA?$AA@ 0000000180027110     libcpmt:winapinls.obj
 0002:00004118       ??_C@_15GLKMLLHM@?$AAh?$AAr?$AA?$AA@ 0000000180027118     libcpmt:winapinls.obj
 0002:00004120       ??_C@_15CPKMFBDB@?$AAs?$AAk?$AA?$AA@ 0000000180027120     libcpmt:winapinls.obj
 0002:00004128       ??_C@_15BAAIOGMK@?$AAs?$AAq?$AA?$AA@ 0000000180027128     libcpmt:winapinls.obj
 0002:00004130       ??_C@_15INNPNOHD@?$AAs?$AAv?$AA?$AA@ 0000000180027130     libcpmt:winapinls.obj
 0002:00004138       ??_C@_15CABMMOGH@?$AAt?$AAh?$AA?$AA@ 0000000180027138     libcpmt:winapinls.obj
 0002:00004140       ??_C@_15BPLIHJJM@?$AAt?$AAr?$AA?$AA@ 0000000180027140     libcpmt:winapinls.obj
 0002:00004148       ??_C@_15NEOEKKDJ@?$AAu?$AAr?$AA?$AA@ 0000000180027148     libcpmt:winapinls.obj
 0002:00004150       ??_C@_15NFICGAJK@?$AAi?$AAd?$AA?$AA@ 0000000180027150     libcpmt:winapinls.obj
 0002:00004158       ??_C@_15PJPFLCCM@?$AAu?$AAk?$AA?$AA@ 0000000180027158     libcpmt:winapinls.obj
 0002:00004160       ??_C@_15HPJPHDM@?$AAb?$AAe?$AA?$AA@ 0000000180027160     libcpmt:winapinls.obj
 0002:00004168       ??_C@_15LCHLGJII@?$AAs?$AAl?$AA?$AA@ 0000000180027168     libcpmt:winapinls.obj
 0002:00004170       ??_C@_15PCFJPHHO@?$AAe?$AAt?$AA?$AA@ 0000000180027170     libcpmt:winapinls.obj
 0002:00004178       ??_C@_15HPFPGODN@?$AAl?$AAv?$AA?$AA@ 0000000180027178     libcpmt:winapinls.obj
 0002:00004180       ??_C@_15NFFGKGLG@?$AAl?$AAt?$AA?$AA@ 0000000180027180     libcpmt:winapinls.obj
 0002:00004188       ??_C@_15BDAKCCHN@?$AAf?$AAa?$AA?$AA@ 0000000180027188     libcpmt:winapinls.obj
 0002:00004190       ??_C@_15NFGIAIAJ@?$AAv?$AAi?$AA?$AA@ 0000000180027190     libcpmt:winapinls.obj
 0002:00004198       ??_C@_15LMKNDMHN@?$AAh?$AAy?$AA?$AA@ 0000000180027198     libcpmt:winapinls.obj
 0002:000041a0       ??_C@_15IJBHMCFL@?$AAa?$AAz?$AA?$AA@ 00000001800271a0     libcpmt:winapinls.obj
 0002:000041a8       ??_C@_15EKOFJABL@?$AAe?$AAu?$AA?$AA@ 00000001800271a8     libcpmt:winapinls.obj
 0002:000041b0       ??_C@_15BGHADCNK@?$AAm?$AAk?$AA?$AA@ 00000001800271b0     libcpmt:winapinls.obj
 0002:000041b8       ??_C@_15JDNICKHM@?$AAa?$AAf?$AA?$AA@ 00000001800271b8     libcpmt:winapinls.obj
 0002:000041c0       ??_C@_15KPJEDBKD@?$AAk?$AAa?$AA?$AA@ 00000001800271c0     libcpmt:winapinls.obj
 0002:000041c8       ??_C@_15PDNFFFEO@?$AAf?$AAo?$AA?$AA@ 00000001800271c8     libcpmt:winapinls.obj
 0002:000041d0       ??_C@_15OMLEGLOC@?$AAh?$AAi?$AA?$AA@ 00000001800271d0     libcpmt:winapinls.obj
 0002:000041d8       ??_C@_15IDNNENKK@?$AAm?$AAs?$AA?$AA@ 00000001800271d8     libcpmt:winapinls.obj
 0002:000041e0       ??_C@_15MACJNBMH@?$AAk?$AAk?$AA?$AA@ 00000001800271e0     libcpmt:winapinls.obj
 0002:000041e8       ??_C@_15DKDJEOND@?$AAk?$AAy?$AA?$AA@ 00000001800271e8     libcpmt:winapinls.obj
 0002:000041f0       ??_C@_15DFGDLJBG@?$AAs?$AAw?$AA?$AA@ 00000001800271f0     libcpmt:winapinls.obj
 0002:000041f8       ??_C@_15BBFAICNG@?$AAu?$AAz?$AA?$AA@ 00000001800271f8     libcpmt:winapinls.obj
 0002:00004200       ??_C@_15DKNDCGEA@?$AAt?$AAt?$AA?$AA@ 0000000180027200     libcpmt:winapinls.obj
 0002:00004208       ??_C@_15MGIFMDPL@?$AAp?$AAa?$AA?$AA@ 0000000180027208     libcpmt:winapinls.obj
 0002:00004210       ??_C@_15HCNDBBA@?$AAg?$AAu?$AA?$AA@ 0000000180027210     libcpmt:winapinls.obj
 0002:00004218       ??_C@_15FNBEIBON@?$AAt?$AAa?$AA?$AA@ 0000000180027218     libcpmt:winapinls.obj
 0002:00004220       ??_C@_15NCHGBGLK@?$AAt?$AAe?$AA?$AA@ 0000000180027220     libcpmt:winapinls.obj
 0002:00004228       ??_C@_15PHPHCBPF@?$AAk?$AAn?$AA?$AA@ 0000000180027228     libcpmt:winapinls.obj
 0002:00004230       ??_C@_15DLGBCKMP@?$AAm?$AAr?$AA?$AA@ 0000000180027230     libcpmt:winapinls.obj
 0002:00004238       ??_C@_15EABBLBFF@?$AAs?$AAa?$AA?$AA@ 0000000180027238     libcpmt:winapinls.obj
 0002:00004240       ??_C@_15CBKOMCOI@?$AAm?$AAn?$AA?$AA@ 0000000180027240     libcpmt:winapinls.obj
 0002:00004248       ??_C@_15CKDMCJAF@?$AAg?$AAl?$AA?$AA@ 0000000180027248     libcpmt:winapinls.obj
 0002:00004250       ??_C@_17CNJFBPG@?$AAk?$AAo?$AAk?$AA?$AA@ 0000000180027250     libcpmt:winapinls.obj
 0002:00004258       ??_C@_17FFBJICPL@?$AAs?$AAy?$AAr?$AA?$AA@ 0000000180027258     libcpmt:winapinls.obj
 0002:00004260       ??_C@_17KPNDCPAF@?$AAd?$AAi?$AAv?$AA?$AA@ 0000000180027260     libcpmt:winapinls.obj
 0002:00004268       ??_C@_1M@OKAHONE@?$AAa?$AAr?$AA?9?$AAS?$AAA?$AA?$AA@ 0000000180027268     libcpmt:winapinls.obj
 0002:00004278       ??_C@_1M@FFFIGIGK@?$AAb?$AAg?$AA?9?$AAB?$AAG?$AA?$AA@ 0000000180027278     libcpmt:winapinls.obj
 0002:00004288       ??_C@_1M@BJNKEDC@?$AAc?$AAa?$AA?9?$AAE?$AAS?$AA?$AA@ 0000000180027288     libcpmt:winapinls.obj
 0002:00004298       ??_C@_1M@CLNBBOPM@?$AAz?$AAh?$AA?9?$AAT?$AAW?$AA?$AA@ 0000000180027298     libcpmt:winapinls.obj
 0002:000042a8       ??_C@_1M@IJJHFJHA@?$AAc?$AAs?$AA?9?$AAC?$AAZ?$AA?$AA@ 00000001800272a8     libcpmt:winapinls.obj
 0002:000042b8       ??_C@_1M@CLPEOBGI@?$AAd?$AAa?$AA?9?$AAD?$AAK?$AA?$AA@ 00000001800272b8     libcpmt:winapinls.obj
 0002:000042c8       ??_C@_1M@MCMADGCB@?$AAd?$AAe?$AA?9?$AAD?$AAE?$AA?$AA@ 00000001800272c8     libcpmt:winapinls.obj
 0002:000042d8       ??_C@_1M@OOCKEMAM@?$AAe?$AAl?$AA?9?$AAG?$AAR?$AA?$AA@ 00000001800272d8     libcpmt:winapinls.obj
 0002:000042e8       ??_C@_1M@BMHNFIME@?$AAe?$AAn?$AA?9?$AAU?$AAS?$AA?$AA@ 00000001800272e8     libcpmt:winapinls.obj
 0002:000042f8       ??_C@_1M@DDNJFGID@?$AAf?$AAi?$AA?9?$AAF?$AAI?$AA?$AA@ 00000001800272f8     libcpmt:winapinls.obj
 0002:00004308       ??_C@_1M@GLIPPMAC@?$AAf?$AAr?$AA?9?$AAF?$AAR?$AA?$AA@ 0000000180027308     libcpmt:winapinls.obj
 0002:00004318       ??_C@_1M@GFMCHPE@?$AAh?$AAe?$AA?9?$AAI?$AAL?$AA?$AA@ 0000000180027318     libcpmt:winapinls.obj
 0002:00004328       ??_C@_1M@MHLPGNKM@?$AAh?$AAu?$AA?9?$AAH?$AAU?$AA?$AA@ 0000000180027328     libcpmt:winapinls.obj
 0002:00004338       ??_C@_1M@LPDDNNPN@?$AAi?$AAs?$AA?9?$AAI?$AAS?$AA?$AA@ 0000000180027338     libcpmt:winapinls.obj
 0002:00004348       ??_C@_1M@MADIPODN@?$AAi?$AAt?$AA?9?$AAI?$AAT?$AA?$AA@ 0000000180027348     libcpmt:winapinls.obj
 0002:00004358       ??_C@_1M@HPNHIDJI@?$AAj?$AAa?$AA?9?$AAJ?$AAP?$AA?$AA@ 0000000180027358     libcpmt:winapinls.obj
 0002:00004368       ??_C@_1M@JLOOOEGK@?$AAk?$AAo?$AA?9?$AAK?$AAR?$AA?$AA@ 0000000180027368     libcpmt:winapinls.obj
 0002:00004378       ??_C@_1M@IHBJJGG@?$AAn?$AAl?$AA?9?$AAN?$AAL?$AA?$AA@ 0000000180027378     libcpmt:winapinls.obj
 0002:00004388       ??_C@_1M@EANAGDL@?$AAn?$AAb?$AA?9?$AAN?$AAO?$AA?$AA@ 0000000180027388     libcpmt:winapinls.obj
 0002:00004398       ??_C@_1M@NEIEMEGP@?$AAp?$AAl?$AA?9?$AAP?$AAL?$AA?$AA@ 0000000180027398     libcpmt:winapinls.obj
 0002:000043a8       ??_C@_1M@BOCFIGEP@?$AAp?$AAt?$AA?9?$AAB?$AAR?$AA?$AA@ 00000001800273a8     libcpmt:winapinls.obj
 0002:000043b8       ??_C@_1M@IMPFOPBG@?$AAr?$AAo?$AA?9?$AAR?$AAO?$AA?$AA@ 00000001800273b8     libcpmt:winapinls.obj
 0002:000043c8       ??_C@_1M@IDNNEJMM@?$AAr?$AAu?$AA?9?$AAR?$AAU?$AA?$AA@ 00000001800273c8     libcpmt:winapinls.obj
 0002:000043d8       ??_C@_1M@LILEEOGM@?$AAh?$AAr?$AA?9?$AAH?$AAR?$AA?$AA@ 00000001800273d8     libcpmt:winapinls.obj
 0002:000043e8       ??_C@_1M@FKIFEHPB@?$AAs?$AAk?$AA?9?$AAS?$AAK?$AA?$AA@ 00000001800273e8     libcpmt:winapinls.obj
 0002:000043f8       ??_C@_1M@LJMAMNPJ@?$AAs?$AAq?$AA?9?$AAA?$AAL?$AA?$AA@ 00000001800273f8     libcpmt:winapinls.obj
 0002:00004408       ??_C@_1M@GIAKDKJK@?$AAs?$AAv?$AA?9?$AAS?$AAE?$AA?$AA@ 0000000180027408     libcpmt:winapinls.obj
 0002:00004418       ??_C@_1M@MKJKIKCL@?$AAt?$AAh?$AA?9?$AAT?$AAH?$AA?$AA@ 0000000180027418     libcpmt:winapinls.obj
 0002:00004428       ??_C@_1M@MFLCCMPB@?$AAt?$AAr?$AA?9?$AAT?$AAR?$AA?$AA@ 0000000180027428     libcpmt:winapinls.obj
 0002:00004438       ??_C@_1M@OIJHDKJN@?$AAu?$AAr?$AA?9?$AAP?$AAK?$AA?$AA@ 0000000180027438     libcpmt:winapinls.obj
 0002:00004448       ??_C@_1M@LHIPCIEK@?$AAi?$AAd?$AA?9?$AAI?$AAD?$AA?$AA@ 0000000180027448     libcpmt:winapinls.obj
 0002:00004458       ??_C@_1M@MFMOBGI@?$AAu?$AAk?$AA?9?$AAU?$AAA?$AA?$AA@ 0000000180027458     libcpmt:winapinls.obj
 0002:00004468       ??_C@_1M@OBGLJIPL@?$AAb?$AAe?$AA?9?$AAB?$AAY?$AA?$AA@ 0000000180027468     libcpmt:winapinls.obj
 0002:00004478       ??_C@_1M@BCFAJEAD@?$AAs?$AAl?$AA?9?$AAS?$AAI?$AA?$AA@ 0000000180027478     libcpmt:winapinls.obj
 0002:00004488       ??_C@_1M@FKFFEDDN@?$AAe?$AAt?$AA?9?$AAE?$AAE?$AA?$AA@ 0000000180027488     libcpmt:winapinls.obj
 0002:00004498       ??_C@_1M@KGKKAACI@?$AAl?$AAv?$AA?9?$AAL?$AAV?$AA?$AA@ 0000000180027498     libcpmt:winapinls.obj
 0002:000044a8       ??_C@_1M@IFGBIJO@?$AAl?$AAt?$AA?9?$AAL?$AAT?$AA?$AA@ 00000001800274a8     libcpmt:winapinls.obj
 0002:000044b8       ??_C@_1M@FGEAHEDM@?$AAf?$AAa?$AA?9?$AAI?$AAR?$AA?$AA@ 00000001800274b8     libcpmt:winapinls.obj
 0002:000044c8       ??_C@_1M@KBMAIBFN@?$AAv?$AAi?$AA?9?$AAV?$AAN?$AA?$AA@ 00000001800274c8     libcpmt:winapinls.obj
 0002:000044d8       ??_C@_1M@GPCBKDJK@?$AAh?$AAy?$AA?9?$AAA?$AAM?$AA?$AA@ 00000001800274d8     libcpmt:winapinls.obj
 0002:000044e8       ??_C@_1BG@BECMDDJB@?$AAa?$AAz?$AA?9?$AAA?$AAZ?$AA?9?$AAL?$AAa?$AAt?$AAn?$AA?$AA@ 00000001800274e8     libcpmt:winapinls.obj
 0002:00004500       ??_C@_1M@MAOFCAEA@?$AAe?$AAu?$AA?9?$AAE?$AAS?$AA?$AA@ 0000000180027500     libcpmt:winapinls.obj
 0002:00004510       ??_C@_1M@IGHABKPI@?$AAm?$AAk?$AA?9?$AAM?$AAK?$AA?$AA@ 0000000180027510     libcpmt:winapinls.obj
 0002:00004520       ??_C@_1M@IAIGNEJG@?$AAt?$AAn?$AA?9?$AAZ?$AAA?$AA?$AA@ 0000000180027520     libcpmt:winapinls.obj
 0002:00004530       ??_C@_1M@IIJCOJFA@?$AAx?$AAh?$AA?9?$AAZ?$AAA?$AA?$AA@ 0000000180027530     libcpmt:winapinls.obj
 0002:00004540       ??_C@_1M@LGPJHNJH@?$AAz?$AAu?$AA?9?$AAZ?$AAA?$AA?$AA@ 0000000180027540     libcpmt:winapinls.obj
 0002:00004550       ??_C@_1M@HOKAOIO@?$AAa?$AAf?$AA?9?$AAZ?$AAA?$AA?$AA@ 0000000180027550     libcpmt:winapinls.obj
 0002:00004560       ??_C@_1M@DPCLHLIE@?$AAk?$AAa?$AA?9?$AAG?$AAE?$AA?$AA@ 0000000180027560     libcpmt:winapinls.obj
 0002:00004570       ??_C@_1M@BLKMHJBI@?$AAf?$AAo?$AA?9?$AAF?$AAO?$AA?$AA@ 0000000180027570     libcpmt:winapinls.obj
 0002:00004580       ??_C@_1M@LGGJAPPB@?$AAh?$AAi?$AA?9?$AAI?$AAN?$AA?$AA@ 0000000180027580     libcpmt:winapinls.obj
 0002:00004590       ??_C@_1M@FIKPIHFE@?$AAm?$AAt?$AA?9?$AAM?$AAT?$AA?$AA@ 0000000180027590     libcpmt:winapinls.obj
 0002:000045a0       ??_C@_1M@HEGGPBFA@?$AAs?$AAe?$AA?9?$AAN?$AAO?$AA?$AA@ 00000001800275a0     libcpmt:winapinls.obj
 0002:000045b0       ??_C@_1M@EIBJEEPA@?$AAm?$AAs?$AA?9?$AAM?$AAY?$AA?$AA@ 00000001800275b0     libcpmt:winapinls.obj
 0002:000045c0       ??_C@_1M@FHLBGMPP@?$AAk?$AAk?$AA?9?$AAK?$AAZ?$AA?$AA@ 00000001800275c0     libcpmt:winapinls.obj
 0002:000045d0       ??_C@_1M@NGJJLCGI@?$AAk?$AAy?$AA?9?$AAK?$AAG?$AA?$AA@ 00000001800275d0     libcpmt:winapinls.obj
 0002:000045e0       ??_C@_1M@GIENNBFC@?$AAs?$AAw?$AA?9?$AAK?$AAE?$AA?$AA@ 00000001800275e0     libcpmt:winapinls.obj
 0002:000045f0       ??_C@_1BG@NDGMJIMJ@?$AAu?$AAz?$AA?9?$AAU?$AAZ?$AA?9?$AAL?$AAa?$AAt?$AAn?$AA?$AA@ 00000001800275f0     libcpmt:winapinls.obj
 0002:00004608       ??_C@_1M@IDCCIHBC@?$AAt?$AAt?$AA?9?$AAR?$AAU?$AA?$AA@ 0000000180027608     libcpmt:winapinls.obj
 0002:00004618       ??_C@_1M@LOICPMOJ@?$AAb?$AAn?$AA?9?$AAI?$AAN?$AA?$AA@ 0000000180027618     libcpmt:winapinls.obj
 0002:00004628       ??_C@_1M@KPKKNEAH@?$AAp?$AAa?$AA?9?$AAI?$AAN?$AA?$AA@ 0000000180027628     libcpmt:winapinls.obj
 0002:00004638       ??_C@_1M@PJGPPBOG@?$AAg?$AAu?$AA?9?$AAI?$AAN?$AA?$AA@ 0000000180027638     libcpmt:winapinls.obj
 0002:00004648       ??_C@_1M@KMKMOPHI@?$AAt?$AAa?$AA?9?$AAI?$AAN?$AA?$AA@ 0000000180027648     libcpmt:winapinls.obj
 0002:00004658       ??_C@_1M@KFEHEPAC@?$AAt?$AAe?$AA?9?$AAI?$AAN?$AA?$AA@ 0000000180027658     libcpmt:winapinls.obj
 0002:00004668       ??_C@_1M@CDCLMGHI@?$AAk?$AAn?$AA?9?$AAI?$AAN?$AA?$AA@ 0000000180027668     libcpmt:winapinls.obj
 0002:00004678       ??_C@_1M@MIODLDKF@?$AAm?$AAl?$AA?9?$AAI?$AAN?$AA?$AA@ 0000000180027678     libcpmt:winapinls.obj
 0002:00004688       ??_C@_1M@PBIEACPO@?$AAm?$AAr?$AA?9?$AAI?$AAN?$AA?$AA@ 0000000180027688     libcpmt:winapinls.obj
 0002:00004698       ??_C@_1M@NIDEAGPH@?$AAs?$AAa?$AA?9?$AAI?$AAN?$AA?$AA@ 0000000180027698     libcpmt:winapinls.obj
 0002:000046a8       ??_C@_1M@FHIHCBIO@?$AAm?$AAn?$AA?9?$AAM?$AAN?$AA?$AA@ 00000001800276a8     libcpmt:winapinls.obj
 0002:000046b8       ??_C@_1M@JAIJPENP@?$AAc?$AAy?$AA?9?$AAG?$AAB?$AA?$AA@ 00000001800276b8     libcpmt:winapinls.obj
 0002:000046c8       ??_C@_1M@PHGFBEPN@?$AAg?$AAl?$AA?9?$AAE?$AAS?$AA?$AA@ 00000001800276c8     libcpmt:winapinls.obj
 0002:000046d8       ??_C@_1O@KPIPDNCP@?$AAk?$AAo?$AAk?$AA?9?$AAI?$AAN?$AA?$AA@ 00000001800276d8     libcpmt:winapinls.obj
 0002:000046e8       ??_C@_1O@KNHJLDJA@?$AAs?$AAy?$AAr?$AA?9?$AAS?$AAY?$AA?$AA@ 00000001800276e8     libcpmt:winapinls.obj
 0002:000046f8       ??_C@_1O@MKEKBLAH@?$AAd?$AAi?$AAv?$AA?9?$AAM?$AAV?$AA?$AA@ 00000001800276f8     libcpmt:winapinls.obj
 0002:00004708       ??_C@_1O@OHDCKDDF@?$AAq?$AAu?$AAz?$AA?9?$AAB?$AAO?$AA?$AA@ 0000000180027708     libcpmt:winapinls.obj
 0002:00004718       ??_C@_1M@LEPJNLFD@?$AAn?$AAs?$AA?9?$AAZ?$AAA?$AA?$AA@ 0000000180027718     libcpmt:winapinls.obj
 0002:00004728       ??_C@_1M@OMLEIIJB@?$AAm?$AAi?$AA?9?$AAN?$AAZ?$AA?$AA@ 0000000180027728     libcpmt:winapinls.obj
 0002:00004738       ??_C@_1M@PMPEAILG@?$AAa?$AAr?$AA?9?$AAI?$AAQ?$AA?$AA@ 0000000180027738     libcpmt:winapinls.obj
 0002:00004748       ??_C@_1M@BIBDDEMK@?$AAz?$AAh?$AA?9?$AAC?$AAN?$AA?$AA@ 0000000180027748     libcpmt:winapinls.obj
 0002:00004758       ??_C@_1M@CNKPNOEE@?$AAd?$AAe?$AA?9?$AAC?$AAH?$AA?$AA@ 0000000180027758     libcpmt:winapinls.obj
 0002:00004768       ??_C@_1M@LKMGMLKO@?$AAe?$AAn?$AA?9?$AAG?$AAB?$AA?$AA@ 0000000180027768     libcpmt:winapinls.obj
 0002:00004778       ??_C@_1M@PGKJFFGL@?$AAe?$AAs?$AA?9?$AAM?$AAX?$AA?$AA@ 0000000180027778     libcpmt:winapinls.obj
 0002:00004788       ??_C@_1M@DNNANBDC@?$AAf?$AAr?$AA?9?$AAB?$AAE?$AA?$AA@ 0000000180027788     libcpmt:winapinls.obj
 0002:00004798       ??_C@_1M@HLGMDFHM@?$AAi?$AAt?$AA?9?$AAC?$AAH?$AA?$AA@ 0000000180027798     libcpmt:winapinls.obj
 0002:000047a8       ??_C@_1M@CLLBGJH@?$AAn?$AAl?$AA?9?$AAB?$AAE?$AA?$AA@ 00000001800277a8     libcpmt:winapinls.obj
 0002:000047b8       ??_C@_1M@BODBOGLF@?$AAn?$AAn?$AA?9?$AAN?$AAO?$AA?$AA@ 00000001800277b8     libcpmt:winapinls.obj
 0002:000047c8       ??_C@_1M@HFFAHKAD@?$AAp?$AAt?$AA?9?$AAP?$AAT?$AA?$AA@ 00000001800277c8     libcpmt:winapinls.obj
 0002:000047d8       ??_C@_1BG@LNOAKHIE@?$AAs?$AAr?$AA?9?$AAS?$AAP?$AA?9?$AAL?$AAa?$AAt?$AAn?$AA?$AA@ 00000001800277d8     libcpmt:winapinls.obj
 0002:000047f0       ??_C@_1M@HBMHBGAK@?$AAs?$AAv?$AA?9?$AAF?$AAI?$AA?$AA@ 00000001800277f0     libcpmt:winapinls.obj
 0002:00004800       ??_C@_1BG@DGCJGJBE@?$AAa?$AAz?$AA?9?$AAA?$AAZ?$AA?9?$AAC?$AAy?$AAr?$AAl?$AA?$AA@ 0000000180027800     libcpmt:winapinls.obj
 0002:00004818       ??_C@_1M@KEJDAAHB@?$AAs?$AAe?$AA?9?$AAS?$AAE?$AA?$AA@ 0000000180027818     libcpmt:winapinls.obj
 0002:00004828       ??_C@_1M@HEIBJJAD@?$AAm?$AAs?$AA?9?$AAB?$AAN?$AA?$AA@ 0000000180027828     libcpmt:winapinls.obj
 0002:00004838       ??_C@_1BG@PBGJMCEM@?$AAu?$AAz?$AA?9?$AAU?$AAZ?$AA?9?$AAC?$AAy?$AAr?$AAl?$AA?$AA@ 0000000180027838     libcpmt:winapinls.obj
 0002:00004850       ??_C@_1O@LAOBCMDF@?$AAq?$AAu?$AAz?$AA?9?$AAE?$AAC?$AA?$AA@ 0000000180027850     libcpmt:winapinls.obj
 0002:00004860       ??_C@_1M@POEEMAIO@?$AAa?$AAr?$AA?9?$AAE?$AAG?$AA?$AA@ 0000000180027860     libcpmt:winapinls.obj
 0002:00004870       ??_C@_1M@EFAKDEDL@?$AAz?$AAh?$AA?9?$AAH?$AAK?$AA?$AA@ 0000000180027870     libcpmt:winapinls.obj
 0002:00004880       ??_C@_1M@HKKIJHGI@?$AAd?$AAe?$AA?9?$AAA?$AAT?$AA?$AA@ 0000000180027880     libcpmt:winapinls.obj
 0002:00004890       ??_C@_1M@KBFBEHJF@?$AAe?$AAn?$AA?9?$AAA?$AAU?$AA?$AA@ 0000000180027890     libcpmt:winapinls.obj
 0002:000048a0       ??_C@_1M@MNPLFAAH@?$AAe?$AAs?$AA?9?$AAE?$AAS?$AA?$AA@ 00000001800278a0     libcpmt:winapinls.obj
 0002:000048b0       ??_C@_1M@HJOOJFMA@?$AAf?$AAr?$AA?9?$AAC?$AAA?$AA?$AA@ 00000001800278b0     libcpmt:winapinls.obj
 0002:000048c0       ??_C@_1BG@JPOFPNAB@?$AAs?$AAr?$AA?9?$AAS?$AAP?$AA?9?$AAC?$AAy?$AAr?$AAl?$AA?$AA@ 00000001800278c0     libcpmt:winapinls.obj
 0002:000048d8       ??_C@_1M@LNFOCMOB@?$AAs?$AAe?$AA?9?$AAF?$AAI?$AA?$AA@ 00000001800278d8     libcpmt:winapinls.obj
 0002:000048e8       ??_C@_1O@MGJBOAMB@?$AAq?$AAu?$AAz?$AA?9?$AAP?$AAE?$AA?$AA@ 00000001800278e8     libcpmt:winapinls.obj
 0002:000048f8       ??_C@_1M@GJINLBOK@?$AAa?$AAr?$AA?9?$AAL?$AAY?$AA?$AA@ 00000001800278f8     libcpmt:winapinls.obj
 0002:00004908       ??_C@_1M@GGMNHJNL@?$AAz?$AAh?$AA?9?$AAS?$AAG?$AA?$AA@ 0000000180027908     libcpmt:winapinls.obj
 0002:00004918       ??_C@_1M@HOIKODND@?$AAd?$AAe?$AA?9?$AAL?$AAU?$AA?$AA@ 0000000180027918     libcpmt:winapinls.obj
 0002:00004928       ??_C@_1M@DDOCCGFG@?$AAe?$AAn?$AA?9?$AAC?$AAA?$AA?$AA@ 0000000180027928     libcpmt:winapinls.obj
 0002:00004938       ??_C@_1M@BNOEMJLF@?$AAe?$AAs?$AA?9?$AAG?$AAT?$AA?$AA@ 0000000180027938     libcpmt:winapinls.obj
 0002:00004948       ??_C@_1M@EOGNKEK@?$AAf?$AAr?$AA?9?$AAC?$AAH?$AA?$AA@ 0000000180027948     libcpmt:winapinls.obj
 0002:00004958       ??_C@_1M@FLIDJFHL@?$AAh?$AAr?$AA?9?$AAB?$AAA?$AA?$AA@ 0000000180027958     libcpmt:winapinls.obj
 0002:00004968       ??_C@_1O@FMCELNAJ@?$AAs?$AAm?$AAj?$AA?9?$AAN?$AAO?$AA?$AA@ 0000000180027968     libcpmt:winapinls.obj
 0002:00004978       ??_C@_1M@JHGLJMGJ@?$AAa?$AAr?$AA?9?$AAD?$AAZ?$AA?$AA@ 0000000180027978     libcpmt:winapinls.obj
 0002:00004988       ??_C@_1M@JKKFDCNP@?$AAz?$AAh?$AA?9?$AAM?$AAO?$AA?$AA@ 0000000180027988     libcpmt:winapinls.obj
 0002:00004998       ??_C@_1M@GEEFALPE@?$AAd?$AAe?$AA?9?$AAL?$AAI?$AA?$AA@ 0000000180027998     libcpmt:winapinls.obj
 0002:000049a8       ??_C@_1M@IGEOFBG@?$AAe?$AAn?$AA?9?$AAN?$AAZ?$AA?$AA@ 00000001800279a8     libcpmt:winapinls.obj
 0002:000049b8       ??_C@_1M@KDBONEHP@?$AAe?$AAs?$AA?9?$AAC?$AAR?$AA?$AA@ 00000001800279b8     libcpmt:winapinls.obj
 0002:000049c8       ??_C@_1M@FHMDOHNN@?$AAf?$AAr?$AA?9?$AAL?$AAU?$AA?$AA@ 00000001800279c8     libcpmt:winapinls.obj
 0002:000049d8       ??_C@_1BG@NFKKMAFG@?$AAb?$AAs?$AA?9?$AAB?$AAA?$AA?9?$AAL?$AAa?$AAt?$AAn?$AA?$AA@ 00000001800279d8     libcpmt:winapinls.obj
 0002:000049f0       ??_C@_1O@IMNBEMCI@?$AAs?$AAm?$AAj?$AA?9?$AAS?$AAE?$AA?$AA@ 00000001800279f0     libcpmt:winapinls.obj
 0002:00004a00       ??_C@_1M@DHHMBNDP@?$AAa?$AAr?$AA?9?$AAM?$AAA?$AA?$AA@ 0000000180027a00     libcpmt:winapinls.obj
 0002:00004a10       ??_C@_1M@BNBLJCGH@?$AAe?$AAn?$AA?9?$AAI?$AAE?$AA?$AA@ 0000000180027a10     libcpmt:winapinls.obj
 0002:00004a20       ??_C@_1M@GEPAFMDL@?$AAe?$AAs?$AA?9?$AAP?$AAA?$AA?$AA@ 0000000180027a20     libcpmt:winapinls.obj
 0002:00004a30       ??_C@_1M@OJONDMDL@?$AAf?$AAr?$AA?9?$AAM?$AAC?$AA?$AA@ 0000000180027a30     libcpmt:winapinls.obj
 0002:00004a40       ??_C@_1BG@OBCNFJB@?$AAs?$AAr?$AA?9?$AAB?$AAA?$AA?9?$AAL?$AAa?$AAt?$AAn?$AA?$AA@ 0000000180027a40     libcpmt:winapinls.obj
 0002:00004a58       ??_C@_1O@KEMEEGPO@?$AAs?$AAm?$AAa?$AA?9?$AAN?$AAO?$AA?$AA@ 0000000180027a58     libcpmt:winapinls.obj
 0002:00004a68       ??_C@_1M@ELMGFODK@?$AAa?$AAr?$AA?9?$AAT?$AAN?$AA?$AA@ 0000000180027a68     libcpmt:winapinls.obj
 0002:00004a78       ??_C@_1M@BHDLHFAF@?$AAe?$AAn?$AA?9?$AAZ?$AAA?$AA?$AA@ 0000000180027a78     libcpmt:winapinls.obj
 0002:00004a88       ??_C@_1M@BMGIGLIF@?$AAe?$AAs?$AA?9?$AAD?$AAO?$AA?$AA@ 0000000180027a88     libcpmt:winapinls.obj
 0002:00004a98       ??_C@_1BG@CMBHIPBE@?$AAs?$AAr?$AA?9?$AAB?$AAA?$AA?9?$AAC?$AAy?$AAr?$AAl?$AA?$AA@ 0000000180027a98     libcpmt:winapinls.obj
 0002:00004ab0       ??_C@_1O@HEDBLHNP@?$AAs?$AAm?$AAa?$AA?9?$AAS?$AAE?$AA?$AA@ 0000000180027ab0     libcpmt:winapinls.obj
 0002:00004ac0       ??_C@_1M@DAGCADIM@?$AAa?$AAr?$AA?9?$AAO?$AAM?$AA?$AA@ 0000000180027ac0     libcpmt:winapinls.obj
 0002:00004ad0       ??_C@_1M@FODLMICG@?$AAe?$AAn?$AA?9?$AAJ?$AAM?$AA?$AA@ 0000000180027ad0     libcpmt:winapinls.obj
 0002:00004ae0       ??_C@_1M@DNMLCIHB@?$AAe?$AAs?$AA?9?$AAV?$AAE?$AA?$AA@ 0000000180027ae0     libcpmt:winapinls.obj
 0002:00004af0       ??_C@_1O@EOKHMKJK@?$AAs?$AAm?$AAs?$AA?9?$AAF?$AAI?$AA?$AA@ 0000000180027af0     libcpmt:winapinls.obj
 0002:00004b00       ??_C@_1M@CAFJMKOF@?$AAa?$AAr?$AA?9?$AAY?$AAE?$AA?$AA@ 0000000180027b00     libcpmt:winapinls.obj
 0002:00004b10       ??_C@_1M@CBFHIJLI@?$AAe?$AAn?$AA?9?$AAC?$AAB?$AA?$AA@ 0000000180027b10     libcpmt:winapinls.obj
 0002:00004b20       ??_C@_1M@BGNFLDN@?$AAe?$AAs?$AA?9?$AAC?$AAO?$AA?$AA@ 0000000180027b20     libcpmt:winapinls.obj
 0002:00004b30       ??_C@_1O@JMPHMAMC@?$AAs?$AAm?$AAn?$AA?9?$AAF?$AAI?$AA?$AA@ 0000000180027b30     libcpmt:winapinls.obj
 0002:00004b40       ??_C@_1M@JLANABKE@?$AAa?$AAr?$AA?9?$AAS?$AAY?$AA?$AA@ 0000000180027b40     libcpmt:winapinls.obj
 0002:00004b50       ??_C@_1M@HPKGCFGN@?$AAe?$AAn?$AA?9?$AAB?$AAZ?$AA?$AA@ 0000000180027b50     libcpmt:winapinls.obj
 0002:00004b60       ??_C@_1M@OLJCMLGM@?$AAe?$AAs?$AA?9?$AAP?$AAE?$AA?$AA@ 0000000180027b60     libcpmt:winapinls.obj
 0002:00004b70       ??_C@_1M@MKKGFKLE@?$AAa?$AAr?$AA?9?$AAJ?$AAO?$AA?$AA@ 0000000180027b70     libcpmt:winapinls.obj
 0002:00004b80       ??_C@_1M@EKPGLDNI@?$AAe?$AAn?$AA?9?$AAT?$AAT?$AA?$AA@ 0000000180027b80     libcpmt:winapinls.obj
 0002:00004b90       ??_C@_1M@OONGHFHE@?$AAe?$AAs?$AA?9?$AAA?$AAR?$AA?$AA@ 0000000180027b90     libcpmt:winapinls.obj
 0002:00004ba0       ??_C@_1M@OOJFGBHE@?$AAa?$AAr?$AA?9?$AAL?$AAB?$AA?$AA@ 0000000180027ba0     libcpmt:winapinls.obj
 0002:00004bb0       ??_C@_1M@GCEJHNEG@?$AAe?$AAn?$AA?9?$AAZ?$AAW?$AA?$AA@ 0000000180027bb0     libcpmt:winapinls.obj
 0002:00004bc0       ??_C@_1M@JNOCAHJI@?$AAe?$AAs?$AA?9?$AAE?$AAC?$AA?$AA@ 0000000180027bc0     libcpmt:winapinls.obj
 0002:00004bd0       ??_C@_1M@JEFHPGGB@?$AAa?$AAr?$AA?9?$AAK?$AAW?$AA?$AA@ 0000000180027bd0     libcpmt:winapinls.obj
 0002:00004be0       ??_C@_1M@MLKIBJOJ@?$AAe?$AAn?$AA?9?$AAP?$AAH?$AA?$AA@ 0000000180027be0     libcpmt:winapinls.obj
 0002:00004bf0       ??_C@_1M@BDNIPEND@?$AAe?$AAs?$AA?9?$AAC?$AAL?$AA?$AA@ 0000000180027bf0     libcpmt:winapinls.obj
 0002:00004c00       ??_C@_1M@MPNMEKBD@?$AAa?$AAr?$AA?9?$AAA?$AAE?$AA?$AA@ 0000000180027c00     libcpmt:winapinls.obj
 0002:00004c10       ??_C@_1M@KBJALCPI@?$AAe?$AAs?$AA?9?$AAU?$AAY?$AA?$AA@ 0000000180027c10     libcpmt:winapinls.obj
 0002:00004c20       ??_C@_1M@LLCCOAGA@?$AAa?$AAr?$AA?9?$AAB?$AAH?$AA?$AA@ 0000000180027c20     libcpmt:winapinls.obj
 0002:00004c30       ??_C@_1M@PBFNCDEL@?$AAe?$AAs?$AA?9?$AAP?$AAY?$AA?$AA@ 0000000180027c30     libcpmt:winapinls.obj
 0002:00004c40       ??_C@_1M@EDGINPNP@?$AAa?$AAr?$AA?9?$AAQ?$AAA?$AA?$AA@ 0000000180027c40     libcpmt:winapinls.obj
 0002:00004c50       ??_C@_1M@MKDBIIJI@?$AAe?$AAs?$AA?9?$AAB?$AAO?$AA?$AA@ 0000000180027c50     libcpmt:winapinls.obj
 0002:00004c60       ??_C@_1M@CPKKEBLD@?$AAe?$AAs?$AA?9?$AAS?$AAV?$AA?$AA@ 0000000180027c60     libcpmt:winapinls.obj
 0002:00004c70       ??_C@_1M@NDBGMMJL@?$AAe?$AAs?$AA?9?$AAH?$AAN?$AA?$AA@ 0000000180027c70     libcpmt:winapinls.obj
 0002:00004c80       ??_C@_1M@JIJIBHDP@?$AAe?$AAs?$AA?9?$AAN?$AAI?$AA?$AA@ 0000000180027c80     libcpmt:winapinls.obj
 0002:00004c90       ??_C@_1M@CGFMKEEK@?$AAe?$AAs?$AA?9?$AAP?$AAR?$AA?$AA@ 0000000180027c90     libcpmt:winapinls.obj
 0002:00004ca0       ??_C@_1O@ICJHKIIK@?$AAz?$AAh?$AA?9?$AAC?$AAH?$AAT?$AA?$AA@ 0000000180027ca0     libcpmt:winapinls.obj
 0002:00004cb0       ??_C@_15CLNEJCE@?$AAs?$AAr?$AA?$AA@ 0000000180027cb0     libcpmt:winapinls.obj
 0002:00004cb8       ??_C@_1M@KAHEKEIG@?$AAa?$AAf?$AA?9?$AAz?$AAa?$AA?$AA@ 0000000180027cb8     libcpmt:winapinls.obj
 0002:00004cc8       ??_C@_1M@GIECOABL@?$AAa?$AAr?$AA?9?$AAa?$AAe?$AA?$AA@ 0000000180027cc8     libcpmt:winapinls.obj
 0002:00004cd8       ??_C@_1M@BMLMEKGI@?$AAa?$AAr?$AA?9?$AAb?$AAh?$AA?$AA@ 0000000180027cd8     libcpmt:winapinls.obj
 0002:00004ce8       ??_C@_1M@DAPFDGGB@?$AAa?$AAr?$AA?9?$AAd?$AAz?$AA?$AA@ 0000000180027ce8     libcpmt:winapinls.obj
 0002:00004cf8       ??_C@_1M@FJNKGKIG@?$AAa?$AAr?$AA?9?$AAe?$AAg?$AA?$AA@ 0000000180027cf8     libcpmt:winapinls.obj
 0002:00004d08       ??_C@_1M@FLGKKCLO@?$AAa?$AAr?$AA?9?$AAi?$AAq?$AA?$AA@ 0000000180027d08     libcpmt:winapinls.obj
 0002:00004d18       ??_C@_1M@GNDIPALM@?$AAa?$AAr?$AA?9?$AAj?$AAo?$AA?$AA@ 0000000180027d18     libcpmt:winapinls.obj
 0002:00004d28       ??_C@_1M@DDMJFMGJ@?$AAa?$AAr?$AA?9?$AAk?$AAw?$AA?$AA@ 0000000180027d28     libcpmt:winapinls.obj
 0002:00004d38       ??_C@_1M@EJALMLHM@?$AAa?$AAr?$AA?9?$AAl?$AAb?$AA?$AA@ 0000000180027d38     libcpmt:winapinls.obj
 0002:00004d48       ??_C@_1M@MOBDBLOC@?$AAa?$AAr?$AA?9?$AAl?$AAy?$AA?$AA@ 0000000180027d48     libcpmt:winapinls.obj
 0002:00004d58       ??_C@_1M@JAOCLHDH@?$AAa?$AAr?$AA?9?$AAm?$AAa?$AA?$AA@ 0000000180027d58     libcpmt:winapinls.obj
 0002:00004d68       ??_C@_1M@JHPMKJIE@?$AAa?$AAr?$AA?9?$AAo?$AAm?$AA?$AA@ 0000000180027d68     libcpmt:winapinls.obj
 0002:00004d78       ??_C@_1M@OEPGHFNH@?$AAa?$AAr?$AA?9?$AAq?$AAa?$AA?$AA@ 0000000180027d78     libcpmt:winapinls.obj
 0002:00004d88       ??_C@_1M@KJDONENM@?$AAa?$AAr?$AA?9?$AAs?$AAa?$AA?$AA@ 0000000180027d88     libcpmt:winapinls.obj
 0002:00004d98       ??_C@_1M@DMJDKLKM@?$AAa?$AAr?$AA?9?$AAs?$AAy?$AA?$AA@ 0000000180027d98     libcpmt:winapinls.obj
 0002:00004da8       ??_C@_1M@OMFIPEDC@?$AAa?$AAr?$AA?9?$AAt?$AAn?$AA?$AA@ 0000000180027da8     libcpmt:winapinls.obj
 0002:00004db8       ??_C@_1M@IHMHGAON@?$AAa?$AAr?$AA?9?$AAy?$AAe?$AA?$AA@ 0000000180027db8     libcpmt:winapinls.obj
 0002:00004dc8       ??_C@_1BG@KDCPGJGB@?$AAa?$AAz?$AA?9?$AAa?$AAz?$AA?9?$AAc?$AAy?$AAr?$AAl?$AA?$AA@ 0000000180027dc8     libcpmt:winapinls.obj
 0002:00004de0       ??_C@_1BG@IBCKDDOE@?$AAa?$AAz?$AA?9?$AAa?$AAz?$AA?9?$AAl?$AAa?$AAt?$AAn?$AA?$AA@ 0000000180027de0     libcpmt:winapinls.obj
 0002:00004df8       ??_C@_1M@EGPFDCPD@?$AAb?$AAe?$AA?9?$AAb?$AAy?$AA?$AA@ 0000000180027df8     libcpmt:winapinls.obj
 0002:00004e08       ??_C@_1M@PCMGMCGC@?$AAb?$AAg?$AA?9?$AAb?$AAg?$AA?$AA@ 0000000180027e08     libcpmt:winapinls.obj
 0002:00004e18       ??_C@_1M@BJBMFGOB@?$AAb?$AAn?$AA?9?$AAi?$AAn?$AA?$AA@ 0000000180027e18     libcpmt:winapinls.obj
 0002:00004e28       ??_C@_1BG@EAKMMACD@?$AAb?$AAs?$AA?9?$AAb?$AAa?$AA?9?$AAl?$AAa?$AAt?$AAn?$AA?$AA@ 0000000180027e28     libcpmt:winapinls.obj
 0002:00004e40       ??_C@_1M@KGADAODK@?$AAc?$AAa?$AA?9?$AAe?$AAs?$AA?$AA@ 0000000180027e40     libcpmt:winapinls.obj
 0002:00004e50       ??_C@_1M@COAJPDHI@?$AAc?$AAs?$AA?9?$AAc?$AAz?$AA?$AA@ 0000000180027e50     libcpmt:winapinls.obj
 0002:00004e60       ??_C@_1M@DHBHFONH@?$AAc?$AAy?$AA?9?$AAg?$AAb?$AA?$AA@ 0000000180027e60     libcpmt:winapinls.obj
 0002:00004e70       ??_C@_1M@IMGKELGA@?$AAd?$AAa?$AA?9?$AAd?$AAk?$AA?$AA@ 0000000180027e70     libcpmt:winapinls.obj
 0002:00004e80       ??_C@_1M@NNDGDNGA@?$AAd?$AAe?$AA?9?$AAa?$AAt?$AA?$AA@ 0000000180027e80     libcpmt:winapinls.obj
 0002:00004e90       ??_C@_1M@IKDBHEEM@?$AAd?$AAe?$AA?9?$AAc?$AAh?$AA?$AA@ 0000000180027e90     libcpmt:winapinls.obj
 0002:00004ea0       ??_C@_1M@GFFOJMCJ@?$AAd?$AAe?$AA?9?$AAd?$AAe?$AA?$AA@ 0000000180027ea0     libcpmt:winapinls.obj
 0002:00004eb0       ??_C@_1M@MDNLKBPM@?$AAd?$AAe?$AA?9?$AAl?$AAi?$AA?$AA@ 0000000180027eb0     libcpmt:winapinls.obj
 0002:00004ec0       ??_C@_1M@NJBEEJNL@?$AAd?$AAe?$AA?9?$AAl?$AAu?$AA?$AA@ 0000000180027ec0     libcpmt:winapinls.obj
 0002:00004ed0       ??_C@_1O@GNNELBAP@?$AAd?$AAi?$AAv?$AA?9?$AAm?$AAv?$AA?$AA@ 0000000180027ed0     libcpmt:winapinls.obj
 0002:00004ee0       ??_C@_1M@EJLEOGAE@?$AAe?$AAl?$AA?9?$AAg?$AAr?$AA?$AA@ 0000000180027ee0     libcpmt:winapinls.obj
 0002:00004ef0       ??_C@_1M@GMPONJN@?$AAe?$AAn?$AA?9?$AAa?$AAu?$AA?$AA@ 0000000180027ef0     libcpmt:winapinls.obj
 0002:00004f00       ??_C@_1M@NIDIIPGF@?$AAe?$AAn?$AA?9?$AAb?$AAz?$AA?$AA@ 0000000180027f00     libcpmt:winapinls.obj
 0002:00004f10       ??_C@_1M@JEHMIMFO@?$AAe?$AAn?$AA?9?$AAc?$AAa?$AA?$AA@ 0000000180027f10     libcpmt:winapinls.obj
 0002:00004f20       ??_C@_1M@IGMJCDLA@?$AAe?$AAn?$AA?9?$AAc?$AAb?$AA?$AA@ 0000000180027f20     libcpmt:winapinls.obj
 0002:00004f30       ??_C@_1M@BNFIGBKG@?$AAe?$AAn?$AA?9?$AAg?$AAb?$AA?$AA@ 0000000180027f30     libcpmt:winapinls.obj
 0002:00004f40       ??_C@_1M@LKIFDIGP@?$AAe?$AAn?$AA?9?$AAi?$AAe?$AA?$AA@ 0000000180027f40     libcpmt:winapinls.obj
 0002:00004f50       ??_C@_1M@PJKFGCCO@?$AAe?$AAn?$AA?9?$AAj?$AAm?$AA?$AA@ 0000000180027f50     libcpmt:winapinls.obj
 0002:00004f60       ??_C@_1M@KPPKEPBO@?$AAe?$AAn?$AA?9?$AAn?$AAz?$AA?$AA@ 0000000180027f60     libcpmt:winapinls.obj
 0002:00004f70       ??_C@_1M@GMDGLDOB@?$AAe?$AAn?$AA?9?$AAp?$AAh?$AA?$AA@ 0000000180027f70     libcpmt:winapinls.obj
 0002:00004f80       ??_C@_1M@ONGIBJNA@?$AAe?$AAn?$AA?9?$AAt?$AAt?$AA?$AA@ 0000000180027f80     libcpmt:winapinls.obj
 0002:00004f90       ??_C@_1M@LLODPCMM@?$AAe?$AAn?$AA?9?$AAu?$AAs?$AA?$AA@ 0000000180027f90     libcpmt:winapinls.obj
 0002:00004fa0       ??_C@_1M@LAKFNPAN@?$AAe?$AAn?$AA?9?$AAz?$AAa?$AA?$AA@ 0000000180027fa0     libcpmt:winapinls.obj
 0002:00004fb0       ??_C@_1M@MFNHNHEO@?$AAe?$AAn?$AA?9?$AAz?$AAw?$AA?$AA@ 0000000180027fb0     libcpmt:winapinls.obj
 0002:00004fc0       ??_C@_1M@EJEINPHM@?$AAe?$AAs?$AA?9?$AAa?$AAr?$AA?$AA@ 0000000180027fc0     libcpmt:winapinls.obj
 0002:00004fd0       ??_C@_1M@GNKPCCJA@?$AAe?$AAs?$AA?9?$AAb?$AAo?$AA?$AA@ 0000000180027fd0     libcpmt:winapinls.obj
 0002:00004fe0       ??_C@_1M@LEEGFONL@?$AAe?$AAs?$AA?9?$AAc?$AAl?$AA?$AA@ 0000000180027fe0     libcpmt:winapinls.obj
 0002:00004ff0       ??_C@_1M@KGPDPBDF@?$AAe?$AAs?$AA?9?$AAc?$AAo?$AA?$AA@ 0000000180027ff0     libcpmt:winapinls.obj
 0002:00005000       ??_C@_1M@EIAHOHH@?$AAe?$AAs?$AA?9?$AAc?$AAr?$AA?$AA@ 0000000180028000     libcpmt:winapinls.obj
 0002:00005010       ??_C@_1M@LLPGMBIN@?$AAe?$AAs?$AA?9?$AAd?$AAo?$AA?$AA@ 0000000180028010     libcpmt:winapinls.obj
 0002:00005020       ??_C@_1M@DKHMKNJA@?$AAe?$AAs?$AA?9?$AAe?$AAc?$AA?$AA@ 0000000180028020     libcpmt:winapinls.obj
 0002:00005030       ??_C@_1M@GKGFPKAP@?$AAe?$AAs?$AA?9?$AAe?$AAs?$AA?$AA@ 0000000180028030     libcpmt:winapinls.obj
 0002:00005040       ??_C@_1M@LKHKGDLN@?$AAe?$AAs?$AA?9?$AAg?$AAt?$AA?$AA@ 0000000180028040     libcpmt:winapinls.obj
 0002:00005050       ??_C@_1M@HEIIGGJD@?$AAe?$AAs?$AA?9?$AAh?$AAn?$AA?$AA@ 0000000180028050     libcpmt:winapinls.obj
 0002:00005060       ??_C@_1M@FBDHPPGD@?$AAe?$AAs?$AA?9?$AAm?$AAx?$AA?$AA@ 0000000180028060     libcpmt:winapinls.obj
 0002:00005070       ??_C@_1M@DPAGLNDH@?$AAe?$AAs?$AA?9?$AAn?$AAi?$AA?$AA@ 0000000180028070     libcpmt:winapinls.obj
 0002:00005080       ??_C@_1M@MDGOPGDD@?$AAe?$AAs?$AA?9?$AAp?$AAa?$AA?$AA@ 0000000180028080     libcpmt:winapinls.obj
 0002:00005090       ??_C@_1M@EMAMGBGE@?$AAe?$AAs?$AA?9?$AAp?$AAe?$AA?$AA@ 0000000180028090     libcpmt:winapinls.obj
 0002:000050a0       ??_C@_1M@IBMCAOEC@?$AAe?$AAs?$AA?9?$AAp?$AAr?$AA?$AA@ 00000001800280a0     libcpmt:winapinls.obj
 0002:000050b0       ??_C@_1M@FGMDIJED@?$AAe?$AAs?$AA?9?$AAp?$AAy?$AA?$AA@ 00000001800280b0     libcpmt:winapinls.obj
 0002:000050c0       ??_C@_1M@IIDEOLLL@?$AAe?$AAs?$AA?9?$AAs?$AAv?$AA?$AA@ 00000001800280c0     libcpmt:winapinls.obj
 0002:000050d0       ??_C@_1M@GAOBIPA@?$AAe?$AAs?$AA?9?$AAu?$AAy?$AA?$AA@ 00000001800280d0     libcpmt:winapinls.obj
 0002:000050e0       _pRawDllMain               00000001800280e0     LIBCMT:dll_dllmain.obj
 0002:000050e0       _pDefaultRawDllMain        00000001800280e0     LIBCMT:dll_dllmain.obj
 0002:000050f0       ??_7type_info@@6B@         00000001800280f0     LIBCMT:std_type_info_static.obj
 0002:00005110       ??_7bad_array_new_length@std@@6B@ 0000000180028110     LIBCMT:throw_bad_alloc.obj
 0002:00005120       ??_C@_0BF@KINCDENJ@bad?5array?5new?5length?$AA@ 0000000180028120     LIBCMT:throw_bad_alloc.obj
 0002:00005138       ?s_maxExternalAllocators@SchedulerBase@details@Concurrency@@0HB 0000000180028138     libconcrt:SchedulerBase.obj
 0002:0000513c       ?s_allocatorFreePoolLimit@SchedulerBase@details@Concurrency@@0HB 000000018002813c     libconcrt:SchedulerBase.obj
 0002:00005140       ??_C@_0O@JJAHDPNG@SchedulerKind?$AA@ 0000000180028140     libconcrt:SchedulerPolicyBase.obj
 0002:00005150       ??_C@_0P@CGAHIHHE@MaxConcurrency?$AA@ 0000000180028150     libconcrt:SchedulerPolicyBase.obj
 0002:00005160       ??_C@_0P@BLMOAEF@MinConcurrency?$AA@ 0000000180028160     libconcrt:SchedulerPolicyBase.obj
 0002:00005170       ??_C@_0BN@GKPFKNNF@TargetOversubscriptionFactor?$AA@ 0000000180028170     libconcrt:SchedulerPolicyBase.obj
 0002:00005190       ??_C@_0BG@PCMPEOIE@LocalContextCacheSize?$AA@ 0000000180028190     libconcrt:SchedulerPolicyBase.obj
 0002:000051a8       ??_C@_0BB@OPLJNNNB@ContextStackSize?$AA@ 00000001800281a8     libconcrt:SchedulerPolicyBase.obj
 0002:000051c0       ??_C@_0BA@CHGPFLBM@ContextPriority?$AA@ 00000001800281c0     libconcrt:SchedulerPolicyBase.obj
 0002:000051d0       ??_C@_0BD@HMLGOEAM@SchedulingProtocol?$AA@ 00000001800281d0     libconcrt:SchedulerPolicyBase.obj
 0002:000051e8       ??_C@_0BI@PEDMDBKL@DynamicProgressFeedback?$AA@ 00000001800281e8     libconcrt:SchedulerPolicyBase.obj
 0002:00005200       ??_C@_0BE@EBKJEJDK@WinRTInitialization?$AA@ 0000000180028200     libconcrt:SchedulerPolicyBase.obj
 0002:00005218       ??_C@_0BE@OJPKBKLL@MaxPolicyElementKey?$AA@ 0000000180028218     libconcrt:SchedulerPolicyBase.obj
 0002:00005230       ?ConcRT_ProviderGuid@Concurrency@@3U_GUID@@B 0000000180028230     libconcrt:Trace.obj
 0002:00005240       ?ConcRTEventGuid@Concurrency@@3U_GUID@@B 0000000180028240     libconcrt:Trace.obj
 0002:00005250       ?SchedulerEventGuid@Concurrency@@3U_GUID@@B 0000000180028250     libconcrt:Trace.obj
 0002:00005260       ?ScheduleGroupEventGuid@Concurrency@@3U_GUID@@B 0000000180028260     libconcrt:Trace.obj
 0002:00005270       ?ContextEventGuid@Concurrency@@3U_GUID@@B 0000000180028270     libconcrt:Trace.obj
 0002:00005280       ?ChoreEventGuid@Concurrency@@3U_GUID@@B 0000000180028280     libconcrt:Trace.obj
 0002:00005290       ?VirtualProcessorEventGuid@Concurrency@@3U_GUID@@B 0000000180028290     libconcrt:Trace.obj
 0002:000052a0       ?LockEventGuid@Concurrency@@3U_GUID@@B 00000001800282a0     libconcrt:Trace.obj
 0002:000052b0       ?ResourceManagerEventGuid@Concurrency@@3U_GUID@@B 00000001800282b0     libconcrt:Trace.obj
 0002:000052c0       ?PPLParallelInvokeEventGuid@Concurrency@@3U_GUID@@B 00000001800282c0     libconcrt:Trace.obj
 0002:000052d0       ?PPLParallelForEventGuid@Concurrency@@3U_GUID@@B 00000001800282d0     libconcrt:Trace.obj
 0002:000052e0       ?PPLParallelForeachEventGuid@Concurrency@@3U_GUID@@B 00000001800282e0     libconcrt:Trace.obj
 0002:000052f0       ?AgentEventGuid@Concurrency@@3U_GUID@@B 00000001800282f0     libconcrt:Trace.obj
 0002:00005300       ?s_bucketSizes@SubAllocator@details@Concurrency@@0QBHB 0000000180028300     libconcrt:SubAllocator.obj
 0002:00005480       ?GranularityShift@SubAllocator@details@Concurrency@@0HB 0000000180028480     libconcrt:SubAllocator.obj
 0002:00005484       ?MaxAllocationSize@SubAllocator@details@Concurrency@@0HB 0000000180028484     libconcrt:SubAllocator.obj
 0002:00005488       _pDestructExceptionObject  0000000180028488     libvcruntime:frame.obj
 0002:00005498       ??_7bad_exception@std@@6B@ 0000000180028498     libvcruntime:frame.obj
 0002:000054a8       ??_C@_0O@DPKOEFFH@bad?5exception?$AA@ 00000001800284a8     libvcruntime:frame.obj
 0002:000055b8       ??_C@_1BC@DNHGCMLG@?$AAa?$AAd?$AAv?$AAa?$AAp?$AAi?$AA3?$AA2?$AA?$AA@ 00000001800285b8     libvcruntime:winapi_downlevel.obj
 0002:000055d0       ??_C@_1DM@KHCHBNEB@?$AAa?$AAp?$AAi?$AA?9?$AAm?$AAs?$AA?9?$AAw?$AAi?$AAn?$AA?9?$AAc?$AAo?$AAr?$AAe?$AA?9?$AAf?$AAi?$AAb?$AAe?$AAr?$AAs?$AA?9?$AAl?$AA1?$AA?9?$AA1?$AA?9?$AA1?$AA?$AA@ 00000001800285d0     libvcruntime:winapi_downlevel.obj
 0002:00005610       ??_C@_1DK@LPPGFMPP@?$AAa?$AAp?$AAi?$AA?9?$AAm?$AAs?$AA?9?$AAw?$AAi?$AAn?$AA?9?$AAc?$AAo?$AAr?$AAe?$AA?9?$AAs?$AAy?$AAn?$AAc?$AAh?$AA?9?$AAl?$AA1?$AA?9?$AA2?$AA?9?$AA0?$AA?$AA@ 0000000180028610     libvcruntime:winapi_downlevel.obj
 0002:00005650       ??_C@_1BC@GDMECMAK@?$AAk?$AAe?$AAr?$AAn?$AAe?$AAl?$AA3?$AA2?$AA?$AA@ 0000000180028650     libvcruntime:winapi_downlevel.obj
 0002:000059b0       ??_C@_08EHJDFFNH@__based?$CI?$AA@ 00000001800289b0     libvcruntime:undname.obj
 0002:000059c0       ??_C@_07KOLFKCDI@__cdecl?$AA@ 00000001800289c0     libvcruntime:undname.obj
 0002:000059c8       ??_C@_08GHMPAG@__pascal?$AA@ 00000001800289c8     libvcruntime:undname.obj
 0002:000059d8       ??_C@_09IFJBGAPI@__stdcall?$AA@ 00000001800289d8     libvcruntime:undname.obj
 0002:000059e8       ??_C@_0L@NPHFGOKO@__thiscall?$AA@ 00000001800289e8     libvcruntime:undname.obj
 0002:000059f8       ??_C@_0L@JMKHOMEK@__fastcall?$AA@ 00000001800289f8     libvcruntime:undname.obj
 0002:00005a08       ??_C@_0N@BCKKPABJ@__vectorcall?$AA@ 0000000180028a08     libvcruntime:undname.obj
 0002:00005a18       ??_C@_09HIJEGCPM@__clrcall?$AA@ 0000000180028a18     libvcruntime:undname.obj
 0002:00005a24       ??_C@_06GHPCKEAG@__eabi?$AA@ 0000000180028a24     libvcruntime:undname.obj
 0002:00005a30       ??_C@_07JOMMBBKO@__ptr64?$AA@ 0000000180028a30     libvcruntime:undname.obj
 0002:00005a38       ??_C@_0L@PILCLIHE@__restrict?$AA@ 0000000180028a38     libvcruntime:undname.obj
 0002:00005a48       ??_C@_0M@GFIIJFMG@__unaligned?$AA@ 0000000180028a48     libvcruntime:undname.obj
 0002:00005a58       ??_C@_09DHDLOLLB@restrict?$CI?$AA@ 0000000180028a58     libvcruntime:undname.obj
 0002:00005a64       ??_C@_04NIHEBCM@?5new?$AA@ 0000000180028a64     libvcruntime:undname.obj
 0002:00005a70       ??_C@_07FPCDHGMM@?5delete?$AA@ 0000000180028a70     libvcruntime:undname.obj
 0002:00005a78       ??_C@_01NEMOKFLO@?$DN?$AA@ 0000000180028a78     libvcruntime:undname.obj
 0002:00005a7c       ??_C@_02GPIOPFAK@?$DO?$DO?$AA@ 0000000180028a7c     libvcruntime:undname.obj
 0002:00005a80       ??_C@_02FODMEDOG@?$DM?$DM?$AA@ 0000000180028a80     libvcruntime:undname.obj
 0002:00005a84       ??_C@_01DCLJPIOD@?$CB?$AA@ 0000000180028a84     libvcruntime:undname.obj
 0002:00005a88       ??_C@_02EGOFBIJA@?$DN?$DN?$AA@ 0000000180028a88     libvcruntime:undname.obj
 0002:00005a8c       ??_C@_02FDNJECIE@?$CB?$DN?$AA@ 0000000180028a8c     libvcruntime:undname.obj
 0002:00005a90       ??_C@_02GPECMEKF@?$FL?$FN?$AA@ 0000000180028a90     libvcruntime:undname.obj
 0002:00005a98       ??_C@_08LHJFAFGD@operator?$AA@ 0000000180028a98     libvcruntime:undname.obj
 0002:00005aa4       ??_C@_02HBOOOICD@?9?$DO?$AA@ 0000000180028aa4     libvcruntime:undname.obj
 0002:00005aa8       ??_C@_02ECNGHCIF@?$CL?$CL?$AA@ 0000000180028aa8     libvcruntime:undname.obj
 0002:00005aac       ??_C@_02BAABKJLB@?9?9?$AA@ 0000000180028aac     libvcruntime:undname.obj
 0002:00005ab0       ??_C@_01MIFGBAGJ@?$CL?$AA@ 0000000180028ab0     libvcruntime:undname.obj
 0002:00005ab4       ??_C@_01HNPIGOCE@?$CG?$AA@ 0000000180028ab4     libvcruntime:undname.obj
 0002:00005ab8       ??_C@_03MNHNFDLC@?9?$DO?$CK?$AA@ 0000000180028ab8     libvcruntime:undname.obj
 0002:00005abc       ??_C@_01KMDKNFGN@?1?$AA@   0000000180028abc     libvcruntime:undname.obj
 0002:00005ac0       ??_C@_01FGNFDNOH@?$CF?$AA@ 0000000180028ac0     libvcruntime:undname.obj
 0002:00005ac4       ??_C@_01MNNFJEPP@?$DM?$AA@ 0000000180028ac4     libvcruntime:undname.obj
 0002:00005ac8       ??_C@_02EHCHHCKH@?$DM?$DN?$AA@ 0000000180028ac8     libvcruntime:undname.obj
 0002:00005acc       ??_C@_01PPODPGHN@?$DO?$AA@ 0000000180028acc     libvcruntime:undname.obj
 0002:00005ad0       ??_C@_02EEKDKGMJ@?$DO?$DN?$AA@ 0000000180028ad0     libvcruntime:undname.obj
 0002:00005ad4       ??_C@_01IHBHIGKO@?0?$AA@   0000000180028ad4     libvcruntime:undname.obj
 0002:00005ad8       ??_C@_02HCKGKOFO@?$CI?$CJ?$AA@ 0000000180028ad8     libvcruntime:undname.obj
 0002:00005adc       ??_C@_01PJKLJHI@?$HO?$AA@  0000000180028adc     libvcruntime:undname.obj
 0002:00005ae0       ??_C@_01JKBOJNNK@?$FO?$AA@ 0000000180028ae0     libvcruntime:undname.obj
 0002:00005ae4       ??_C@_01DNKMNLPK@?$HM?$AA@ 0000000180028ae4     libvcruntime:undname.obj
 0002:00005ae8       ??_C@_02PPKAJPJL@?$CG?$CG?$AA@ 0000000180028ae8     libvcruntime:undname.obj
 0002:00005aec       ??_C@_02NONPIBCD@?$HM?$HM?$AA@ 0000000180028aec     libvcruntime:undname.obj
 0002:00005af0       ??_C@_02FPIMKNGF@?$CK?$DN?$AA@ 0000000180028af0     libvcruntime:undname.obj
 0002:00005af4       ??_C@_02FOEOMHFC@?$CL?$DN?$AA@ 0000000180028af4     libvcruntime:undname.obj
 0002:00005af8       ??_C@_02FKMDLLOA@?9?$DN?$AA@ 0000000180028af8     libvcruntime:undname.obj
 0002:00005afc       ??_C@_02FJEHGPIO@?1?$DN?$AA@ 0000000180028afc     libvcruntime:undname.obj
 0002:00005b00       ??_C@_02FENAOKFI@?$CF?$DN?$AA@ 0000000180028b00     libvcruntime:undname.obj
 0002:00005b04       ??_C@_03IKFCCPFF@?$DO?$DO?$DN?$AA@ 0000000180028b04     libvcruntime:undname.obj
 0002:00005b08       ??_C@_03CDNPDDLA@?$DM?$DM?$DN?$AA@ 0000000180028b08     libvcruntime:undname.obj
 0002:00005b0c       ??_C@_02FGJGFEAB@?$CG?$DN?$AA@ 0000000180028b0c     libvcruntime:undname.obj
 0002:00005b10       ??_C@_02DHLNPPGH@?$HM?$DN?$AA@ 0000000180028b10     libvcruntime:undname.obj
 0002:00005b14       ??_C@_02MHEGNOJ@?$FO?$DN?$AA@ 0000000180028b14     libvcruntime:undname.obj
 0002:00005b18       ??_C@_09IFPLHPGF@?$GAvftable?8?$AA@ 0000000180028b18     libvcruntime:undname.obj
 0002:00005b28       ??_C@_09BLBHBJP@?$GAvbtable?8?$AA@ 0000000180028b28     libvcruntime:undname.obj
 0002:00005b38       ??_C@_07FEEIOKP@?$GAvcall?8?$AA@ 0000000180028b38     libvcruntime:undname.obj
 0002:00005b40       ??_C@_08LLFFHHDJ@?$GAtypeof?8?$AA@ 0000000180028b40     libvcruntime:undname.obj
 0002:00005b50       ??_C@_0BF@KDPPACIK@?$GAlocal?5static?5guard?8?$AA@ 0000000180028b50     libvcruntime:undname.obj
 0002:00005b68       ??_C@_08OBABFOLI@?$GAstring?8?$AA@ 0000000180028b68     libvcruntime:undname.obj
 0002:00005b78       ??_C@_0BD@JDLKDPAB@?$GAvbase?5destructor?8?$AA@ 0000000180028b78     libvcruntime:undname.obj
 0002:00005b90       ??_C@_0BN@DEGPLNFK@?$GAvector?5deleting?5destructor?8?$AA@ 0000000180028b90     libvcruntime:undname.obj
 0002:00005bb0       ??_C@_0BO@OBMKPJIG@?$GAdefault?5constructor?5closure?8?$AA@ 0000000180028bb0     libvcruntime:undname.obj
 0002:00005bd0       ??_C@_0BN@IMDCHIKM@?$GAscalar?5deleting?5destructor?8?$AA@ 0000000180028bd0     libvcruntime:undname.obj
 0002:00005bf0       ??_C@_0BO@PFGOCPJJ@?$GAvector?5constructor?5iterator?8?$AA@ 0000000180028bf0     libvcruntime:undname.obj
 0002:00005c10       ??_C@_0BN@LFPFMEDL@?$GAvector?5destructor?5iterator?8?$AA@ 0000000180028c10     libvcruntime:undname.obj
 0002:00005c30       ??_C@_0CE@IKBNEHA@?$GAvector?5vbase?5constructor?5iterat@ 0000000180028c30     libvcruntime:undname.obj
 0002:00005c58       ??_C@_0BL@NILFHHPC@?$GAvirtual?5displacement?5map?8?$AA@ 0000000180028c58     libvcruntime:undname.obj
 0002:00005c78       ??_C@_0CB@JONCMFFK@?$GAeh?5vector?5constructor?5iterator?8@ 0000000180028c78     libvcruntime:undname.obj
 0002:00005ca0       ??_C@_0CA@GCEOPDGL@?$GAeh?5vector?5destructor?5iterator?8?$AA@ 0000000180028ca0     libvcruntime:undname.obj
 0002:00005cc0       ??_C@_0CH@OOJPLCPH@?$GAeh?5vector?5vbase?5constructor?5ite@ 0000000180028cc0     libvcruntime:undname.obj
 0002:00005ce8       ??_C@_0BL@LLKPOHJI@?$GAcopy?5constructor?5closure?8?$AA@ 0000000180028ce8     libvcruntime:undname.obj
 0002:00005d08       ??_C@_0BA@KBCDOMBN@?$GAudt?5returning?8?$AA@ 0000000180028d08     libvcruntime:undname.obj
 0002:00005d18       ??_C@_03KLGMFNMG@?$GAEH?$AA@ 0000000180028d18     libvcruntime:undname.obj
 0002:00005d1c       ??_C@_05KHLCHHI@?$GARTTI?$AA@ 0000000180028d1c     libvcruntime:undname.obj
 0002:00005d28       ??_C@_0BA@KKLDJDLB@?$GAlocal?5vftable?8?$AA@ 0000000180028d28     libvcruntime:undname.obj
 0002:00005d38       ??_C@_0CE@IIHCMGGL@?$GAlocal?5vftable?5constructor?5closu@ 0000000180028d38     libvcruntime:undname.obj
 0002:00005d5c       ??_C@_06FHBGPFGH@?5new?$FL?$FN?$AA@ 0000000180028d5c     libvcruntime:undname.obj
 0002:00005d68       ??_C@_09LBNFPBCA@?5delete?$FL?$FN?$AA@ 0000000180028d68     libvcruntime:undname.obj
 0002:00005d78       ??_C@_0P@HJKNJFNN@?$GAomni?5callsig?8?$AA@ 0000000180028d78     libvcruntime:undname.obj
 0002:00005d88       ??_C@_0BL@CNOONJFP@?$GAplacement?5delete?5closure?8?$AA@ 0000000180028d88     libvcruntime:undname.obj
 0002:00005da8       ??_C@_0BN@CKNJLHMB@?$GAplacement?5delete?$FL?$FN?5closure?8?$AA@ 0000000180028da8     libvcruntime:undname.obj
 0002:00005dc8       ??_C@_0CG@CFDHKGGD@?$GAmanaged?5vector?5constructor?5iter@ 0000000180028dc8     libvcruntime:undname.obj
 0002:00005df0       ??_C@_0CF@IMGKMJNO@?$GAmanaged?5vector?5destructor?5itera@ 0000000180028df0     libvcruntime:undname.obj
 0002:00005e18       ??_C@_0CG@HLDDJMAG@?$GAeh?5vector?5copy?5constructor?5iter@ 0000000180028e18     libvcruntime:undname.obj
 0002:00005e40       ??_C@_0CM@FCBBDIGB@?$GAeh?5vector?5vbase?5copy?5constructo@ 0000000180028e40     libvcruntime:undname.obj
 0002:00005e70       ??_C@_0BL@CLIPGLGB@?$GAdynamic?5initializer?5for?5?8?$AA@ 0000000180028e70     libvcruntime:undname.obj
 0002:00005e90       ??_C@_0CB@PDBIFEP@?$GAdynamic?5atexit?5destructor?5for?5?8@ 0000000180028e90     libvcruntime:undname.obj
 0002:00005eb8       ??_C@_0CD@CGAJBKEJ@?$GAvector?5copy?5constructor?5iterato@ 0000000180028eb8     libvcruntime:undname.obj
 0002:00005ee0       ??_C@_0CJ@GJELGAMM@?$GAvector?5vbase?5copy?5constructor?5i@ 0000000180028ee0     libvcruntime:undname.obj
 0002:00005f10       ??_C@_0CL@FGIJHLCE@?$GAmanaged?5vector?5copy?5constructor@ 0000000180028f10     libvcruntime:undname.obj
 0002:00005f40       ??_C@_0BM@PMGGMLDN@?$GAlocal?5static?5thread?5guard?8?$AA@ 0000000180028f40     libvcruntime:undname.obj
 0002:00005f60       ??_C@_0N@BDNMDMOL@operator?5?$CC?$CC?5?$AA@ 0000000180028f60     libvcruntime:undname.obj
 0002:00005f70       ??_C@_0BC@DAFEJGAK@?5Type?5Descriptor?8?$AA@ 0000000180028f70     libvcruntime:undname.obj
 0002:00005f88       ??_C@_0BM@LDKODKLH@?5Base?5Class?5Descriptor?5at?5?$CI?$AA@ 0000000180028f88     libvcruntime:undname.obj
 0002:00005fa8       ??_C@_0BD@LGICGFMM@?5Base?5Class?5Array?8?$AA@ 0000000180028fa8     libvcruntime:undname.obj
 0002:00005fc0       ??_C@_0BN@MECKDCOJ@?5Class?5Hierarchy?5Descriptor?8?$AA@ 0000000180028fc0     libvcruntime:undname.obj
 0002:00005fe0       ??_C@_0BK@CFCOFLF@?5Complete?5Object?5Locator?8?$AA@ 0000000180028fe0     libvcruntime:undname.obj
 0002:00006170       __newctype                 0000000180029170     libucrt:ctype.obj
 0002:00006470       __newclmap                 0000000180029470     libucrt:ctype.obj
 0002:000065f0       __newcumap                 00000001800295f0     libucrt:ctype.obj
 0002:00006770       _wctype                    0000000180029770     libucrt:ctype.obj
 0002:00008630       __acrt_exception_action_table 000000018002b630     libucrt:exception_filter.obj
 0002:000086f0       __acrt_signal_action_table_count 000000018002b6f0     libucrt:exception_filter.obj
 0002:000086f8       __acrt_signal_action_first_fpe_index 000000018002b6f8     libucrt:exception_filter.obj
 0002:00008700       __acrt_signal_action_fpe_count 000000018002b700     libucrt:exception_filter.obj
 0002:00008708       ??_C@_1BI@BGOHAHKC@?$AAm?$AAs?$AAc?$AAo?$AAr?$AAe?$AAe?$AA?4?$AAd?$AAl?$AAl?$AA?$AA@ 000000018002b708     libucrt:exit.obj
 0002:00008720       ??_C@_0P@MIGLKIOC@CorExitProcess?$AA@ 000000018002b720     libucrt:exit.obj
 0002:00008920       ??_C@_04EIAKFFMI@sqrt?$AA@ 000000018002b920     libucrt:sqrt.obj
 0002:00008930       __lc_category              000000018002b930     libucrt:wsetlocale.obj
 0002:000089c0       ??_C@_1O@GIFLHMA@?$AAL?$AAC?$AA_?$AAA?$AAL?$AAL?$AA?$AA@ 000000018002b9c0     libucrt:wsetlocale.obj
 0002:000089d0       ??_C@_1BG@PPOMIBNJ@?$AAL?$AAC?$AA_?$AAC?$AAO?$AAL?$AAL?$AAA?$AAT?$AAE?$AA?$AA@ 000000018002b9d0     libucrt:wsetlocale.obj
 0002:000089e8       ??_C@_1BC@FFJGAPJM@?$AAL?$AAC?$AA_?$AAC?$AAT?$AAY?$AAP?$AAE?$AA?$AA@ 000000018002b9e8     libucrt:wsetlocale.obj
 0002:00008a00       ??_C@_1BI@PCKFNJFB@?$AAL?$AAC?$AA_?$AAM?$AAO?$AAN?$AAE?$AAT?$AAA?$AAR?$AAY?$AA?$AA@ 000000018002ba00     libucrt:wsetlocale.obj
 0002:00008a18       ??_C@_1BG@ENIEDKID@?$AAL?$AAC?$AA_?$AAN?$AAU?$AAM?$AAE?$AAR?$AAI?$AAC?$AA?$AA@ 000000018002ba18     libucrt:wsetlocale.obj
 0002:00008a30       ??_C@_1BA@HAAOMIIG@?$AAL?$AAC?$AA_?$AAT?$AAI?$AAM?$AAE?$AA?$AA@ 000000018002ba30     libucrt:wsetlocale.obj
 0002:00008ac0       ??_C@_15NBPDDFIP@?$AA?$DN?$AA?$DL?$AA?$AA@ 000000018002bac0     libucrt:wsetlocale.obj
 0002:00008ac8       ??_C@_13PJJBFPED@?$AA?$DL?$AA?$AA@ 000000018002bac8     libucrt:wsetlocale.obj
 0002:00008acc       ??_C@_13NMPKAAJP@?$AA?$DN?$AA?$AA@ 000000018002bacc     libucrt:wsetlocale.obj
 0002:00008ad0       ??_C@_13FHBKNHDA@?$AAC?$AA?$AA@ 000000018002bad0     libucrt:wsetlocale.obj
 0002:00008ad8       ??_C@_17MBJJLFDM@?$AA_?$AA?4?$AA?0?$AA?$AA@ 000000018002bad8     libucrt:wsetlocale.obj
 0002:00008ae0       ??_C@_13ENNFDPBH@?$AA_?$AA?$AA@ 000000018002bae0     libucrt:wsetlocale.obj
 0002:00008ae4       ??_C@_13JOFGPIOO@?$AA?4?$AA?$AA@ 000000018002bae4     libucrt:wsetlocale.obj
 0002:00008af0       __lc_time_c                000000018002baf0     libucrt:nlsdata.obj
 0002:00008db0       ??_C@_03KOEHGMDN@Sun?$AA@  000000018002bdb0     libucrt:nlsdata.obj
 0002:00008db4       ??_C@_03PDAGKDH@Mon?$AA@   000000018002bdb4     libucrt:nlsdata.obj
 0002:00008db8       ??_C@_03NAGEINEP@Tue?$AA@  000000018002bdb8     libucrt:nlsdata.obj
 0002:00008dbc       ??_C@_03MHOMLAJA@Wed?$AA@  000000018002bdbc     libucrt:nlsdata.obj
 0002:00008dc0       ??_C@_03IOFIKPDN@Thu?$AA@  000000018002bdc0     libucrt:nlsdata.obj
 0002:00008dc4       ??_C@_03IDIOELNC@Fri?$AA@  000000018002bdc4     libucrt:nlsdata.obj
 0002:00008dc8       ??_C@_03FEFJNEK@Sat?$AA@   000000018002bdc8     libucrt:nlsdata.obj
 0002:00008dcc       ??_C@_06OOPIFAJ@Sunday?$AA@ 000000018002bdcc     libucrt:nlsdata.obj
 0002:00008dd4       ??_C@_06JLEDEDGH@Monday?$AA@ 000000018002bdd4     libucrt:nlsdata.obj
 0002:00008de0       ??_C@_07BAAGCFCM@Tuesday?$AA@ 000000018002bde0     libucrt:nlsdata.obj
 0002:00008de8       ??_C@_09DLIGFAKA@Wednesday?$AA@ 000000018002bde8     libucrt:nlsdata.obj
 0002:00008df8       ??_C@_08HACCIKIA@Thursday?$AA@ 000000018002bdf8     libucrt:nlsdata.obj
 0002:00008e04       ??_C@_06JECMNKMI@Friday?$AA@ 000000018002be04     libucrt:nlsdata.obj
 0002:00008e10       ??_C@_08INBOOONO@Saturday?$AA@ 000000018002be10     libucrt:nlsdata.obj
 0002:00008e1c       ??_C@_03JIHJHPIE@Jan?$AA@  000000018002be1c     libucrt:nlsdata.obj
 0002:00008e20       ??_C@_03HJBDCHOM@Feb?$AA@  000000018002be20     libucrt:nlsdata.obj
 0002:00008e24       ??_C@_03ODNJBKGA@Mar?$AA@  000000018002be24     libucrt:nlsdata.obj
 0002:00008e28       ??_C@_03LEOLGMJP@Apr?$AA@  000000018002be28     libucrt:nlsdata.obj
 0002:00008e2c       ??_C@_03CNMDKL@May?$AA@    000000018002be2c     libucrt:nlsdata.obj
 0002:00008e30       ??_C@_03IDFGHECI@Jun?$AA@  000000018002be30     libucrt:nlsdata.obj
 0002:00008e34       ??_C@_03LBGABGKK@Jul?$AA@  000000018002be34     libucrt:nlsdata.obj
 0002:00008e38       ??_C@_03IFJFEIGA@Aug?$AA@  000000018002be38     libucrt:nlsdata.obj
 0002:00008e3c       ??_C@_03GGCAPAJC@Sep?$AA@  000000018002be3c     libucrt:nlsdata.obj
 0002:00008e40       ??_C@_03BMAOKBAD@Oct?$AA@  000000018002be40     libucrt:nlsdata.obj
 0002:00008e44       ??_C@_03JPJOFNIA@Nov?$AA@  000000018002be44     libucrt:nlsdata.obj
 0002:00008e48       ??_C@_03MKABNOCG@Dec?$AA@  000000018002be48     libucrt:nlsdata.obj
 0002:00008e50       ??_C@_07CGJPFGJA@January?$AA@ 000000018002be50     libucrt:nlsdata.obj
 0002:00008e58       ??_C@_08GNJGEPFN@February?$AA@ 000000018002be58     libucrt:nlsdata.obj
 0002:00008e64       ??_C@_05HPCKOFNC@March?$AA@ 000000018002be64     libucrt:nlsdata.obj
 0002:00008e6c       ??_C@_05DMJDNLEJ@April?$AA@ 000000018002be6c     libucrt:nlsdata.obj
 0002:00008e74       ??_C@_04CNLMGBGM@June?$AA@ 000000018002be74     libucrt:nlsdata.obj
 0002:00008e7c       ??_C@_04MIEPOIFP@July?$AA@ 000000018002be7c     libucrt:nlsdata.obj
 0002:00008e84       ??_C@_06LBBHFDDG@August?$AA@ 000000018002be84     libucrt:nlsdata.obj
 0002:00008e90       ??_C@_09BHHEALKD@September?$AA@ 000000018002be90     libucrt:nlsdata.obj
 0002:00008ea0       ??_C@_07JJNFCEND@October?$AA@ 000000018002bea0     libucrt:nlsdata.obj
 0002:00008ea8       ??_C@_08HCHEGEOA@November?$AA@ 000000018002bea8     libucrt:nlsdata.obj
 0002:00008eb8       ??_C@_08EDHMEBNP@December?$AA@ 000000018002beb8     libucrt:nlsdata.obj
 0002:00008ec4       ??_C@_02DEDBPAFC@AM?$AA@   000000018002bec4     libucrt:nlsdata.obj
 0002:00008ec8       ??_C@_02CJNFDJBF@PM?$AA@   000000018002bec8     libucrt:nlsdata.obj
 0002:00008ed0       ??_C@_08BPBNCDIB@MM?1dd?1yy?$AA@ 000000018002bed0     libucrt:nlsdata.obj
 0002:00008ee0       ??_C@_0BE@CKGJFCPC@dddd?0?5MMMM?5dd?0?5yyyy?$AA@ 000000018002bee0     libucrt:nlsdata.obj
 0002:00008ef8       ??_C@_08JCCMCCIL@HH?3mm?3ss?$AA@ 000000018002bef8     libucrt:nlsdata.obj
 0002:00008f08       ??_C@_17MBGCMIPB@?$AAS?$AAu?$AAn?$AA?$AA@ 000000018002bf08     libucrt:nlsdata.obj
 0002:00008f10       ??_C@_17KBOMKBF@?$AAM?$AAo?$AAn?$AA?$AA@ 000000018002bf10     libucrt:nlsdata.obj
 0002:00008f18       ??_C@_17BMKGEGOJ@?$AAT?$AAu?$AAe?$AA?$AA@ 000000018002bf18     libucrt:nlsdata.obj
 0002:00008f20       ??_C@_17CJEDCEPE@?$AAW?$AAe?$AAd?$AA?$AA@ 000000018002bf20     libucrt:nlsdata.obj
 0002:00008f28       ??_C@_17PDPHAADD@?$AAT?$AAh?$AAu?$AA?$AA@ 000000018002bf28     libucrt:nlsdata.obj
 0002:00008f30       ??_C@_17HFOLPPLP@?$AAF?$AAr?$AAi?$AA?$AA@ 000000018002bf30     libucrt:nlsdata.obj
 0002:00008f38       ??_C@_17GGIBDPIH@?$AAS?$AAa?$AAt?$AA?$AA@ 000000018002bf38     libucrt:nlsdata.obj
 0002:00008f40       ??_C@_1O@IHNHDHPB@?$AAS?$AAu?$AAn?$AAd?$AAa?$AAy?$AA?$AA@ 000000018002bf40     libucrt:nlsdata.obj
 0002:00008f50       ??_C@_1O@MMNBFLIA@?$AAM?$AAo?$AAn?$AAd?$AAa?$AAy?$AA?$AA@ 000000018002bf50     libucrt:nlsdata.obj
 0002:00008f60       ??_C@_1BA@ENFBFFEK@?$AAT?$AAu?$AAe?$AAs?$AAd?$AAa?$AAy?$AA?$AA@ 000000018002bf60     libucrt:nlsdata.obj
 0002:00008f70       ??_C@_1BE@EBOGMDOH@?$AAW?$AAe?$AAd?$AAn?$AAe?$AAs?$AAd?$AAa?$AAy?$AA?$AA@ 000000018002bf70     libucrt:nlsdata.obj
 0002:00008f88       ??_C@_1BC@HHMNLIHE@?$AAT?$AAh?$AAu?$AAr?$AAs?$AAd?$AAa?$AAy?$AA?$AA@ 000000018002bf88     libucrt:nlsdata.obj
 0002:00008fa0       ??_C@_1O@PDICJHAG@?$AAF?$AAr?$AAi?$AAd?$AAa?$AAy?$AA?$AA@ 000000018002bfa0     libucrt:nlsdata.obj
 0002:00008fb0       ??_C@_1BC@ENMNNPAJ@?$AAS?$AAa?$AAt?$AAu?$AAr?$AAd?$AAa?$AAy?$AA?$AA@ 000000018002bfb0     libucrt:nlsdata.obj
 0002:00008fc8       ??_C@_17DKNBKCHM@?$AAJ?$AAa?$AAn?$AA?$AA@ 000000018002bfc8     libucrt:nlsdata.obj
 0002:00008fd0       ??_C@_17LMDJEKJN@?$AAF?$AAe?$AAb?$AA?$AA@ 000000018002bfd0     libucrt:nlsdata.obj
 0002:00008fd8       ??_C@_17CKNLEDEC@?$AAM?$AAa?$AAr?$AA?$AA@ 000000018002bfd8     libucrt:nlsdata.obj
 0002:00008fe0       ??_C@_17LFPOIHDD@?$AAA?$AAp?$AAr?$AA?$AA@ 000000018002bfe0     libucrt:nlsdata.obj
 0002:00008fe8       ??_C@_17PNNKMEED@?$AAM?$AAa?$AAy?$AA?$AA@ 000000018002bfe8     libucrt:nlsdata.obj
 0002:00008ff0       ??_C@_17KCJGOCPB@?$AAJ?$AAu?$AAn?$AA?$AA@ 000000018002bff0     libucrt:nlsdata.obj
 0002:00008ff8       ??_C@_17IJPCKHK@?$AAJ?$AAu?$AAl?$AA?$AA@ 000000018002bff8     libucrt:nlsdata.obj
 0002:00009000       ??_C@_17ICPELBCN@?$AAA?$AAu?$AAg?$AA?$AA@ 000000018002c000     libucrt:nlsdata.obj
 0002:00009008       ??_C@_17HCHCOKMG@?$AAS?$AAe?$AAp?$AA?$AA@ 000000018002c008     libucrt:nlsdata.obj
 0002:00009010       ??_C@_17FNLKOI@?$AAO?$AAc?$AAt?$AA?$AA@ 000000018002c010     libucrt:nlsdata.obj
 0002:00009018       ??_C@_17BBDMLCIG@?$AAN?$AAo?$AAv?$AA?$AA@ 000000018002c018     libucrt:nlsdata.obj
 0002:00009020       ??_C@_17EGKACKIF@?$AAD?$AAe?$AAc?$AA?$AA@ 000000018002c020     libucrt:nlsdata.obj
 0002:00009028       ??_C@_1BA@EFMEIEBA@?$AAJ?$AAa?$AAn?$AAu?$AAa?$AAr?$AAy?$AA?$AA@ 000000018002c028     libucrt:nlsdata.obj
 0002:00009038       ??_C@_1BC@JGDDFFAM@?$AAF?$AAe?$AAb?$AAr?$AAu?$AAa?$AAr?$AAy?$AA?$AA@ 000000018002c038     libucrt:nlsdata.obj
 0002:00009050       ??_C@_1M@IKEENEDF@?$AAM?$AAa?$AAr?$AAc?$AAh?$AA?$AA@ 000000018002c050     libucrt:nlsdata.obj
 0002:00009060       ??_C@_1M@GJNLMHFD@?$AAA?$AAp?$AAr?$AAi?$AAl?$AA?$AA@ 000000018002c060     libucrt:nlsdata.obj
 0002:00009070       ??_C@_19EPFLPGAP@?$AAJ?$AAu?$AAn?$AAe?$AA?$AA@ 000000018002c070     libucrt:nlsdata.obj
 0002:00009080       ??_C@_19BIFMLPCD@?$AAJ?$AAu?$AAl?$AAy?$AA?$AA@ 000000018002c080     libucrt:nlsdata.obj
 0002:00009090       ??_C@_1O@PAHLKOAC@?$AAA?$AAu?$AAg?$AAu?$AAs?$AAt?$AA?$AA@ 000000018002c090     libucrt:nlsdata.obj
 0002:000090a0       ??_C@_1BE@DKAAMBJL@?$AAS?$AAe?$AAp?$AAt?$AAe?$AAm?$AAb?$AAe?$AAr?$AA?$AA@ 000000018002c0a0     libucrt:nlsdata.obj
 0002:000090b8       ??_C@_1BA@EPANDLNG@?$AAO?$AAc?$AAt?$AAo?$AAb?$AAe?$AAr?$AA?$AA@ 000000018002c0b8     libucrt:nlsdata.obj
 0002:000090c8       ??_C@_1BC@BGLIFPF@?$AAN?$AAo?$AAv?$AAe?$AAm?$AAb?$AAe?$AAr?$AA?$AA@ 000000018002c0c8     libucrt:nlsdata.obj
 0002:000090e0       ??_C@_1BC@FEMKIFH@?$AAD?$AAe?$AAc?$AAe?$AAm?$AAb?$AAe?$AAr?$AA?$AA@ 000000018002c0e0     libucrt:nlsdata.obj
 0002:000090f4       ??_C@_15ODEHAHHF@?$AAA?$AAM?$AA?$AA@ 000000018002c0f4     libucrt:nlsdata.obj
 0002:000090fc       ??_C@_15CLMNNGEL@?$AAP?$AAM?$AA?$AA@ 000000018002c0fc     libucrt:nlsdata.obj
 0002:00009108       ??_C@_1BC@IEBCMHCM@?$AAM?$AAM?$AA?1?$AAd?$AAd?$AA?1?$AAy?$AAy?$AA?$AA@ 000000018002c108     libucrt:nlsdata.obj
 0002:00009120       ??_C@_1CI@KNAKOEBC@?$AAd?$AAd?$AAd?$AAd?$AA?0?$AA?5?$AAM?$AAM?$AAM?$AAM?$AA?5?$AAd?$AAd?$AA?0?$AA?5?$AAy?$AAy?$AAy?$AAy?$AA?$AA@ 000000018002c120     libucrt:nlsdata.obj
 0002:00009148       ??_C@_1BC@GDGBMEMK@?$AAH?$AAH?$AA?3?$AAm?$AAm?$AA?3?$AAs?$AAs?$AA?$AA@ 000000018002c148     libucrt:nlsdata.obj
 0002:00009200       ??_C@_1EG@CNNIPFIM@?$AAa?$AAp?$AAi?$AA?9?$AAm?$AAs?$AA?9?$AAw?$AAi?$AAn?$AA?9?$AAa?$AAp?$AAp?$AAm?$AAo?$AAd?$AAe?$AAl?$AA?9?$AAr?$AAu?$AAn?$AAt?$AAi?$AAm?$AAe?$AA?9?$AAl?$AA1?$AA?9?$AA1@ 000000018002c200     libucrt:winapi_thunks.obj
 0002:00009250       ??_C@_1EA@JGEFHKEI@?$AAa?$AAp?$AAi?$AA?9?$AAm?$AAs?$AA?9?$AAw?$AAi?$AAn?$AA?9?$AAc?$AAo?$AAr?$AAe?$AA?9?$AAd?$AAa?$AAt?$AAe?$AAt?$AAi?$AAm?$AAe?$AA?9?$AAl?$AA1?$AA?9?$AA1?$AA?9?$AA1?$AA?$AA@ 000000018002c250     libucrt:winapi_thunks.obj
 0002:00009290       ??_C@_1DI@GCIAAENM@?$AAa?$AAp?$AAi?$AA?9?$AAm?$AAs?$AA?9?$AAw?$AAi?$AAn?$AA?9?$AAc?$AAo?$AAr?$AAe?$AA?9?$AAf?$AAi?$AAl?$AAe?$AA?9?$AAl?$AA2?$AA?9?$AA1?$AA?9?$AA1?$AA?$AA@ 000000018002c290     libucrt:winapi_thunks.obj
 0002:000092d0       ??_C@_1EI@MPIAOHOC@?$AAa?$AAp?$AAi?$AA?9?$AAm?$AAs?$AA?9?$AAw?$AAi?$AAn?$AA?9?$AAc?$AAo?$AAr?$AAe?$AA?9?$AAl?$AAo?$AAc?$AAa?$AAl?$AAi?$AAz?$AAa?$AAt?$AAi?$AAo?$AAn?$AA?9?$AAl?$AA1?$AA?9@ 000000018002c2d0     libucrt:winapi_thunks.obj
 0002:00009320       ??_C@_1FK@FPHCKFIE@?$AAa?$AAp?$AAi?$AA?9?$AAm?$AAs?$AA?9?$AAw?$AAi?$AAn?$AA?9?$AAc?$AAo?$AAr?$AAe?$AA?9?$AAl?$AAo?$AAc?$AAa?$AAl?$AAi?$AAz?$AAa?$AAt?$AAi?$AAo?$AAn?$AA?9?$AAo?$AAb?$AAs@ 000000018002c320     libucrt:winapi_thunks.obj
 0002:00009380       ??_C@_1EM@DILCGIIO@?$AAa?$AAp?$AAi?$AA?9?$AAm?$AAs?$AA?9?$AAw?$AAi?$AAn?$AA?9?$AAc?$AAo?$AAr?$AAe?$AA?9?$AAp?$AAr?$AAo?$AAc?$AAe?$AAs?$AAs?$AAt?$AAh?$AAr?$AAe?$AAa?$AAd?$AAs?$AA?9?$AAl@ 000000018002c380     libucrt:winapi_thunks.obj
 0002:000093d0       ??_C@_1DM@LNCGDDPN@?$AAa?$AAp?$AAi?$AA?9?$AAm?$AAs?$AA?9?$AAw?$AAi?$AAn?$AA?9?$AAc?$AAo?$AAr?$AAe?$AA?9?$AAs?$AAt?$AAr?$AAi?$AAn?$AAg?$AA?9?$AAl?$AA1?$AA?9?$AA1?$AA?9?$AA0?$AA?$AA@ 000000018002c3d0     libucrt:winapi_thunks.obj
 0002:00009410       ??_C@_1DO@FPAPJEMD@?$AAa?$AAp?$AAi?$AA?9?$AAm?$AAs?$AA?9?$AAw?$AAi?$AAn?$AA?9?$AAc?$AAo?$AAr?$AAe?$AA?9?$AAs?$AAy?$AAs?$AAi?$AAn?$AAf?$AAo?$AA?9?$AAl?$AA1?$AA?9?$AA2?$AA?9?$AA1?$AA?$AA@ 000000018002c410     libucrt:winapi_thunks.obj
 0002:00009450       ??_C@_1DK@NDHNAHIO@?$AAa?$AAp?$AAi?$AA?9?$AAm?$AAs?$AA?9?$AAw?$AAi?$AAn?$AA?9?$AAc?$AAo?$AAr?$AAe?$AA?9?$AAw?$AAi?$AAn?$AAr?$AAt?$AA?9?$AAl?$AA1?$AA?9?$AA1?$AA?9?$AA0?$AA?$AA@ 000000018002c450     libucrt:winapi_thunks.obj
 0002:00009490       ??_C@_1DM@KGHDGBCM@?$AAa?$AAp?$AAi?$AA?9?$AAm?$AAs?$AA?9?$AAw?$AAi?$AAn?$AA?9?$AAc?$AAo?$AAr?$AAe?$AA?9?$AAx?$AAs?$AAt?$AAa?$AAt?$AAe?$AA?9?$AAl?$AA2?$AA?9?$AA1?$AA?9?$AA0?$AA?$AA@ 000000018002c490     libucrt:winapi_thunks.obj
 0002:000094d0       ??_C@_1EO@IJIOEFOH@?$AAa?$AAp?$AAi?$AA?9?$AAm?$AAs?$AA?9?$AAw?$AAi?$AAn?$AA?9?$AAr?$AAt?$AAc?$AAo?$AAr?$AAe?$AA?9?$AAn?$AAt?$AAu?$AAs?$AAe?$AAr?$AA?9?$AAw?$AAi?$AAn?$AAd?$AAo?$AAw?$AA?9@ 000000018002c4d0     libucrt:winapi_thunks.obj
 0002:00009520       ??_C@_1FG@HHGEKANL@?$AAa?$AAp?$AAi?$AA?9?$AAm?$AAs?$AA?9?$AAw?$AAi?$AAn?$AA?9?$AAs?$AAe?$AAc?$AAu?$AAr?$AAi?$AAt?$AAy?$AA?9?$AAs?$AAy?$AAs?$AAt?$AAe?$AAm?$AAf?$AAu?$AAn?$AAc?$AAt?$AAi@ 000000018002c520     libucrt:winapi_thunks.obj
 0002:00009580       ??_C@_1FG@NCKKOLKO@?$AAe?$AAx?$AAt?$AA?9?$AAm?$AAs?$AA?9?$AAw?$AAi?$AAn?$AA?9?$AAk?$AAe?$AAr?$AAn?$AAe?$AAl?$AA3?$AA2?$AA?9?$AAp?$AAa?$AAc?$AAk?$AAa?$AAg?$AAe?$AA?9?$AAc?$AAu?$AAr?$AAr@ 000000018002c580     libucrt:winapi_thunks.obj
 0002:000095e0       ??_C@_1EG@DBIOJECG@?$AAe?$AAx?$AAt?$AA?9?$AAm?$AAs?$AA?9?$AAw?$AAi?$AAn?$AA?9?$AAn?$AAt?$AAu?$AAs?$AAe?$AAr?$AA?9?$AAd?$AAi?$AAa?$AAl?$AAo?$AAg?$AAb?$AAo?$AAx?$AA?9?$AAl?$AA1?$AA?9?$AA1@ 000000018002c5e0     libucrt:winapi_thunks.obj
 0002:00009630       ??_C@_1EO@FIHMJCLF@?$AAe?$AAx?$AAt?$AA?9?$AAm?$AAs?$AA?9?$AAw?$AAi?$AAn?$AA?9?$AAn?$AAt?$AAu?$AAs?$AAe?$AAr?$AA?9?$AAw?$AAi?$AAn?$AAd?$AAo?$AAw?$AAs?$AAt?$AAa?$AAt?$AAi?$AAo?$AAn?$AA?9@ 000000018002c630     libucrt:winapi_thunks.obj
 0002:00009680       ??_C@_1O@BCCLBEOE@?$AAu?$AAs?$AAe?$AAr?$AA3?$AA2?$AA?$AA@ 000000018002c680     libucrt:winapi_thunks.obj
 0002:000096a0       ??_C@_0BE@LJANKFHF@EnumSystemLocalesEx?$AA@ 000000018002c6a0     libucrt:winapi_thunks.obj
 0002:000096f0       ??_C@_0BJ@PBCCBIPI@GetUserDefaultLocaleName?$AA@ 000000018002c6f0     libucrt:winapi_thunks.obj
 0002:00009720       ??_C@_0BC@CELBKLLA@IsValidLocaleName?$AA@ 000000018002c720     libucrt:winapi_thunks.obj
 0002:00009748       ??_C@_0BB@CDHDDLLP@LCIDToLocaleName?$AA@ 000000018002c748     libucrt:winapi_thunks.obj
 0002:00009768       ??_C@_0BB@HBDEELFH@LocaleNameToLCID?$AA@ 000000018002c768     libucrt:winapi_thunks.obj
 0002:0000977c       ??_C@_03KHJOGHMM@exp?$AA@  000000018002c77c     libucrt:fpexcept.obj
 0002:00009780       ??_C@_03JGHBODFD@pow?$AA@  000000018002c780     libucrt:fpexcept.obj
 0002:00009784       ??_C@_05HGHHAHAP@log10?$AA@ 000000018002c784     libucrt:fpexcept.obj
 0002:00009790       __log_256_lead             000000018002c790     libucrt:log_256_lead_tail_table.obj
 0002:00009fa0       __log_256_tail             000000018002cfa0     libucrt:log_256_lead_tail_table.obj
 0002:0000a7b0       __two_to_jby64_head_table  000000018002d7b0     libucrt:two_to_jby64_head_tail_table.obj
 0002:0000a9b0       __two_to_jby64_tail_table  000000018002d9b0     libucrt:two_to_jby64_head_tail_table.obj
 0002:0000abb0       ??_C@_04MBFDLNIM@powf?$AA@ 000000018002dbb0     libucrt:pow_special.obj
 0002:0000abc0       __two_to_jby64_table       000000018002dbc0     libucrt:two_to_jby64_table.obj
 0002:0000adc0       __log_F_inv_qword          000000018002ddc0     libucrt:log_f_inv_qword_table.obj
 0002:0000b5f0       __acrt_rg_language         000000018002e5f0     libucrt:get_qualified_locale.obj
 0002:0000ba00       __acrt_rg_language_count   000000018002ea00     libucrt:get_qualified_locale.obj
 0002:0000ba10       __acrt_rg_country          000000018002ea10     libucrt:get_qualified_locale.obj
 0002:0000bb80       __acrt_rg_country_count    000000018002eb80     libucrt:get_qualified_locale.obj
 0002:0000bb88       ??_C@_1BC@LLOKLNP@?$AAa?$AAm?$AAe?$AAr?$AAi?$AAc?$AAa?$AAn?$AA?$AA@ 000000018002eb88     libucrt:get_qualified_locale.obj
 0002:0000bba0       ??_C@_1CC@HEIGCDGG@?$AAa?$AAm?$AAe?$AAr?$AAi?$AAc?$AAa?$AAn?$AA?5?$AAe?$AAn?$AAg?$AAl?$AAi?$AAs?$AAh?$AA?$AA@ 000000018002eba0     libucrt:get_qualified_locale.obj
 0002:0000bbc8       ??_C@_1CC@IHCNOMIN@?$AAa?$AAm?$AAe?$AAr?$AAi?$AAc?$AAa?$AAn?$AA?9?$AAe?$AAn?$AAg?$AAl?$AAi?$AAs?$AAh?$AA?$AA@ 000000018002ebc8     libucrt:get_qualified_locale.obj
 0002:0000bbf0       ??_C@_1BG@GKAGPCGG@?$AAa?$AAu?$AAs?$AAt?$AAr?$AAa?$AAl?$AAi?$AAa?$AAn?$AA?$AA@ 000000018002ebf0     libucrt:get_qualified_locale.obj
 0002:0000bc08       ??_C@_1BA@GMENCENF@?$AAb?$AAe?$AAl?$AAg?$AAi?$AAa?$AAn?$AA?$AA@ 000000018002ec08     libucrt:get_qualified_locale.obj
 0002:0000bc18       ??_C@_1BC@PJMIIAAN@?$AAc?$AAa?$AAn?$AAa?$AAd?$AAi?$AAa?$AAn?$AA?$AA@ 000000018002ec18     libucrt:get_qualified_locale.obj
 0002:0000bc30       ??_C@_17NOIMNFBF@?$AAc?$AAh?$AAh?$AA?$AA@ 000000018002ec30     libucrt:get_qualified_locale.obj
 0002:0000bc38       ??_C@_17GGDALCHA@?$AAc?$AAh?$AAi?$AA?$AA@ 000000018002ec38     libucrt:get_qualified_locale.obj
 0002:0000bc40       ??_C@_1BA@NPNJKIBL@?$AAc?$AAh?$AAi?$AAn?$AAe?$AAs?$AAe?$AA?$AA@ 000000018002ec40     libucrt:get_qualified_locale.obj
 0002:0000bc50       ??_C@_1CC@DINBAMMJ@?$AAc?$AAh?$AAi?$AAn?$AAe?$AAs?$AAe?$AA?9?$AAh?$AAo?$AAn?$AAg?$AAk?$AAo?$AAn?$AAg?$AA?$AA@ 000000018002ec50     libucrt:get_qualified_locale.obj
 0002:0000bc78       ??_C@_1CG@IOBJPACO@?$AAc?$AAh?$AAi?$AAn?$AAe?$AAs?$AAe?$AA?9?$AAs?$AAi?$AAm?$AAp?$AAl?$AAi?$AAf?$AAi?$AAe?$AAd?$AA?$AA@ 000000018002ec78     libucrt:get_qualified_locale.obj
 0002:0000bca0       ??_C@_1CE@GAJNDCKG@?$AAc?$AAh?$AAi?$AAn?$AAe?$AAs?$AAe?$AA?9?$AAs?$AAi?$AAn?$AAg?$AAa?$AAp?$AAo?$AAr?$AAe?$AA?$AA@ 000000018002eca0     libucrt:get_qualified_locale.obj
 0002:0000bcc8       ??_C@_1CI@PAJPIOOD@?$AAc?$AAh?$AAi?$AAn?$AAe?$AAs?$AAe?$AA?9?$AAt?$AAr?$AAa?$AAd?$AAi?$AAt?$AAi?$AAo?$AAn?$AAa?$AAl?$AA?$AA@ 000000018002ecc8     libucrt:get_qualified_locale.obj
 0002:0000bcf0       ??_C@_1BM@NILJBMMD@?$AAd?$AAu?$AAt?$AAc?$AAh?$AA?9?$AAb?$AAe?$AAl?$AAg?$AAi?$AAa?$AAn?$AA?$AA@ 000000018002ecf0     libucrt:get_qualified_locale.obj
 0002:0000bd10       ??_C@_1CC@OOJPJNEJ@?$AAe?$AAn?$AAg?$AAl?$AAi?$AAs?$AAh?$AA?9?$AAa?$AAm?$AAe?$AAr?$AAi?$AAc?$AAa?$AAn?$AA?$AA@ 000000018002ed10     libucrt:get_qualified_locale.obj
 0002:0000bd38       ??_C@_1BI@IOLFEEM@?$AAe?$AAn?$AAg?$AAl?$AAi?$AAs?$AAh?$AA?9?$AAa?$AAu?$AAs?$AA?$AA@ 000000018002ed38     libucrt:get_qualified_locale.obj
 0002:0000bd50       ??_C@_1BO@HFFNLENJ@?$AAe?$AAn?$AAg?$AAl?$AAi?$AAs?$AAh?$AA?9?$AAb?$AAe?$AAl?$AAi?$AAz?$AAe?$AA?$AA@ 000000018002ed50     libucrt:get_qualified_locale.obj
 0002:0000bd70       ??_C@_1BI@HAPKJMPO@?$AAe?$AAn?$AAg?$AAl?$AAi?$AAs?$AAh?$AA?9?$AAc?$AAa?$AAn?$AA?$AA@ 000000018002ed70     libucrt:get_qualified_locale.obj
 0002:0000bd88       ??_C@_1CE@HLNDMIOJ@?$AAe?$AAn?$AAg?$AAl?$AAi?$AAs?$AAh?$AA?9?$AAc?$AAa?$AAr?$AAi?$AAb?$AAb?$AAe?$AAa?$AAn?$AA?$AA@ 000000018002ed88     libucrt:get_qualified_locale.obj
 0002:0000bdb0       ??_C@_1BI@LDHJHHAC@?$AAe?$AAn?$AAg?$AAl?$AAi?$AAs?$AAh?$AA?9?$AAi?$AAr?$AAe?$AA?$AA@ 000000018002edb0     libucrt:get_qualified_locale.obj
 0002:0000bdc8       ??_C@_1CA@NJMMCFOC@?$AAe?$AAn?$AAg?$AAl?$AAi?$AAs?$AAh?$AA?9?$AAj?$AAa?$AAm?$AAa?$AAi?$AAc?$AAa?$AA?$AA@ 000000018002edc8     libucrt:get_qualified_locale.obj
 0002:0000bde8       ??_C@_1BG@BHJEBBGG@?$AAe?$AAn?$AAg?$AAl?$AAi?$AAs?$AAh?$AA?9?$AAn?$AAz?$AA?$AA@ 000000018002ede8     libucrt:get_qualified_locale.obj
 0002:0000be00       ??_C@_1CK@FGOEJJCO@?$AAe?$AAn?$AAg?$AAl?$AAi?$AAs?$AAh?$AA?9?$AAs?$AAo?$AAu?$AAt?$AAh?$AA?5?$AAa?$AAf?$AAr?$AAi?$AAc?$AAa?$AA?$AA@ 000000018002ee00     libucrt:get_qualified_locale.obj
 0002:0000be30       ??_C@_1DE@PDBJPCJ@?$AAe?$AAn?$AAg?$AAl?$AAi?$AAs?$AAh?$AA?9?$AAt?$AAr?$AAi?$AAn?$AAi?$AAd?$AAa?$AAd?$AA?5?$AAy?$AA?5?$AAt?$AAo?$AAb?$AAa?$AAg?$AAo?$AA?$AA@ 000000018002ee30     libucrt:get_qualified_locale.obj
 0002:0000be68       ??_C@_1BG@JGCANDME@?$AAe?$AAn?$AAg?$AAl?$AAi?$AAs?$AAh?$AA?9?$AAu?$AAk?$AA?$AA@ 000000018002ee68     libucrt:get_qualified_locale.obj
 0002:0000be80       ??_C@_1BG@DINKMLE@?$AAe?$AAn?$AAg?$AAl?$AAi?$AAs?$AAh?$AA?9?$AAu?$AAs?$AA?$AA@ 000000018002ee80     libucrt:get_qualified_locale.obj
 0002:0000be98       ??_C@_1BI@NMFDBHJE@?$AAe?$AAn?$AAg?$AAl?$AAi?$AAs?$AAh?$AA?9?$AAu?$AAs?$AAa?$AA?$AA@ 000000018002ee98     libucrt:get_qualified_locale.obj
 0002:0000beb0       ??_C@_1BO@OIHKJKII@?$AAf?$AAr?$AAe?$AAn?$AAc?$AAh?$AA?9?$AAb?$AAe?$AAl?$AAg?$AAi?$AAa?$AAn?$AA?$AA@ 000000018002eeb0     libucrt:get_qualified_locale.obj
 0002:0000bed0       ??_C@_1CA@NKAELJKI@?$AAf?$AAr?$AAe?$AAn?$AAc?$AAh?$AA?9?$AAc?$AAa?$AAn?$AAa?$AAd?$AAi?$AAa?$AAn?$AA?$AA@ 000000018002eed0     libucrt:get_qualified_locale.obj
 0002:0000bef0       ??_C@_1CE@MGKCNLGN@?$AAf?$AAr?$AAe?$AAn?$AAc?$AAh?$AA?9?$AAl?$AAu?$AAx?$AAe?$AAm?$AAb?$AAo?$AAu?$AAr?$AAg?$AA?$AA@ 000000018002eef0     libucrt:get_qualified_locale.obj
 0002:0000bf18       ??_C@_1BK@CEGEAILM@?$AAf?$AAr?$AAe?$AAn?$AAc?$AAh?$AA?9?$AAs?$AAw?$AAi?$AAs?$AAs?$AA?$AA@ 000000018002ef18     libucrt:get_qualified_locale.obj
 0002:0000bf38       ??_C@_1CA@PAFKEOCC@?$AAg?$AAe?$AAr?$AAm?$AAa?$AAn?$AA?9?$AAa?$AAu?$AAs?$AAt?$AAr?$AAi?$AAa?$AAn?$AA?$AA@ 000000018002ef38     libucrt:get_qualified_locale.obj
 0002:0000bf58       ??_C@_1CI@HCFHGOFD@?$AAg?$AAe?$AAr?$AAm?$AAa?$AAn?$AA?9?$AAl?$AAi?$AAc?$AAh?$AAt?$AAe?$AAn?$AAs?$AAt?$AAe?$AAi?$AAn?$AA?$AA@ 000000018002ef58     libucrt:get_qualified_locale.obj
 0002:0000bf80       ??_C@_1CE@FEDDNPDG@?$AAg?$AAe?$AAr?$AAm?$AAa?$AAn?$AA?9?$AAl?$AAu?$AAx?$AAe?$AAm?$AAb?$AAo?$AAu?$AAr?$AAg?$AA?$AA@ 000000018002ef80     libucrt:get_qualified_locale.obj
 0002:0000bfa8       ??_C@_1BK@LIMINNMN@?$AAg?$AAe?$AAr?$AAm?$AAa?$AAn?$AA?9?$AAs?$AAw?$AAi?$AAs?$AAs?$AA?$AA@ 000000018002efa8     libucrt:get_qualified_locale.obj
 0002:0000bfc8       ??_C@_1BM@LGMDBEPD@?$AAi?$AAr?$AAi?$AAs?$AAh?$AA?9?$AAe?$AAn?$AAg?$AAl?$AAi?$AAs?$AAh?$AA?$AA@ 000000018002efc8     libucrt:get_qualified_locale.obj
 0002:0000bfe8       ??_C@_1BM@NNCFBAEE@?$AAi?$AAt?$AAa?$AAl?$AAi?$AAa?$AAn?$AA?9?$AAs?$AAw?$AAi?$AAs?$AAs?$AA?$AA@ 000000018002efe8     libucrt:get_qualified_locale.obj
 0002:0000c008       ??_C@_1BE@FEDJNPIB@?$AAn?$AAo?$AAr?$AAw?$AAe?$AAg?$AAi?$AAa?$AAn?$AA?$AA@ 000000018002f008     libucrt:get_qualified_locale.obj
 0002:0000c020       ??_C@_1CC@CILKDEIE@?$AAn?$AAo?$AAr?$AAw?$AAe?$AAg?$AAi?$AAa?$AAn?$AA?9?$AAb?$AAo?$AAk?$AAm?$AAa?$AAl?$AA?$AA@ 000000018002f020     libucrt:get_qualified_locale.obj
 0002:0000c048       ??_C@_1CE@DHMMHEPL@?$AAn?$AAo?$AAr?$AAw?$AAe?$AAg?$AAi?$AAa?$AAn?$AA?9?$AAn?$AAy?$AAn?$AAo?$AAr?$AAs?$AAk?$AA?$AA@ 000000018002f048     libucrt:get_qualified_locale.obj
 0002:0000c070       ??_C@_1CK@OPNMHECD@?$AAp?$AAo?$AAr?$AAt?$AAu?$AAg?$AAu?$AAe?$AAs?$AAe?$AA?9?$AAb?$AAr?$AAa?$AAz?$AAi?$AAl?$AAi?$AAa?$AAn?$AA?$AA@ 000000018002f070     libucrt:get_qualified_locale.obj
 0002:0000c0a0       ??_C@_1CE@KEEHCDB@?$AAs?$AAp?$AAa?$AAn?$AAi?$AAs?$AAh?$AA?9?$AAa?$AAr?$AAg?$AAe?$AAn?$AAt?$AAi?$AAn?$AAa?$AA?$AA@ 000000018002f0a0     libucrt:get_qualified_locale.obj
 0002:0000c0c8       ??_C@_1CA@GIAOLHJD@?$AAs?$AAp?$AAa?$AAn?$AAi?$AAs?$AAh?$AA?9?$AAb?$AAo?$AAl?$AAi?$AAv?$AAi?$AAa?$AA?$AA@ 000000018002f0c8     libucrt:get_qualified_locale.obj
 0002:0000c0e8       ??_C@_1BM@OJNDFNPD@?$AAs?$AAp?$AAa?$AAn?$AAi?$AAs?$AAh?$AA?9?$AAc?$AAh?$AAi?$AAl?$AAe?$AA?$AA@ 000000018002f0e8     libucrt:get_qualified_locale.obj
 0002:0000c108       ??_C@_1CC@OCOLPALL@?$AAs?$AAp?$AAa?$AAn?$AAi?$AAs?$AAh?$AA?9?$AAc?$AAo?$AAl?$AAo?$AAm?$AAb?$AAi?$AAa?$AA?$AA@ 000000018002f108     libucrt:get_qualified_locale.obj
 0002:0000c130       ??_C@_1CG@BPOFMKBB@?$AAs?$AAp?$AAa?$AAn?$AAi?$AAs?$AAh?$AA?9?$AAc?$AAo?$AAs?$AAt?$AAa?$AA?5?$AAr?$AAi?$AAc?$AAa?$AA?$AA@ 000000018002f130     libucrt:get_qualified_locale.obj
 0002:0000c158       ??_C@_1DG@IGOBAPBB@?$AAs?$AAp?$AAa?$AAn?$AAi?$AAs?$AAh?$AA?9?$AAd?$AAo?$AAm?$AAi?$AAn?$AAi?$AAc?$AAa?$AAn?$AA?5?$AAr?$AAe?$AAp?$AAu?$AAb?$AAl?$AAi?$AAc?$AA?$AA@ 000000018002f158     libucrt:get_qualified_locale.obj
 0002:0000c190       ??_C@_1CA@JHAPGEGI@?$AAs?$AAp?$AAa?$AAn?$AAi?$AAs?$AAh?$AA?9?$AAe?$AAc?$AAu?$AAa?$AAd?$AAo?$AAr?$AA?$AA@ 000000018002f190     libucrt:get_qualified_locale.obj
 0002:0000c1b0       ??_C@_1CI@LAPALJPP@?$AAs?$AAp?$AAa?$AAn?$AAi?$AAs?$AAh?$AA?9?$AAe?$AAl?$AA?5?$AAs?$AAa?$AAl?$AAv?$AAa?$AAd?$AAo?$AAr?$AA?$AA@ 000000018002f1b0     libucrt:get_qualified_locale.obj
 0002:0000c1d8       ??_C@_1CE@PDGBOFOM@?$AAs?$AAp?$AAa?$AAn?$AAi?$AAs?$AAh?$AA?9?$AAg?$AAu?$AAa?$AAt?$AAe?$AAm?$AAa?$AAl?$AAa?$AA?$AA@ 000000018002f1d8     libucrt:get_qualified_locale.obj
 0002:0000c200       ??_C@_1CC@NBEBAODI@?$AAs?$AAp?$AAa?$AAn?$AAi?$AAs?$AAh?$AA?9?$AAh?$AAo?$AAn?$AAd?$AAu?$AAr?$AAa?$AAs?$AA?$AA@ 000000018002f200     libucrt:get_qualified_locale.obj
 0002:0000c228       ??_C@_1CA@LLKGHBMF@?$AAs?$AAp?$AAa?$AAn?$AAi?$AAs?$AAh?$AA?9?$AAm?$AAe?$AAx?$AAi?$AAc?$AAa?$AAn?$AA?$AA@ 000000018002f228     libucrt:get_qualified_locale.obj
 0002:0000c248       ??_C@_1BO@LKNDOIGD@?$AAs?$AAp?$AAa?$AAn?$AAi?$AAs?$AAh?$AA?9?$AAm?$AAo?$AAd?$AAe?$AAr?$AAn?$AA?$AA@ 000000018002f248     libucrt:get_qualified_locale.obj
 0002:0000c268       ??_C@_1CE@NMDMOEEB@?$AAs?$AAp?$AAa?$AAn?$AAi?$AAs?$AAh?$AA?9?$AAn?$AAi?$AAc?$AAa?$AAr?$AAa?$AAg?$AAu?$AAa?$AA?$AA@ 000000018002f268     libucrt:get_qualified_locale.obj
 0002:0000c290       ??_C@_1BO@LLCBEJGB@?$AAs?$AAp?$AAa?$AAn?$AAi?$AAs?$AAh?$AA?9?$AAp?$AAa?$AAn?$AAa?$AAm?$AAa?$AA?$AA@ 000000018002f290     libucrt:get_qualified_locale.obj
 0002:0000c2b0       ??_C@_1CC@FKPGGIHO@?$AAs?$AAp?$AAa?$AAn?$AAi?$AAs?$AAh?$AA?9?$AAp?$AAa?$AAr?$AAa?$AAg?$AAu?$AAa?$AAy?$AA?$AA@ 000000018002f2b0     libucrt:get_qualified_locale.obj
 0002:0000c2d8       ??_C@_1BK@CDEIHOOP@?$AAs?$AAp?$AAa?$AAn?$AAi?$AAs?$AAh?$AA?9?$AAp?$AAe?$AAr?$AAu?$AA?$AA@ 000000018002f2d8     libucrt:get_qualified_locale.obj
 0002:0000c2f8       ??_C@_1CI@GAHAKKGP@?$AAs?$AAp?$AAa?$AAn?$AAi?$AAs?$AAh?$AA?9?$AAp?$AAu?$AAe?$AAr?$AAt?$AAo?$AA?5?$AAr?$AAi?$AAc?$AAo?$AA?$AA@ 000000018002f2f8     libucrt:get_qualified_locale.obj
 0002:0000c320       ??_C@_1CA@NKJBCAGP@?$AAs?$AAp?$AAa?$AAn?$AAi?$AAs?$AAh?$AA?9?$AAu?$AAr?$AAu?$AAg?$AAu?$AAa?$AAy?$AA?$AA@ 000000018002f320     libucrt:get_qualified_locale.obj
 0002:0000c340       ??_C@_1CE@ODILCONM@?$AAs?$AAp?$AAa?$AAn?$AAi?$AAs?$AAh?$AA?9?$AAv?$AAe?$AAn?$AAe?$AAz?$AAu?$AAe?$AAl?$AAa?$AA?$AA@ 000000018002f340     libucrt:get_qualified_locale.obj
 0002:0000c368       ??_C@_1CA@OBNMCGFO@?$AAs?$AAw?$AAe?$AAd?$AAi?$AAs?$AAh?$AA?9?$AAf?$AAi?$AAn?$AAl?$AAa?$AAn?$AAd?$AA?$AA@ 000000018002f368     libucrt:get_qualified_locale.obj
 0002:0000c388       ??_C@_1M@PIPDDPPI@?$AAs?$AAw?$AAi?$AAs?$AAs?$AA?$AA@ 000000018002f388     libucrt:get_qualified_locale.obj
 0002:0000c394       ??_C@_15GMFIMNFM@?$AAu?$AAs?$AA?$AA@ 000000018002f394     libucrt:get_qualified_locale.obj
 0002:0000c3a0       ??_C@_17HAEBFAGL@?$AAu?$AAs?$AAa?$AA?$AA@ 000000018002f3a0     libucrt:get_qualified_locale.obj
 0002:0000c3a8       ??_C@_1BA@DPFJEPHB@?$AAa?$AAm?$AAe?$AAr?$AAi?$AAc?$AAa?$AA?$AA@ 000000018002f3a8     libucrt:get_qualified_locale.obj
 0002:0000c3b8       ??_C@_1BA@ELOGGFK@?$AAb?$AAr?$AAi?$AAt?$AAa?$AAi?$AAn?$AA?$AA@ 000000018002f3b8     libucrt:get_qualified_locale.obj
 0002:0000c3c8       ??_C@_1M@GHBGIGDA@?$AAc?$AAh?$AAi?$AAn?$AAa?$AA?$AA@ 000000018002f3c8     libucrt:get_qualified_locale.obj
 0002:0000c3d8       ??_C@_1M@NCHEJOPO@?$AAc?$AAz?$AAe?$AAc?$AAh?$AA?$AA@ 000000018002f3d8     libucrt:get_qualified_locale.obj
 0002:0000c3e8       ??_C@_1BA@BKPAPBLA@?$AAe?$AAn?$AAg?$AAl?$AAa?$AAn?$AAd?$AA?$AA@ 000000018002f3e8     libucrt:get_qualified_locale.obj
 0002:0000c3f8       ??_C@_1BM@HKBCKIPC@?$AAg?$AAr?$AAe?$AAa?$AAt?$AA?5?$AAb?$AAr?$AAi?$AAt?$AAa?$AAi?$AAn?$AA?$AA@ 000000018002f3f8     libucrt:get_qualified_locale.obj
 0002:0000c418       ??_C@_1BA@PPCHPGJB@?$AAh?$AAo?$AAl?$AAl?$AAa?$AAn?$AAd?$AA?$AA@ 000000018002f418     libucrt:get_qualified_locale.obj
 0002:0000c428       ??_C@_1BE@JBMPEGDG@?$AAh?$AAo?$AAn?$AAg?$AA?9?$AAk?$AAo?$AAn?$AAg?$AA?$AA@ 000000018002f428     libucrt:get_qualified_locale.obj
 0002:0000c440       ??_C@_1BI@KOELBBPJ@?$AAn?$AAe?$AAw?$AA?9?$AAz?$AAe?$AAa?$AAl?$AAa?$AAn?$AAd?$AA?$AA@ 000000018002f440     libucrt:get_qualified_locale.obj
 0002:0000c458       ??_C@_15HIEBHAIO@?$AAn?$AAz?$AA?$AA@ 000000018002f458     libucrt:get_qualified_locale.obj
 0002:0000c460       ??_C@_1BC@CHBCPFPI@?$AAp?$AAr?$AA?5?$AAc?$AAh?$AAi?$AAn?$AAa?$AA?$AA@ 000000018002f460     libucrt:get_qualified_locale.obj
 0002:0000c478       ??_C@_1BC@JAOIIFKD@?$AAp?$AAr?$AA?9?$AAc?$AAh?$AAi?$AAn?$AAa?$AA?$AA@ 000000018002f478     libucrt:get_qualified_locale.obj
 0002:0000c490       ??_C@_1BI@BEHPPHKC@?$AAp?$AAu?$AAe?$AAr?$AAt?$AAo?$AA?9?$AAr?$AAi?$AAc?$AAo?$AA?$AA@ 000000018002f490     libucrt:get_qualified_locale.obj
 0002:0000c4a8       ??_C@_1O@PAEOFKDI@?$AAs?$AAl?$AAo?$AAv?$AAa?$AAk?$AA?$AA@ 000000018002f4a8     libucrt:get_qualified_locale.obj
 0002:0000c4b8       ??_C@_1BK@FIHMCKAM@?$AAs?$AAo?$AAu?$AAt?$AAh?$AA?5?$AAa?$AAf?$AAr?$AAi?$AAc?$AAa?$AA?$AA@ 000000018002f4b8     libucrt:get_qualified_locale.obj
 0002:0000c4d8       ??_C@_1BI@NAEOODKB@?$AAs?$AAo?$AAu?$AAt?$AAh?$AA?5?$AAk?$AAo?$AAr?$AAe?$AAa?$AA?$AA@ 000000018002f4d8     libucrt:get_qualified_locale.obj
 0002:0000c4f0       ??_C@_1BK@FBDGGIFF@?$AAs?$AAo?$AAu?$AAt?$AAh?$AA?9?$AAa?$AAf?$AAr?$AAi?$AAc?$AAa?$AA?$AA@ 000000018002f4f0     libucrt:get_qualified_locale.obj
 0002:0000c510       ??_C@_1BI@GHLEJDPK@?$AAs?$AAo?$AAu?$AAt?$AAh?$AA?9?$AAk?$AAo?$AAr?$AAe?$AAa?$AA?$AA@ 000000018002f510     libucrt:get_qualified_locale.obj
 0002:0000c528       ??_C@_1CE@PLHLOMJF@?$AAt?$AAr?$AAi?$AAn?$AAi?$AAd?$AAa?$AAd?$AA?5?$AA?$CG?$AA?5?$AAt?$AAo?$AAb?$AAa?$AAg?$AAo?$AA?$AA@ 000000018002f528     libucrt:get_qualified_locale.obj
 0002:0000c550       ??_C@_1BO@MODIMHHI@?$AAu?$AAn?$AAi?$AAt?$AAe?$AAd?$AA?9?$AAk?$AAi?$AAn?$AAg?$AAd?$AAo?$AAm?$AA?$AA@ 000000018002f550     libucrt:get_qualified_locale.obj
 0002:0000c570       ??_C@_1BM@FFHJONBJ@?$AAu?$AAn?$AAi?$AAt?$AAe?$AAd?$AA?9?$AAs?$AAt?$AAa?$AAt?$AAe?$AAs?$AA?$AA@ 000000018002f570     libucrt:get_qualified_locale.obj
 0002:0000c590       ??_C@_17DNCLJFIF@?$AAA?$AAC?$AAP?$AA?$AA@ 000000018002f590     libucrt:get_qualified_locale.obj
 0002:0000c598       ??_C@_17CIKBIHLH@?$AAO?$AAC?$AAP?$AA?$AA@ 000000018002f598     libucrt:get_qualified_locale.obj
 0002:0000c5a0       __rglangidNotDefault       000000018002f5a0     libucrt:getqloc_downlevel.obj
 0002:0000e250       ??_C@_1BA@BALFACEM@?$AAC?$AAO?$AAN?$AAO?$AAU?$AAT?$AA$?$AA?$AA@ 0000000180031250     libucrt:initcon.obj
 0002:0000e4b0       __log10_256_lead           00000001800314b0     libucrt:log10_256_lead_tail_table.obj
 0002:0000ecc0       __log10_256_tail           0000000180031cc0     libucrt:log10_256_lead_tail_table.obj
 0002:0000f4c8       ??_C@_1BK@DBDEIDLH@?$AAK?$AAE?$AAR?$AAN?$AAE?$AAL?$AA3?$AA2?$AA?4?$AAD?$AAL?$AAL?$AA?$AA@ 00000001800324c8     DelayImp:delayhlp.obj
 0002:0000f4e8       __pfnDliFailureHook2       00000001800324e8     DelayImp:delayhk1.obj
 0002:0000f610       ??_7_Ref_count_base@std@@6B@ 0000000180032610     libcpmt:excptptr.obj
 0002:0000f638       ??_7?$_Ref_count_obj_alloc@V__ExceptionPtr@@U?$_StaticAllocator@H@@@std@@6B@ 0000000180032638     libcpmt:excptptr.obj
 0002:0000f660       ??_7?$_Ref_count_obj@V__ExceptionPtr@@@std@@6B@ 0000000180032660     libcpmt:excptptr.obj
 0002:0000f6e0       _load_config_used          00000001800326e0     LIBCMT:loadcfg.obj
 0002:0000f778       ??_C@_0BA@JFNIOLAK@string?5too?5long?$AA@ 0000000180032778     rainfall.obj
 0002:0000f788       ??_C@_0BI@CFPLBAOH@invalid?5string?5position?$AA@ 0000000180032788     rainfall.obj
 0002:0000f7a0       ??_C@_0BC@BDKFLDHL@unknown?5exception?$AA@ 00000001800327a0     rainfall_node.obj
 0002:0000f7b8       ??_C@_0BA@ELKIONDK@bad?5locale?5name?$AA@ 00000001800327b8     rainfall_node.obj
 0002:0000f7c8       ??_C@_00CNPNBAHC@?$AA@     00000001800327c8     rainfall_node.obj
 0002:0000f7cc       ??_C@_02LMMGGCAJ@?3?5?$AA@ 00000001800327cc     rainfall_node.obj
 0002:0000f7d0       ??_C@_08LLGCOLLL@iostream?$AA@ 00000001800327d0     rainfall_node.obj
 0002:0000f7e0       ??_C@_0BG@PADBLCHM@iostream?5stream?5error?$AA@ 00000001800327e0     rainfall_node.obj
 0002:0000f7f8       ??_C@_0BF@PHHKMMFD@ios_base?3?3badbit?5set?$AA@ 00000001800327f8     rainfall_node.obj
 0002:0000f810       ??_C@_0BG@FMKFHCIL@ios_base?3?3failbit?5set?$AA@ 0000000180032810     rainfall_node.obj
 0002:0000f828       ??_C@_0BF@OOHOMBOF@ios_base?3?3eofbit?5set?$AA@ 0000000180032828     rainfall_node.obj
 0002:0000f840       ??_C@_0BH@GDKPCHID@Returning?5from?5C?$CL?$CL?5now?$AA@ 0000000180032840     rainfall_node.obj
 0002:0000f858       ??_C@_04OGOMFLBB@mean?$AA@ 0000000180032858     rainfall_node.obj
 0002:0000f860       ??_C@_06EIDMBNHH@median?$AA@ 0000000180032860     rainfall_node.obj
 0002:0000f868       ??_C@_0BD@JJMNFFCI@standard_deviation?$AA@ 0000000180032868     rainfall_node.obj
 0002:0000f87c       ??_C@_01EFFIKLCJ@n?$AA@    000000018003287c     rainfall_node.obj
 0002:0000f880       ??_C@_04JNIHBGGH@date?$AA@ 0000000180032880     rainfall_node.obj
 0002:0000f888       ??_C@_08OKFPMDFP@rainfall?$AA@ 0000000180032888     rainfall_node.obj
 0002:0000f898       ??_C@_08IPNLHJNB@latitude?$AA@ 0000000180032898     rainfall_node.obj
 0002:0000f8a8       ??_C@_09PHBIEJMN@longitude?$AA@ 00000001800328a8     rainfall_node.obj
 0002:0000f8b8       ??_C@_07ODIFGGLK@samples?$AA@ 00000001800328b8     rainfall_node.obj
 0002:0000f8c0       ??_C@_0N@CKMAOIMC@avg_rainfall?$AA@ 00000001800328c0     rainfall_node.obj
 0002:0000f8d0       ??_C@_0O@GFPAIDGJ@data_rainfall?$AA@ 00000001800328d0     rainfall_node.obj
 0002:0000f8e0       ??_C@_0BC@JMADHBGN@calculate_results?$AA@ 00000001800328e0     rainfall_node.obj
 0002:0000f8f8       ??_C@_0BH@DEJHBOCP@calculate_results_sync?$AA@ 00000001800328f8     rainfall_node.obj
 0002:0000f910       ??_C@_0BI@CEINNFGH@calculate_results_async?$AA@ 0000000180032910     rainfall_node.obj
 0002:0000f928       ??_C@_0BF@DKAGILJL@?4?4?2rainfall_node?4cpp?$AA@ 0000000180032928     rainfall_node.obj
 0002:0000f940       ??_C@_0BD@OLBABOEK@vector?$DMT?$DO?5too?5long?$AA@ 0000000180032940     rainfall_node.obj
 0002:0000f958       ??_7exception@stdext@@6B@  0000000180032958     rainfall_node.obj
 0002:0000f970       ??_C@_08HCOMDCCD@iojs?4exe?$AA@ 0000000180032970     win_delay_load_hook.obj
 0002:0000f980       ??_C@_08JDDNMFDB@node?4exe?$AA@ 0000000180032980     win_delay_load_hook.obj
 0002:0000f990       __pfnDliNotifyHook2        0000000180032990     win_delay_load_hook.obj
 0002:0000fa60       __real@3fe0000000000000    0000000180032a60     rainfall.obj
 0002:0000fa68       __real@43f0000000000000    0000000180032a68     rainfall.obj
 0002:0000fde8       _tls_used                  0000000180032de8     LIBCMT:tlssup.obj
 0002:0000fe10       ??_R4exception@std@@6B@    0000000180032e10     libcpmt:xthrow.obj
 0002:0000fe38       ??_R3exception@std@@8      0000000180032e38     libcpmt:xthrow.obj
 0002:0000fe50       ??_R2exception@std@@8      0000000180032e50     libcpmt:xthrow.obj
 0002:0000fe60       ??_R1A@?0A@EA@exception@std@@8 0000000180032e60     libcpmt:xthrow.obj
 0002:0000fe88       ??_R4bad_alloc@std@@6B@    0000000180032e88     libcpmt:xthrow.obj
 0002:0000feb0       ??_R3bad_alloc@std@@8      0000000180032eb0     libcpmt:xthrow.obj
 0002:0000fec8       ??_R2bad_alloc@std@@8      0000000180032ec8     libcpmt:xthrow.obj
 0002:0000fee0       ??_R1A@?0A@EA@bad_alloc@std@@8 0000000180032ee0     libcpmt:xthrow.obj
 0002:0000ff08       ??_R4logic_error@std@@6B@  0000000180032f08     libcpmt:xthrow.obj
 0002:0000ff30       ??_R3logic_error@std@@8    0000000180032f30     libcpmt:xthrow.obj
 0002:0000ff48       ??_R2logic_error@std@@8    0000000180032f48     libcpmt:xthrow.obj
 0002:0000ff60       ??_R1A@?0A@EA@logic_error@std@@8 0000000180032f60     libcpmt:xthrow.obj
 0002:0000ff88       ??_R4length_error@std@@6B@ 0000000180032f88     libcpmt:xthrow.obj
 0002:0000ffb0       ??_R3length_error@std@@8   0000000180032fb0     libcpmt:xthrow.obj
 0002:0000ffc8       ??_R2length_error@std@@8   0000000180032fc8     libcpmt:xthrow.obj
 0002:0000ffe8       ??_R1A@?0A@EA@length_error@std@@8 0000000180032fe8     libcpmt:xthrow.obj
 0002:00010010       ??_R4out_of_range@std@@6B@ 0000000180033010     libcpmt:xthrow.obj
 0002:00010038       ??_R3out_of_range@std@@8   0000000180033038     libcpmt:xthrow.obj
 0002:00010050       ??_R2out_of_range@std@@8   0000000180033050     libcpmt:xthrow.obj
 0002:00010070       ??_R1A@?0A@EA@out_of_range@std@@8 0000000180033070     libcpmt:xthrow.obj
 0002:00010098       ??_R4runtime_error@std@@6B@ 0000000180033098     libcpmt:xthrow.obj
 0002:000100c0       ??_R3runtime_error@std@@8  00000001800330c0     libcpmt:xthrow.obj
 0002:000100d8       ??_R2runtime_error@std@@8  00000001800330d8     libcpmt:xthrow.obj
 0002:000100f0       ??_R1A@?0A@EA@runtime_error@std@@8 00000001800330f0     libcpmt:xthrow.obj
 0002:00010118       ??_R4_Facet_base@std@@6B@  0000000180033118     libcpmt:locale0.obj
 0002:00010140       ??_R3_Facet_base@std@@8    0000000180033140     libcpmt:locale0.obj
 0002:00010158       ??_R2_Facet_base@std@@8    0000000180033158     libcpmt:locale0.obj
 0002:00010168       ??_R1A@?0A@EA@_Facet_base@std@@8 0000000180033168     libcpmt:locale0.obj
 0002:00010190       ??_R4_Locimp@locale@std@@6B@ 0000000180033190     libcpmt:locale0.obj
 0002:000101b8       ??_R3_Locimp@locale@std@@8 00000001800331b8     libcpmt:locale0.obj
 0002:000101d0       ??_R2_Locimp@locale@std@@8 00000001800331d0     libcpmt:locale0.obj
 0002:000101f8       ??_R1A@?0A@EA@_Locimp@locale@std@@8 00000001800331f8     libcpmt:locale0.obj
 0002:00010220       ??_R1A@?0A@EA@facet@locale@std@@8 0000000180033220     libcpmt:locale0.obj
 0002:00010248       ??_R3facet@locale@std@@8   0000000180033248     libcpmt:locale0.obj
 0002:00010260       ??_R2facet@locale@std@@8   0000000180033260     libcpmt:locale0.obj
 0002:00010280       ??_R17?0A@EA@_Crt_new_delete@std@@8 0000000180033280     libcpmt:locale0.obj
 0002:000102a8       ??_R3_Crt_new_delete@std@@8 00000001800332a8     libcpmt:locale0.obj
 0002:000102c0       ??_R2_Crt_new_delete@std@@8 00000001800332c0     libcpmt:locale0.obj
 0002:000102d0       ??_R1A@?0A@EA@_Crt_new_delete@std@@8 00000001800332d0     libcpmt:locale0.obj
 0002:000102f8       ??_R4ios_base@std@@6B@     00000001800332f8     libcpmt:cerr.obj
 0002:00010320       ??_R3ios_base@std@@8       0000000180033320     libcpmt:cerr.obj
 0002:00010338       ??_R2ios_base@std@@8       0000000180033338     libcpmt:cerr.obj
 0002:00010350       ??_R1A@?0A@EA@ios_base@std@@8 0000000180033350     libcpmt:cerr.obj
 0002:00010378       ??_R17?0A@EA@?$_Iosb@H@std@@8 0000000180033378     libcpmt:cerr.obj
 0002:000103a0       ??_R3?$_Iosb@H@std@@8      00000001800333a0     libcpmt:cerr.obj
 0002:000103b8       ??_R2?$_Iosb@H@std@@8      00000001800333b8     libcpmt:cerr.obj
 0002:000103c8       ??_R1A@?0A@EA@?$_Iosb@H@std@@8 00000001800333c8     libcpmt:cerr.obj
 0002:000103f0       ??_R4?$basic_ios@DU?$char_traits@D@std@@@std@@6B@ 00000001800333f0     libcpmt:cerr.obj
 0002:00010418       ??_R3?$basic_ios@DU?$char_traits@D@std@@@std@@8 0000000180033418     libcpmt:cerr.obj
 0002:00010430       ??_R2?$basic_ios@DU?$char_traits@D@std@@@std@@8 0000000180033430     libcpmt:cerr.obj
 0002:00010450       ??_R1A@?0A@EA@?$basic_ios@DU?$char_traits@D@std@@@std@@8 0000000180033450     libcpmt:cerr.obj
 0002:00010478       ??_R4?$basic_streambuf@DU?$char_traits@D@std@@@std@@6B@ 0000000180033478     libcpmt:cerr.obj
 0002:000104a0       ??_R3?$basic_streambuf@DU?$char_traits@D@std@@@std@@8 00000001800334a0     libcpmt:cerr.obj
 0002:000104b8       ??_R2?$basic_streambuf@DU?$char_traits@D@std@@@std@@8 00000001800334b8     libcpmt:cerr.obj
 0002:000104c8       ??_R1A@?0A@EA@?$basic_streambuf@DU?$char_traits@D@std@@@std@@8 00000001800334c8     libcpmt:cerr.obj
 0002:000104f0       ??_R4?$basic_ostream@DU?$char_traits@D@std@@@std@@6B@ 00000001800334f0     libcpmt:cerr.obj
 0002:00010518       ??_R3?$basic_ostream@DU?$char_traits@D@std@@@std@@8 0000000180033518     libcpmt:cerr.obj
 0002:00010530       ??_R2?$basic_ostream@DU?$char_traits@D@std@@@std@@8 0000000180033530     libcpmt:cerr.obj
 0002:00010558       ??_R1A@?0A@EA@?$basic_ostream@DU?$char_traits@D@std@@@std@@8 0000000180033558     libcpmt:cerr.obj
 0002:00010580       ??_R1A@A@3FA@?$basic_ios@DU?$char_traits@D@std@@@std@@8 0000000180033580     libcpmt:cerr.obj
 0002:000105a8       ??_R1A@A@3EA@ios_base@std@@8 00000001800335a8     libcpmt:cerr.obj
 0002:000105d0       ??_R17A@3EA@?$_Iosb@H@std@@8 00000001800335d0     libcpmt:cerr.obj
 0002:000105f8       ??_R4?$basic_filebuf@DU?$char_traits@D@std@@@std@@6B@ 00000001800335f8     libcpmt:cerr.obj
 0002:00010620       ??_R3?$basic_filebuf@DU?$char_traits@D@std@@@std@@8 0000000180033620     libcpmt:cerr.obj
 0002:00010638       ??_R2?$basic_filebuf@DU?$char_traits@D@std@@@std@@8 0000000180033638     libcpmt:cerr.obj
 0002:00010650       ??_R1A@?0A@EA@?$basic_filebuf@DU?$char_traits@D@std@@@std@@8 0000000180033650     libcpmt:cerr.obj
 0002:00010678       ??_R4bad_cast@std@@6B@     0000000180033678     libcpmt:cerr.obj
 0002:000106a0       ??_R3bad_cast@std@@8       00000001800336a0     libcpmt:cerr.obj
 0002:000106b8       ??_R2bad_cast@std@@8       00000001800336b8     libcpmt:cerr.obj
 0002:000106d0       ??_R1A@?0A@EA@bad_cast@std@@8 00000001800336d0     libcpmt:cerr.obj
 0002:000106f8       ??_R3codecvt_base@std@@8   00000001800336f8     libcpmt:cerr.obj
 0002:00010710       ??_R2codecvt_base@std@@8   0000000180033710     libcpmt:cerr.obj
 0002:00010738       ??_R1A@?0A@EA@codecvt_base@std@@8 0000000180033738     libcpmt:cerr.obj
 0002:00010760       ??_R3ctype_base@std@@8     0000000180033760     libcpmt:cerr.obj
 0002:00010778       ??_R2ctype_base@std@@8     0000000180033778     libcpmt:cerr.obj
 0002:000107a0       ??_R1A@?0A@EA@ctype_base@std@@8 00000001800337a0     libcpmt:cerr.obj
 0002:000107c8       ??_R4?$ctype@D@std@@6B@    00000001800337c8     libcpmt:cerr.obj
 0002:000107f0       ??_R3?$ctype@D@std@@8      00000001800337f0     libcpmt:cerr.obj
 0002:00010808       ??_R2?$ctype@D@std@@8      0000000180033808     libcpmt:cerr.obj
 0002:00010838       ??_R1A@?0A@EA@?$ctype@D@std@@8 0000000180033838     libcpmt:cerr.obj
 0002:00010860       ??_R4error_category@std@@6B@ 0000000180033860     libcpmt:cerr.obj
 0002:00010888       ??_R3error_category@std@@8 0000000180033888     libcpmt:cerr.obj
 0002:000108a0       ??_R2error_category@std@@8 00000001800338a0     libcpmt:cerr.obj
 0002:000108b0       ??_R1A@?0A@EA@error_category@std@@8 00000001800338b0     libcpmt:cerr.obj
 0002:000108d8       ??_R4_System_error@std@@6B@ 00000001800338d8     libcpmt:cerr.obj
 0002:00010900       ??_R3_System_error@std@@8  0000000180033900     libcpmt:cerr.obj
 0002:00010918       ??_R2_System_error@std@@8  0000000180033918     libcpmt:cerr.obj
 0002:00010938       ??_R1A@?0A@EA@_System_error@std@@8 0000000180033938     libcpmt:cerr.obj
 0002:00010960       ??_R3system_error@std@@8   0000000180033960     libcpmt:cerr.obj
 0002:00010978       ??_R2system_error@std@@8   0000000180033978     libcpmt:cerr.obj
 0002:000109a0       ??_R1A@?0A@EA@system_error@std@@8 00000001800339a0     libcpmt:cerr.obj
 0002:000109c8       ??_R3_Generic_error_category@std@@8 00000001800339c8     libcpmt:cerr.obj
 0002:000109e0       ??_R2_Generic_error_category@std@@8 00000001800339e0     libcpmt:cerr.obj
 0002:000109f8       ??_R1A@?0A@EA@_Generic_error_category@std@@8 00000001800339f8     libcpmt:cerr.obj
 0002:00010a20       ??_R4_Iostream_error_category@std@@6B@ 0000000180033a20     libcpmt:cerr.obj
 0002:00010a48       ??_R3_Iostream_error_category@std@@8 0000000180033a48     libcpmt:cerr.obj
 0002:00010a60       ??_R2_Iostream_error_category@std@@8 0000000180033a60     libcpmt:cerr.obj
 0002:00010a80       ??_R1A@?0A@EA@_Iostream_error_category@std@@8 0000000180033a80     libcpmt:cerr.obj
 0002:00010aa8       ??_R4failure@ios_base@std@@6B@ 0000000180033aa8     libcpmt:cerr.obj
 0002:00010ad0       ??_R3failure@ios_base@std@@8 0000000180033ad0     libcpmt:cerr.obj
 0002:00010ae8       ??_R2failure@ios_base@std@@8 0000000180033ae8     libcpmt:cerr.obj
 0002:00010b18       ??_R1A@?0A@EA@failure@ios_base@std@@8 0000000180033b18     libcpmt:cerr.obj
 0002:00010b40       ??_R4?$codecvt@DDU_Mbstatet@@@std@@6B@ 0000000180033b40     libcpmt:cerr.obj
 0002:00010b68       ??_R3?$codecvt@DDU_Mbstatet@@@std@@8 0000000180033b68     libcpmt:cerr.obj
 0002:00010b80       ??_R2?$codecvt@DDU_Mbstatet@@@std@@8 0000000180033b80     libcpmt:cerr.obj
 0002:00010bb0       ??_R1A@?0A@EA@?$codecvt@DDU_Mbstatet@@@std@@8 0000000180033bb0     libcpmt:cerr.obj
 0002:00010bd8       ??_R4type_info@@6B@        0000000180033bd8     LIBCMT:std_type_info_static.obj
 0002:00010c00       ??_R3type_info@@8          0000000180033c00     LIBCMT:std_type_info_static.obj
 0002:00010c18       ??_R2type_info@@8          0000000180033c18     LIBCMT:std_type_info_static.obj
 0002:00010c28       ??_R1A@?0A@EA@type_info@@8 0000000180033c28     LIBCMT:std_type_info_static.obj
 0002:00010c50       ??_R4bad_array_new_length@std@@6B@ 0000000180033c50     LIBCMT:throw_bad_alloc.obj
 0002:00010c78       ??_R3bad_array_new_length@std@@8 0000000180033c78     LIBCMT:throw_bad_alloc.obj
 0002:00010c90       ??_R2bad_array_new_length@std@@8 0000000180033c90     LIBCMT:throw_bad_alloc.obj
 0002:00010cb0       ??_R1A@?0A@EA@bad_array_new_length@std@@8 0000000180033cb0     LIBCMT:throw_bad_alloc.obj
 0002:00010cd8       ??_R4bad_exception@std@@6B@ 0000000180033cd8     libvcruntime:frame.obj
 0002:00010d00       ??_R3bad_exception@std@@8  0000000180033d00     libvcruntime:frame.obj
 0002:00010d18       ??_R2bad_exception@std@@8  0000000180033d18     libvcruntime:frame.obj
 0002:00010d30       ??_R1A@?0A@EA@bad_exception@std@@8 0000000180033d30     libvcruntime:frame.obj
 0002:00010d58       ??_R4_Ref_count_base@std@@6B@ 0000000180033d58     libcpmt:excptptr.obj
 0002:00010d80       ??_R3_Ref_count_base@std@@8 0000000180033d80     libcpmt:excptptr.obj
 0002:00010d98       ??_R2_Ref_count_base@std@@8 0000000180033d98     libcpmt:excptptr.obj
 0002:00010da8       ??_R1A@?0A@EA@_Ref_count_base@std@@8 0000000180033da8     libcpmt:excptptr.obj
 0002:00010dd0       ??_R4?$_Ref_count_obj_alloc@V__ExceptionPtr@@U?$_StaticAllocator@H@@@std@@6B@ 0000000180033dd0     libcpmt:excptptr.obj
 0002:00010df8       ??_R3?$_Ref_count_obj_alloc@V__ExceptionPtr@@U?$_StaticAllocator@H@@@std@@8 0000000180033df8     libcpmt:excptptr.obj
 0002:00010e10       ??_R2?$_Ref_count_obj_alloc@V__ExceptionPtr@@U?$_StaticAllocator@H@@@std@@8 0000000180033e10     libcpmt:excptptr.obj
 0002:00010e28       ??_R1A@?0A@EA@?$_Ref_count_obj_alloc@V__ExceptionPtr@@U?$_StaticAllocator@H@@@std@@8 0000000180033e28     libcpmt:excptptr.obj
 0002:00010e50       ??_R4?$_Ref_count_obj@V__ExceptionPtr@@@std@@6B@ 0000000180033e50     libcpmt:excptptr.obj
 0002:00010e78       ??_R3?$_Ref_count_obj@V__ExceptionPtr@@@std@@8 0000000180033e78     libcpmt:excptptr.obj
 0002:00010e90       ??_R2?$_Ref_count_obj@V__ExceptionPtr@@@std@@8 0000000180033e90     libcpmt:excptptr.obj
 0002:00010ea8       ??_R1A@?0A@EA@?$_Ref_count_obj@V__ExceptionPtr@@@std@@8 0000000180033ea8     libcpmt:excptptr.obj
 0002:00011398       __rtc_iaa                  0000000180034398     LIBCMT:_initsect_.obj
 0002:000113a0       __rtc_izz                  00000001800343a0     LIBCMT:_initsect_.obj
 0002:000113a8       __rtc_taa                  00000001800343a8     LIBCMT:_initsect_.obj
 0002:000113b0       __rtc_tzz                  00000001800343b0     LIBCMT:_initsect_.obj
 0002:00013ac8       _TI2?AVbad_alloc@std@@     0000000180036ac8     libcpmt:xthrow.obj
 0002:00013ae8       _CTA2?AVbad_alloc@std@@    0000000180036ae8     libcpmt:xthrow.obj
 0002:00013b00       _CT??_R0?AVbad_alloc@std@@@8??0bad_alloc@std@@QEAA@AEBV01@@Z24 0000000180036b00     libcpmt:xthrow.obj
 0002:00013b28       _CT??_R0?AVexception@std@@@8??0exception@std@@QEAA@AEBV01@@Z24 0000000180036b28     libcpmt:xthrow.obj
 0002:00013b50       _CT??_R0?AVlogic_error@std@@@8??0logic_error@std@@QEAA@AEBV01@@Z24 0000000180036b50     libcpmt:xthrow.obj
 0002:00013b78       _TI3?AVlength_error@std@@  0000000180036b78     libcpmt:xthrow.obj
 0002:00013b98       _CTA3?AVlength_error@std@@ 0000000180036b98     libcpmt:xthrow.obj
 0002:00013bb8       _CT??_R0?AVlength_error@std@@@8??0length_error@std@@QEAA@AEBV01@@Z24 0000000180036bb8     libcpmt:xthrow.obj
 0002:00013be0       _TI3?AVout_of_range@std@@  0000000180036be0     libcpmt:xthrow.obj
 0002:00013c00       _CTA3?AVout_of_range@std@@ 0000000180036c00     libcpmt:xthrow.obj
 0002:00013c20       _CT??_R0?AVout_of_range@std@@@8??0out_of_range@std@@QEAA@AEBV01@@Z24 0000000180036c20     libcpmt:xthrow.obj
 0002:00013c48       _TI2?AVbad_cast@std@@      0000000180036c48     libcpmt:cerr.obj
 0002:00013c68       _CTA2?AVbad_cast@std@@     0000000180036c68     libcpmt:cerr.obj
 0002:00013c80       _CT??_R0?AVbad_cast@std@@@8??0bad_cast@std@@QEAA@AEBV01@@Z24 0000000180036c80     libcpmt:cerr.obj
 0002:00013ca8       _TI3?AVbad_array_new_length@std@@ 0000000180036ca8     LIBCMT:throw_bad_alloc.obj
 0002:00013cc8       _CTA3?AVbad_array_new_length@std@@ 0000000180036cc8     LIBCMT:throw_bad_alloc.obj
 0002:00013ce8       _CT??_R0?AVbad_array_new_length@std@@@8??0bad_array_new_length@std@@QEAA@AEBV01@@Z24 0000000180036ce8     LIBCMT:throw_bad_alloc.obj
 0002:00013d10       _TI2?AVbad_exception@std@@ 0000000180036d10     libvcruntime:frame.obj
 0002:00013d30       _CTA2?AVbad_exception@std@@ 0000000180036d30     libvcruntime:frame.obj
 0002:00013d48       _CT??_R0?AVbad_exception@std@@@8??0bad_exception@std@@QEAA@AEBV01@@Z24 0000000180036d48     libvcruntime:frame.obj
 0002:00013d6c       __DELAY_IMPORT_DESCRIPTOR_node_exe 0000000180036d6c     node:node.exe
 0002:00013d8c       __NULL_DELAY_IMPORT_DESCRIPTOR 0000000180036d8c     node:node.exe
 0002:00013e90       \177node_NULL_THUNK_DATA_DLN 0000000180036e90     node:node.exe
 0002:00014508       \177node_NULL_THUNK_DATA_DLB 0000000180037508     node:node.exe
 0002:00014644       __IMPORT_DESCRIPTOR_KERNEL32 0000000180037644     kernel32:KERNEL32.dll
 0002:00014658       __NULL_IMPORT_DESCRIPTOR   0000000180037658     kernel32:KERNEL32.dll
 0003:00000020       ?_PJP_CPP_Copyright@@3PADA 0000000180038020     libcpmt:iosptrs.obj
 0003:00000071       ?_Sync@ios_base@std@@0_NA  0000000180038071     libcpmt:ios.obj
 0003:00000080       _Init_global_epoch         0000000180038080     LIBCMT:thread_safe_statics.obj
 0003:00000084       __scrt_native_dllmain_reason 0000000180038084     LIBCMT:utility.obj
 0003:00000088       __security_cookie          0000000180038088     LIBCMT:gs_cookie.obj
 0003:00000090       __security_cookie_complement 0000000180038090     LIBCMT:gs_cookie.obj
 0003:00000098       _fltused                   0000000180038098     LIBCMT:fltused.obj
 0003:000000a0       __isa_available            00000001800380a0     LIBCMT:_cpu_disp_.obj
 0003:000000a4       __isa_enabled              00000001800380a4     LIBCMT:_cpu_disp_.obj
 0003:000000a8       __memcpy_nt_iters          00000001800380a8     LIBCMT:_cpu_disp_.obj
 0003:000000b0       ?_S_spinCount@_SpinCount@details@Concurrency@@2IA 00000001800380b0     libconcrt:rtlocks.obj
 0003:000000b8       ?s_schedulerIdCount@ResourceManager@details@Concurrency@@0JC 00000001800380b8     libconcrt:ResourceManager.obj
 0003:000000bc       ?s_executionContextIdCount@ResourceManager@details@Concurrency@@0JC 00000001800380bc     libconcrt:ResourceManager.obj
 0003:000000c0       ?s_threadProxyIdCount@ResourceManager@details@Concurrency@@0JC 00000001800380c0     libconcrt:ResourceManager.obj
 0003:000000c4       ?s_oneShotInitializationState@SchedulerBase@details@Concurrency@@0JA 00000001800380c4     libconcrt:SchedulerBase.obj
 0003:000000d0       ?PolicyDefaults@details@Concurrency@@3PAIA 00000001800380d0     libconcrt:SchedulerPolicyBase.obj
 0003:00000100       ?PolicyElementKeyStrings@details@Concurrency@@3PAPEADA 0000000180038100     libconcrt:SchedulerPolicyBase.obj
 0003:00000170       __abort_behavior           0000000180038170     libucrt:abort.obj
 0003:00000180       _iob                       0000000180038180     libucrt:_file.obj
 0003:00000288       _pctype                    0000000180038288     libucrt:ctype.obj
 0003:00000290       _pwctype                   0000000180038290     libucrt:ctype.obj
 0003:000002a0       __acrt_lconv_c             00000001800382a0     libucrt:localeconv.obj
 0003:00000338       __acrt_lconv               0000000180038338     libucrt:localeconv.obj
 0003:00000340       __acrt_lconv_static_decimal 0000000180038340     libucrt:localeconv.obj
 0003:00000344       __acrt_lconv_static_W_decimal 0000000180038344     libucrt:localeconv.obj
 0003:00000360       __acrt_initial_locale_data 0000000180038360     libucrt:nlsdata.obj
 0003:000004b8       __acrt_initial_locale_pointers 00000001800384b8     libucrt:nlsdata.obj
 0003:000004c8       __acrt_wide_c_locale_string 00000001800384c8     libucrt:nlsdata.obj
 0003:000004cc       __mb_cur_max               00000001800384cc     libucrt:nlsdata.obj
 0003:000004d0       __globallocalestatus       00000001800384d0     libucrt:glstatus.obj
 0003:000004e0       __badioinfo                00000001800384e0     libucrt:ioinit.obj
 0003:000005c0       __acrt_initial_multibyte_data 00000001800385c0     libucrt:mbctype.obj
 0003:000007e8       __acrt_current_multibyte_data 00000001800387e8     libucrt:mbctype.obj
 0003:000008f0       _mbctype                   00000001800388f0     libucrt:mbctype.obj
 0003:00000a00       _mbcasemap                 0000000180038a00     libucrt:mbctype.obj
 0003:00000b00       _lookuptrailbytes          0000000180038b00     libucrt:read.obj
 0003:00000c00       __dcrt_lowio_console_output_handle 0000000180038c00     libucrt:initcon.obj
 0003:00000c60       ??_R0?AVbad_alloc@std@@@8  0000000180038c60     libcpmt:xthrow.obj
 0003:00000c88       ??_R0?AVexception@std@@@8  0000000180038c88     libcpmt:xthrow.obj
 0003:00000cb0       ??_R0?AVlogic_error@std@@@8 0000000180038cb0     libcpmt:xthrow.obj
 0003:00000cd8       ??_R0?AVlength_error@std@@@8 0000000180038cd8     libcpmt:xthrow.obj
 0003:00000d00       ??_R0?AVout_of_range@std@@@8 0000000180038d00     libcpmt:xthrow.obj
 0003:00000d28       ??_R0?AVruntime_error@std@@@8 0000000180038d28     libcpmt:xthrow.obj
 0003:00000d50       ??_R0?AV_Facet_base@std@@@8 0000000180038d50     libcpmt:locale0.obj
 0003:00000d78       ??_R0?AV_Locimp@locale@std@@@8 0000000180038d78     libcpmt:locale0.obj
 0003:00000da8       ??_R0?AVfacet@locale@std@@@8 0000000180038da8     libcpmt:locale0.obj
 0003:00000dd0       ??_R0?AU_Crt_new_delete@std@@@8 0000000180038dd0     libcpmt:locale0.obj
 0003:00000e00       ??_R0?AVfailure@ios_base@std@@@8 0000000180038e00     libcpmt:cerr.obj
 0003:00000e30       ??_R0?AVsystem_error@std@@@8 0000000180038e30     libcpmt:cerr.obj
 0003:00000e58       ??_R0?AV_System_error@std@@@8 0000000180038e58     libcpmt:cerr.obj
 0003:00000e80       ??_R0?AVbad_cast@std@@@8   0000000180038e80     libcpmt:cerr.obj
 0003:00000ea8       ??_R0?AVios_base@std@@@8   0000000180038ea8     libcpmt:cerr.obj
 0003:00000ed0       ??_R0?AV?$_Iosb@H@std@@@8  0000000180038ed0     libcpmt:cerr.obj
 0003:00000ef8       ??_R0?AV?$basic_ios@DU?$char_traits@D@std@@@std@@@8 0000000180038ef8     libcpmt:cerr.obj
 0003:00000f40       ??_R0?AV?$basic_streambuf@DU?$char_traits@D@std@@@std@@@8 0000000180038f40     libcpmt:cerr.obj
 0003:00000f90       ??_R0?AV?$basic_ostream@DU?$char_traits@D@std@@@std@@@8 0000000180038f90     libcpmt:cerr.obj
 0003:00000fe0       ??_R0?AV?$basic_filebuf@DU?$char_traits@D@std@@@std@@@8 0000000180038fe0     libcpmt:cerr.obj
 0003:00001028       ??_R0?AVcodecvt_base@std@@@8 0000000180039028     libcpmt:cerr.obj
 0003:00001050       ??_R0?AUctype_base@std@@@8 0000000180039050     libcpmt:cerr.obj
 0003:00001078       ??_R0?AV?$ctype@D@std@@@8  0000000180039078     libcpmt:cerr.obj
 0003:000010a0       ??_R0?AVerror_category@std@@@8 00000001800390a0     libcpmt:cerr.obj
 0003:000010d0       ??_R0?AV_Generic_error_category@std@@@8 00000001800390d0     libcpmt:cerr.obj
 0003:00001108       ??_R0?AV_Iostream_error_category@std@@@8 0000000180039108     libcpmt:cerr.obj
 0003:00001140       ??_R0?AV?$codecvt@DDU_Mbstatet@@@std@@@8 0000000180039140     libcpmt:cerr.obj
 0003:00001178       ??_R0?AVtype_info@@@8      0000000180039178     LIBCMT:std_type_info_static.obj
 0003:00001198       ??_R0?AVbad_array_new_length@std@@@8 0000000180039198     LIBCMT:throw_bad_alloc.obj
 0003:000011c8       ??_R0?AVbad_exception@std@@@8 00000001800391c8     libvcruntime:frame.obj
 0003:000011f0       ??_R0?AV_Ref_count_base@std@@@8 00000001800391f0     libcpmt:excptptr.obj
 0003:00001220       ??_R0?AV?$_Ref_count_obj_alloc@V__ExceptionPtr@@U?$_StaticAllocator@H@@@std@@@8 0000000180039220     libcpmt:excptptr.obj
 0003:00001280       ??_R0?AV?$_Ref_count_obj@V__ExceptionPtr@@@std@@@8 0000000180039280     libcpmt:excptptr.obj
 0003:000012c0       __imp_uv_queue_work        00000001800392c0     node:node.exe
 0003:000012c8       __imp_?Global@Context@v8@@QEAA?AV?$Local@VObject@v8@@@2@XZ 00000001800392c8     node:node.exe
 0003:000012d0       __imp_?New@Integer@v8@@SA?AV?$Local@VInteger@v8@@@2@PEAVIsolate@2@H@Z 00000001800392d0     node:node.exe
 0003:000012d8       __imp_?GetCurrentContext@Isolate@v8@@QEAA?AV?$Local@VContext@v8@@@2@XZ 00000001800392d8     node:node.exe
 0003:000012e0       __imp_?GetCurrent@Isolate@v8@@SAPEAV12@XZ 00000001800392e0     node:node.exe
 0003:000012e8       __imp_?CreateHandle@HandleScope@v8@@KAPEAPEAVObject@internal@2@PEAVIsolate@42@PEAV342@@Z 00000001800392e8     node:node.exe
 0003:000012f0       __imp_??1HandleScope@v8@@QEAA@XZ 00000001800392f0     node:node.exe
 0003:000012f8       __imp_??0HandleScope@v8@@QEAA@PEAVIsolate@1@@Z 00000001800392f8     node:node.exe
 0003:00001300       __imp_?New@Array@v8@@SA?AV?$Local@VArray@v8@@@2@PEAVIsolate@2@H@Z 0000000180039300     node:node.exe
 0003:00001308       __imp_?Length@Array@v8@@QEBAIXZ 0000000180039308     node:node.exe
 0003:00001310       __imp_?GetFunction@FunctionTemplate@v8@@QEAA?AV?$Local@VFunction@v8@@@2@XZ 0000000180039310     node:node.exe
 0003:00001318       __imp_?New@FunctionTemplate@v8@@SA?AV?$Local@VFunctionTemplate@v8@@@2@PEAVIsolate@2@P6AXAEBV?$FunctionCallbackInfo@VValue@v8@@@2@@ZV?$Local@VValue@v8@@@2@V?$Local@VSignature@v8@@@2@HW4ConstructorBehavior@2@@Z 0000000180039318     node:node.exe
 0003:00001320       __imp_?DisposeGlobal@V8@v8@@CAXPEAPEAVObject@internal@2@@Z 0000000180039320     node:node.exe
 0003:00001328       __imp_?GlobalizeReference@V8@v8@@CAPEAPEAVObject@internal@2@PEAVIsolate@42@PEAPEAV342@@Z 0000000180039328     node:node.exe
 0003:00001330       __imp_?NumberValue@Value@v8@@QEBANXZ 0000000180039330     node:node.exe
 0003:00001338       __imp_??1Utf8Value@String@v8@@QEAA@XZ 0000000180039338     node:node.exe
 0003:00001340       __imp_??0Utf8Value@String@v8@@QEAA@V?$Local@VValue@v8@@@2@@Z 0000000180039340     node:node.exe
 0003:00001348       __imp_?NewFromUtf8@String@v8@@SA?AV?$Local@VString@v8@@@2@PEAVIsolate@2@PEBDW4NewStringType@12@H@Z 0000000180039348     node:node.exe
 0003:00001350       __imp_?New@Number@v8@@SA?AV?$Local@VNumber@v8@@@2@PEAVIsolate@2@N@Z 0000000180039350     node:node.exe
 0003:00001358       __imp_?New@Object@v8@@SA?AV?$Local@VObject@v8@@@2@PEAVIsolate@2@@Z 0000000180039358     node:node.exe
 0003:00001360       __imp_?Get@Object@v8@@QEAA?AV?$Local@VValue@v8@@@2@V32@@Z 0000000180039360     node:node.exe
 0003:00001368       __imp_?Get@Object@v8@@QEAA?AV?$Local@VValue@v8@@@2@I@Z 0000000180039368     node:node.exe
 0003:00001370       __imp_?Set@Object@v8@@QEAA_NV?$Local@VValue@v8@@@2@0@Z 0000000180039370     node:node.exe
 0003:00001378       __imp_?Set@Object@v8@@QEAA_NIV?$Local@VValue@v8@@@2@@Z 0000000180039378     node:node.exe
 0003:00001380       __imp_?SetName@Function@v8@@QEAAXV?$Local@VString@v8@@@2@@Z 0000000180039380     node:node.exe
 0003:00001388       __imp_?Call@Function@v8@@QEAA?AV?$Local@VValue@v8@@@2@V32@HQEAV32@@Z 0000000180039388     node:node.exe
 0003:00001390       __imp_node_module_register 0000000180039390     node:node.exe
 0003:00001398       __imp_uv_default_loop      0000000180039398     node:node.exe
 0003:000013a0       \177node_NULL_THUNK_DATA_DLA 00000001800393a0     node:node.exe
 0003:000013b0       __hmod__node_exe           00000001800393b0     node:node.exe
 0003:00001518       ?_Id_cnt@id@locale@std@@0HA 0000000180039518     libcpmt:locale0.obj
 0003:00001520       ?_Clocptr@_Locimp@locale@std@@0PEAV123@EA 0000000180039520     libcpmt:locale0.obj
 0003:00001530       ?id@?$ctype@_W@std@@2V0locale@2@A 0000000180039530     libcpmt:locale0.obj
 0003:00001538       ?id@?$ctype@D@std@@2V0locale@2@A 0000000180039538     libcpmt:locale0.obj
 0003:00001540       ?id@?$codecvt@GDU_Mbstatet@@@std@@2V0locale@2@A 0000000180039540     libcpmt:locale0.obj
 0003:00001548       ?id@?$ctype@G@std@@2V0locale@2@A 0000000180039548     libcpmt:locale0.obj
 0003:00001560       ?id@?$codecvt@_WDU_Mbstatet@@@std@@2V0locale@2@A 0000000180039560     libcpmt:locale0.obj
 0003:00001580       ?cerr@std@@3V?$basic_ostream@DU?$char_traits@D@std@@@1@A 0000000180039580     libcpmt:cerr.obj
 0003:00001688       ?id@?$codecvt@DDU_Mbstatet@@@std@@2V0locale@2@A 0000000180039688     libcpmt:cerr.obj
 0003:00001690       ?_Stinit@?1??_Init@?$basic_filebuf@DU?$char_traits@D@std@@@std@@IEAAXPEAU_iobuf@@W4_Initfl@23@@Z@4U_Mbstatet@@A 0000000180039690     libcpmt:cerr.obj
 0003:00001698       ?_Psave@?$_Facetptr@V?$codecvt@DDU_Mbstatet@@@std@@@std@@2PEBVfacet@locale@2@EB 0000000180039698     libcpmt:cerr.obj
 0003:000016a0       ?_Raise_handler@std@@3P6AXAEBVexception@stdext@@@ZEA 00000001800396a0     libcpmt:raisehan.obj
 0003:000016b0       ?_Ptr_cin@std@@3PEAV?$basic_istream@DU?$char_traits@D@std@@@1@EA 00000001800396b0     libcpmt:iosptrs.obj
 0003:000016b8       ?_Ptr_cout@std@@3PEAV?$basic_ostream@DU?$char_traits@D@std@@@1@EA 00000001800396b8     libcpmt:iosptrs.obj
 0003:000016c0       ?_Ptr_cerr@std@@3PEAV?$basic_ostream@DU?$char_traits@D@std@@@1@EA 00000001800396c0     libcpmt:iosptrs.obj
 0003:000016c8       ?_Ptr_clog@std@@3PEAV?$basic_ostream@DU?$char_traits@D@std@@@1@EA 00000001800396c8     libcpmt:iosptrs.obj
 0003:000016d0       ?_Ptr_wcin@std@@3PEAV?$basic_istream@_WU?$char_traits@_W@std@@@1@EA 00000001800396d0     libcpmt:iosptrs.obj
 0003:000016d8       ?_Ptr_wcout@std@@3PEAV?$basic_ostream@_WU?$char_traits@_W@std@@@1@EA 00000001800396d8     libcpmt:iosptrs.obj
 0003:000016e0       ?_Ptr_wcerr@std@@3PEAV?$basic_ostream@_WU?$char_traits@_W@std@@@1@EA 00000001800396e0     libcpmt:iosptrs.obj
 0003:000016e8       ?_Ptr_wclog@std@@3PEAV?$basic_ostream@_WU?$char_traits@_W@std@@@1@EA 00000001800396e8     libcpmt:iosptrs.obj
 0003:00001748       ?_OptionsStorage@?1??__local_stdio_printf_options@@9@4_KA 0000000180039748     libcpmt:locale.obj
 0003:00001750       ?id@?$num_get@DV?$istreambuf_iterator@DU?$char_traits@D@std@@@std@@@std@@2V0locale@2@A 0000000180039750     libcpmt:locale.obj
 0003:00001758       ?id@?$num_put@DV?$ostreambuf_iterator@DU?$char_traits@D@std@@@std@@@std@@2V0locale@2@A 0000000180039758     libcpmt:locale.obj
 0003:00001760       ?id@?$numpunct@D@std@@2V0locale@2@A 0000000180039760     libcpmt:locale.obj
 0003:000017cc       ?_Index@ios_base@std@@0HA  00000001800397cc     libcpmt:ios.obj
 0003:000017d0       ?__stl_sync_api_impl_mode@@3W4__stl_sync_api_modes_enum@@A 00000001800397d0     libcpmt:mutex.obj
 0003:00001b10       __encodedKERNEL32Functions 0000000180039b10     libcpmt:winapisupp.obj
 0003:00001c50       ?id@?$time_put@_WV?$ostreambuf_iterator@_WU?$char_traits@_W@std@@@std@@@std@@2V0locale@2@A 0000000180039c50     libcpmt:wlocale.obj
 0003:00001c58       ?id@?$num_get@_WV?$istreambuf_iterator@_WU?$char_traits@_W@std@@@std@@@std@@2V0locale@2@A 0000000180039c58     libcpmt:wlocale.obj
 0003:00001c60       ?id@?$num_put@_WV?$ostreambuf_iterator@_WU?$char_traits@_W@std@@@std@@@std@@2V0locale@2@A 0000000180039c60     libcpmt:wlocale.obj
 0003:00001c68       ?id@?$numpunct@_W@std@@2V0locale@2@A 0000000180039c68     libcpmt:wlocale.obj
 0003:00001c70       ?id@?$collate@_W@std@@2V0locale@2@A 0000000180039c70     libcpmt:wlocale.obj
 0003:00001c78       ?id@?$messages@_W@std@@2V0locale@2@A 0000000180039c78     libcpmt:wlocale.obj
 0003:00001c80       ?id@?$money_get@_WV?$istreambuf_iterator@_WU?$char_traits@_W@std@@@std@@@std@@2V0locale@2@A 0000000180039c80     libcpmt:wlocale.obj
 0003:00001c88       ?id@?$money_put@_WV?$ostreambuf_iterator@_WU?$char_traits@_W@std@@@std@@@std@@2V0locale@2@A 0000000180039c88     libcpmt:wlocale.obj
 0003:00001c90       ?id@?$moneypunct@_W$0A@@std@@2V0locale@2@A 0000000180039c90     libcpmt:wlocale.obj
 0003:00001c98       ?id@?$moneypunct@_W$00@std@@2V0locale@2@A 0000000180039c98     libcpmt:wlocale.obj
 0003:00001ca0       ?id@?$time_get@_WV?$istreambuf_iterator@_WU?$char_traits@_W@std@@@std@@@std@@2V0locale@2@A 0000000180039ca0     libcpmt:wlocale.obj
 0003:00001ca8       ?id@?$num_get@GV?$istreambuf_iterator@GU?$char_traits@G@std@@@std@@@std@@2V0locale@2@A 0000000180039ca8     libcpmt:wlocale.obj
 0003:00001cb0       ?id@?$num_put@GV?$ostreambuf_iterator@GU?$char_traits@G@std@@@std@@@std@@2V0locale@2@A 0000000180039cb0     libcpmt:wlocale.obj
 0003:00001cb8       ?id@?$numpunct@G@std@@2V0locale@2@A 0000000180039cb8     libcpmt:wlocale.obj
 0003:00001cc0       ?id@?$collate@G@std@@2V0locale@2@A 0000000180039cc0     libcpmt:wlocale.obj
 0003:00001cc8       ?id@?$messages@G@std@@2V0locale@2@A 0000000180039cc8     libcpmt:wlocale.obj
 0003:00001cd0       ?id@?$money_get@GV?$istreambuf_iterator@GU?$char_traits@G@std@@@std@@@std@@2V0locale@2@A 0000000180039cd0     libcpmt:wlocale.obj
 0003:00001cd8       ?id@?$money_put@GV?$ostreambuf_iterator@GU?$char_traits@G@std@@@std@@@std@@2V0locale@2@A 0000000180039cd8     libcpmt:wlocale.obj
 0003:00001ce0       ?id@?$moneypunct@G$0A@@std@@2V0locale@2@A 0000000180039ce0     libcpmt:wlocale.obj
 0003:00001ce8       ?id@?$moneypunct@G$00@std@@2V0locale@2@A 0000000180039ce8     libcpmt:wlocale.obj
 0003:00001cf0       ?id@?$time_get@GV?$istreambuf_iterator@GU?$char_traits@G@std@@@std@@@std@@2V0locale@2@A 0000000180039cf0     libcpmt:wlocale.obj
 0003:00001cf8       ?id@?$time_put@GV?$ostreambuf_iterator@GU?$char_traits@G@std@@@std@@@std@@2V0locale@2@A 0000000180039cf8     libcpmt:wlocale.obj
 0003:00001d00       ?id@?$collate@D@std@@2V0locale@2@A 0000000180039d00     libcpmt:xlocale.obj
 0003:00001d08       ?id@?$messages@D@std@@2V0locale@2@A 0000000180039d08     libcpmt:xlocale.obj
 0003:00001d10       ?id@?$money_get@DV?$istreambuf_iterator@DU?$char_traits@D@std@@@std@@@std@@2V0locale@2@A 0000000180039d10     libcpmt:xlocale.obj
 0003:00001d18       ?id@?$money_put@DV?$ostreambuf_iterator@DU?$char_traits@D@std@@@std@@@std@@2V0locale@2@A 0000000180039d18     libcpmt:xlocale.obj
 0003:00001d20       ?id@?$moneypunct@D$0A@@std@@2V0locale@2@A 0000000180039d20     libcpmt:xlocale.obj
 0003:00001d28       ?id@?$moneypunct@D$00@std@@2V0locale@2@A 0000000180039d28     libcpmt:xlocale.obj
 0003:00001d30       ?id@?$time_get@DV?$istreambuf_iterator@DU?$char_traits@D@std@@@std@@@std@@2V0locale@2@A 0000000180039d30     libcpmt:xlocale.obj
 0003:00001d38       ?id@?$time_put@DV?$ostreambuf_iterator@DU?$char_traits@D@std@@@std@@@std@@2V0locale@2@A 0000000180039d38     libcpmt:xlocale.obj
 0003:00001d88       __scrt_current_native_startup_state 0000000180039d88     LIBCMT:utility.obj
 0003:00001d90       __scrt_native_startup_lock 0000000180039d90     LIBCMT:utility.obj
 0003:00002340       __scrt_debugger_hook_flag  000000018003a340     LIBCMT:utility_desktop.obj
 0003:00002344       _tls_index                 000000018003a344     LIBCMT:tlssup.obj
 0003:00002348       __favor                    000000018003a348     LIBCMT:_cpu_disp_.obj
 0003:00002350       ?__type_info_root_node@@3U__type_info_node@@A 000000018003a350     LIBCMT:tncleanup.obj
 0003:00002360       ?_OptionsStorage@?1??__local_stdio_scanf_options@@9@4_KA 000000018003a360     LIBCMT:default_local_stdio_options.obj
 0003:00002368       ?g_TimerQueueDemandInit@details@Concurrency@@3JC 000000018003a368     libconcrt:event.obj
 0003:00002370       ?g_hTimerQueue@details@Concurrency@@3REAXEA 000000018003a370     libconcrt:event.obj
 0003:000023b0       ?LoadLibraryCount@details@Concurrency@@3JC 000000018003a3b0     libconcrt:utils.obj
 0003:000023b8       ?HostModule@details@Concurrency@@3PEAUHINSTANCE__@@EA 000000018003a3b8     libconcrt:utils.obj
 0003:000023c8       ?s_pResourceManager@ResourceManager@details@Concurrency@@0PEAV123@EA 000000018003a3c8     libconcrt:ResourceManager.obj
 0003:000023d0       ?s_processAffinityMask@ResourceManager@details@Concurrency@@0_KA 000000018003a3d0     libconcrt:ResourceManager.obj
 0003:000023d8       ?s_systemAffinityMask@ResourceManager@details@Concurrency@@0_KA 000000018003a3d8     libconcrt:ResourceManager.obj
 0003:000023e0       ?s_pUserAffinityRestriction@ResourceManager@details@Concurrency@@0PEAUAffinityRestriction@123@EA 000000018003a3e0     libconcrt:ResourceManager.obj
 0003:000023e8       ?s_pProcessAffinityRestriction@ResourceManager@details@Concurrency@@0PEAUAffinityRestriction@123@EA 000000018003a3e8     libconcrt:ResourceManager.obj
 0003:000023f0       ?s_coreCount@ResourceManager@details@Concurrency@@0IA 000000018003a3f0     libconcrt:ResourceManager.obj
 0003:000023f4       ?s_countProcessorPackages@ResourceManager@details@Concurrency@@0_NA 000000018003a3f4     libconcrt:ResourceManager.obj
 0003:000023f8       ?s_nodeCount@ResourceManager@details@Concurrency@@0IA 000000018003a3f8     libconcrt:ResourceManager.obj
 0003:000023fc       ?s_numaNodeCount@ResourceManager@details@Concurrency@@0IA 000000018003a3fc     libconcrt:ResourceManager.obj
 0003:00002400       ?s_version@ResourceManager@details@Concurrency@@0W4OSVersion@IResourceManager@3@A 000000018003a400     libconcrt:ResourceManager.obj
 0003:00002404       ?s_logicalProcessorInformationLength@ResourceManager@details@Concurrency@@0KA 000000018003a404     libconcrt:ResourceManager.obj
 0003:00002408       ?s_pSysInfo@ResourceManager@details@Concurrency@@0PEAU_SYSTEM_LOGICAL_PROCESSOR_INFORMATION@@EA 000000018003a408     libconcrt:ResourceManager.obj
 0003:00002410       ?s_pDefaultScheduler@SchedulerBase@details@Concurrency@@1PEAV123@EA 000000018003a410     libconcrt:SchedulerBase.obj
 0003:00002418       ?s_pDefaultSchedulerPolicy@SchedulerBase@details@Concurrency@@1PEAVSchedulerPolicy@3@EA 000000018003a418     libconcrt:SchedulerBase.obj
 0003:00002420       ?t_dwContextIndex@SchedulerBase@details@Concurrency@@1KA 000000018003a420     libconcrt:SchedulerBase.obj
 0003:00002424       ?s_workQueueIdCounter@SchedulerBase@details@Concurrency@@0JC 000000018003a424     libconcrt:SchedulerBase.obj
 0003:00002428       ?s_initializedCount@SchedulerBase@details@Concurrency@@0JA 000000018003a428     libconcrt:SchedulerBase.obj
 0003:0000242c       ?s_numExternalAllocators@SchedulerBase@details@Concurrency@@0JC 000000018003a42c     libconcrt:SchedulerBase.obj
 0003:00002430       ?s_initialized@Security@details@Concurrency@@2JC 000000018003a430     libconcrt:staticinits.obj
 0003:00002434       ?s_defaultSchedulerLock@SchedulerBase@details@Concurrency@@1V_NonReentrantLock@23@A 000000018003a434     libconcrt:staticinits.obj
 0003:00002438       ?s_lock@ResourceManager@details@Concurrency@@0V_NonReentrantLock@23@A 000000018003a438     libconcrt:staticinits.obj
 0003:0000243c       ?s_lock@Etw@details@Concurrency@@0V_NonReentrantLock@23@A 000000018003a43c     libconcrt:staticinits.obj
 0003:00002440       ?s_subAllocatorFreePool@SchedulerBase@details@Concurrency@@0V?$LockFreeStack@VSubAllocator@details@Concurrency@@@23@A 000000018003a440     libconcrt:staticinits.obj
 0003:00002450       ?s_cookie@Security@details@Concurrency@@2_KA 000000018003a450     libconcrt:staticinits.obj
 0003:00002458       ?s_schedulerLock@SchedulerBase@details@Concurrency@@0V_NonReentrantLock@23@A 000000018003a458     libconcrt:staticinits.obj
 0003:00002460       ?s_pfn_CreateUmsCompletionList@UMS@details@Concurrency@@0P6AHPEAPEAX@ZEA 000000018003a460     libconcrt:UMSWrapper.obj
 0003:00002468       ?s_pfn_DequeueUmsCompletionListItems@UMS@details@Concurrency@@0P6AHPEAXKPEAPEAX@ZEA 000000018003a468     libconcrt:UMSWrapper.obj
 0003:00002470       ?s_pfn_GetUmsCompletionListEvent@UMS@details@Concurrency@@0P6AHPEAXPEAPEAX@ZEA 000000018003a470     libconcrt:UMSWrapper.obj
 0003:00002478       ?s_pfn_ExecuteUmsThread@UMS@details@Concurrency@@0P6AHPEAX@ZEA 000000018003a478     libconcrt:UMSWrapper.obj
 0003:00002480       ?s_pfn_UmsThreadYield@UMS@details@Concurrency@@0P6AHPEAX@ZEA 000000018003a480     libconcrt:UMSWrapper.obj
 0003:00002488       ?s_pfn_DeleteUmsCompletionList@UMS@details@Concurrency@@0P6AHPEAX@ZEA 000000018003a488     libconcrt:UMSWrapper.obj
 0003:00002490       ?s_pfn_GetCurrentUmsThread@UMS@details@Concurrency@@0P6APEAXXZEA 000000018003a490     libconcrt:UMSWrapper.obj
 0003:00002498       ?s_pfn_GetNextUmsListItem@UMS@details@Concurrency@@0P6APEAXPEAX@ZEA 000000018003a498     libconcrt:UMSWrapper.obj
 0003:000024a0       ?s_pfn_QueryUmsThreadInformation@UMS@details@Concurrency@@0P6AHPEAXW4_RTL_UMS_THREAD_INFO_CLASS@@0KPEAK@ZEA 000000018003a4a0     libconcrt:UMSWrapper.obj
 0003:000024a8       ?s_pfn_SetUmsThreadInformation@UMS@details@Concurrency@@0P6AHPEAXW4_RTL_UMS_THREAD_INFO_CLASS@@0K@ZEA 000000018003a4a8     libconcrt:UMSWrapper.obj
 0003:000024b0       ?s_pfn_DeleteUmsThreadContext@UMS@details@Concurrency@@0P6AHPEAX@ZEA 000000018003a4b0     libconcrt:UMSWrapper.obj
 0003:000024b8       ?s_pfn_CreateUmsThreadContext@UMS@details@Concurrency@@0P6AHPEAPEAX@ZEA 000000018003a4b8     libconcrt:UMSWrapper.obj
 0003:000024c0       ?s_pfn_EnterUmsSchedulingMode@UMS@details@Concurrency@@0P6AHPEAU_UMS_SCHEDULER_STARTUP_INFO@@@ZEA 000000018003a4c0     libconcrt:UMSWrapper.obj
 0003:000024c8       ?s_pfn_CreateRemoteThreadEx@UMS@details@Concurrency@@0P6APEAXPEAXPEAU_SECURITY_ATTRIBUTES@@_KP6AK0@Z0KPEAU_PROC_THREAD_ATTRIBUTE_LIST@@PEAK@ZEA 000000018003a4c8     libconcrt:UMSWrapper.obj
 0003:000024d0       ?s_pfn_InitializeProcThreadAttributeList@UMS@details@Concurrency@@0P6AHPEAU_PROC_THREAD_ATTRIBUTE_LIST@@KKPEA_K@ZEA 000000018003a4d0     libconcrt:UMSWrapper.obj
 0003:000024d8       ?s_pfn_UpdateProcThreadAttribute@UMS@details@Concurrency@@0P6AHPEAU_PROC_THREAD_ATTRIBUTE_LIST@@K_KPEAX12PEA_K@ZEA 000000018003a4d8     libconcrt:UMSWrapper.obj
 0003:000024e0       ?s_pfn_DeleteProcThreadAttributeList@UMS@details@Concurrency@@0P6AXPEAU_PROC_THREAD_ATTRIBUTE_LIST@@@ZEA 000000018003a4e0     libconcrt:UMSWrapper.obj
 0003:000024e8       ?s_fInitialized@UMS@details@Concurrency@@0JC 000000018003a4e8     libconcrt:UMSWrapper.obj
 0003:000024f0       ?s_pfn_RoInitialize@WinRT@details@Concurrency@@0P6AJW4RO_INIT_TYPE@@@ZEA 000000018003a4f0     libconcrt:WinRTWrapper.obj
 0003:000024f8       ?s_pfn_RoUninitialize@WinRT@details@Concurrency@@0P6AXXZEA 000000018003a4f8     libconcrt:WinRTWrapper.obj
 0003:00002500       ?m_hModule@WinRT@details@Concurrency@@0PEAUHINSTANCE__@@EA 000000018003a500     libconcrt:WinRTWrapper.obj
 0003:00002508       ?s_fInitialized@WinRT@details@Concurrency@@0JC 000000018003a508     libconcrt:WinRTWrapper.obj
 0003:00002510       ?g_TraceInfo@details@Concurrency@@3U_CONCRT_TRACE_INFO@12@A 000000018003a510     libconcrt:Trace.obj
 0003:00002518       ?g_ConcRTSessionHandle@details@Concurrency@@3_KA 000000018003a518     libconcrt:Trace.obj
 0003:00002520       ?g_pEtw@details@Concurrency@@3PEAVEtw@12@EA 000000018003a520     libconcrt:Trace.obj
 0003:00002528       ?g_ConcRTPRoviderHandle@details@Concurrency@@3_KA 000000018003a528     libconcrt:Trace.obj
 0003:00002530       ?t_dwSchedulingContextIndex@UMSThreadScheduler@details@Concurrency@@0KA 000000018003a530     libconcrt:UMSThreadScheduler.obj
 0003:00002534       ?s_currentId@VirtualProcessorRoot@details@Concurrency@@0JA 000000018003a534     libconcrt:VirtualProcessorRoot.obj
 0003:00002538       ?g_OutOfMemoryExceptionCallback@@3P6APEAXXZEA 000000018003a538     libvcruntime:frame.obj
 0003:00002628       __pPurecall                000000018003a628     libvcruntime:purevirt_data.obj
 0003:00002660       ?pArgList@UnDecorator@@0PEAVReplicator@@EA 000000018003a660     libvcruntime:undname.obj
 0003:00002668       ?pZNameList@UnDecorator@@0PEAVReplicator@@EA 000000018003a668     libvcruntime:undname.obj
 0003:00002670       ?pTemplateArgList@UnDecorator@@0PEAVReplicator@@EA 000000018003a670     libvcruntime:undname.obj
 0003:00002678       ?gName@UnDecorator@@0PEBDEB 000000018003a678     libvcruntime:undname.obj
 0003:00002680       ?name@UnDecorator@@0PEBDEB 000000018003a680     libvcruntime:undname.obj
 0003:00002688       ?outputString@UnDecorator@@0PEADEA 000000018003a688     libvcruntime:undname.obj
 0003:00002690       ?maxStringLength@UnDecorator@@0HA 000000018003a690     libvcruntime:undname.obj
 0003:00002694       ?disableFlags@UnDecorator@@0KA 000000018003a694     libvcruntime:undname.obj
 0003:00002698       ?fExplicitTemplateParams@UnDecorator@@0_NA 000000018003a698     libvcruntime:undname.obj
 0003:00002699       ?fGetTemplateArgumentList@UnDecorator@@0_NA 000000018003a699     libvcruntime:undname.obj
 0003:000026a0       ?m_pGetParameter@UnDecorator@@0P6APEADJ@ZEA 000000018003a6a0     libvcruntime:undname.obj
 0003:000028f0       _nstream                   000000018003a8f0     libucrt:_file.obj
 0003:000028f8       __piob                     000000018003a8f8     libucrt:_file.obj
 0003:00002900       _cflush                    000000018003a900     libucrt:_file.obj
 0003:00002904       __acrt_lconv_static_null   000000018003a904     libucrt:localeconv.obj
 0003:00002908       __acrt_lconv_static_W_null 000000018003a908     libucrt:localeconv.obj
 0003:00002a38       _environ_table             000000018003aa38     libucrt:environment_initialization.obj
 0003:00002a40       _wenviron_table            000000018003aa40     libucrt:environment_initialization.obj
 0003:00002a48       __dcrt_initial_wide_environment 000000018003aa48     libucrt:environment_initialization.obj
 0003:00002a50       __dcrt_initial_narrow_environment 000000018003aa50     libucrt:environment_initialization.obj
 0003:00002a58       __acrt_atexit_table        000000018003aa58     libucrt:onexit.obj
 0003:00002a70       __acrt_at_quick_exit_table 000000018003aa70     libucrt:onexit.obj
 0003:00002aa8       __acrt_locale_changed_data 000000018003aaa8     libucrt:wsetlocale.obj
 0003:00002ab0       __acrt_current_locale_data 000000018003aab0     libucrt:nlsdata.obj
 0003:00002c70       __pioinfo                  000000018003ac70     libucrt:ioinit.obj
 0003:00003070       _nhandle                   000000018003b070     libucrt:ioinit.obj
 0003:00003078       __acrt_stdout_buffer       000000018003b078     libucrt:_sftbuf.obj
 0003:00003080       __acrt_stderr_buffer       000000018003b080     libucrt:_sftbuf.obj
 0003:00003090       __acrt_heap                000000018003b090     libucrt:heap_handle.obj
 0003:00003098       __fma3_is_available        000000018003b098     libucrt:fma3_available.obj
 0003:0000309c       __use_fma3_lib             000000018003b09c     libucrt:fma3_available.obj
 0003:000030a0       ?_timezone@@3V?$dual_state_global@J@__crt_state_management@@A 000000018003b0a0     libucrt:timeset.obj
 0003:000030a4       ?_daylight@@3V?$dual_state_global@H@__crt_state_management@@A 000000018003b0a4     libucrt:timeset.obj
 0003:000030a8       ?_dstbias@@3V?$dual_state_global@J@__crt_state_management@@A 000000018003b0a8     libucrt:timeset.obj
 0003:0000317c       __mbcodepage               000000018003b17c     libucrt:mbctype.obj
 0003:00003180       __ismbcodepage             000000018003b180     libucrt:mbctype.obj
 0003:00003188       __mbulinfo                 000000018003b188     libucrt:mbctype.obj
 0003:00003198       __mblocalename             000000018003b198     libucrt:mbctype.obj
 0003:000031a4       __argc                     000000018003b1a4     libucrt:argv_data.obj
 0003:000031a8       __argv                     000000018003b1a8     libucrt:argv_data.obj
 0003:000031b0       __wargv                    000000018003b1b0     libucrt:argv_data.obj
 0003:000031b8       _acmdln                    000000018003b1b8     libucrt:argv_data.obj
 0003:000031c0       _wcmdln                    000000018003b1c0     libucrt:argv_data.obj
 0003:000031c8       _pgmptr                    000000018003b1c8     libucrt:argv_data.obj
 0003:000031e0       ?DloadKernel32@@3PEAUHINSTANCE__@@EA 000000018003b1e0     DelayImp:delayhlp.obj
 0003:000031e8       ?DloadAcquireSRWLockExclusive@@3P6AXPEA_K@ZEA 000000018003b1e8     DelayImp:delayhlp.obj
 0003:000031f0       ?DloadReleaseSRWLockExclusive@@3P6AXPEA_K@ZEA 000000018003b1f0     DelayImp:delayhlp.obj
 0003:000031f8       ?DloadSrwLock@@3_KA        000000018003b1f8     DelayImp:delayhlp.obj
 0003:00003200       ?DloadSectionLockCount@@3KA 000000018003b200     DelayImp:delayhlp.obj
 0003:00003204       ?DloadSectionOldProtection@@3KA 000000018003b204     DelayImp:delayhlp.obj
 0003:00003208       ?DloadSectionCommitPermanent@@3KA 000000018003b208     DelayImp:delayhlp.obj
 0003:00003210       ?m_badAllocExceptionPtr@__ExceptionPtr@@0V?$shared_ptr@V__ExceptionPtr@@@std@@A 000000018003b210     libcpmt:excptptr.obj
 0003:000032f8       ?_Psave@?$_Facetptr@V?$ctype@D@std@@@std@@2PEBVfacet@locale@2@EB 000000018003b2f8     rainfall_node.obj
 0003:00003300       ?$TSS0@?1???$_Immortalize@V_Iostream_error_category@std@@@std@@YAAEAV_Iostream_error_category@1@XZ@4HA 000000018003b300     rainfall_node.obj
 0003:00003308       ?_Static@?1???$_Immortalize@V_Iostream_error_category@std@@@std@@YAAEAV_Iostream_error_category@1@XZ@4U?$_Immortalizer@V_Iostream_error_category@std@@@1@A 000000018003b308     rainfall_node.obj
 0003:00003318       __dyn_tls_init_callback    000000018003b318     <common>
 0003:00003320       __scrt_ucrt_dll_is_in_use  000000018003b320     <common>
 0006:00000000       _tls_start                 0000000180040000     LIBCMT:tlssup.obj
 0006:00000004       _Init_thread_epoch         0000000180040004     LIBCMT:thread_safe_statics.obj
 0006:00000008       _tls_end                   0000000180040008     LIBCMT:tlssup.obj

 entry point at        0001:0000956c

 Static symbols

 0000:fffbd000       .debug$S                   0000000180000000     kernel32:KERNEL32.dll
 0000:fffbd000       .debug$S                   0000000180000000     rainfall.exp
 0000:fffbd000       .debug$S                   0000000180000000     kernel32:KERNEL32.dll
 0000:fffbd000       .debug$S                   0000000180000000     kernel32:KERNEL32.dll
 0000:fffbd000       .debug$S                   0000000180000000     kernel32:KERNEL32.dll
 0000:fffbd000       .debug$S                   0000000180000000     kernel32:KERNEL32.dll
 0000:fffbd000       .debug$S                   0000000180000000     kernel32:KERNEL32.dll
 0000:fffbd000       .debug$S                   0000000180000000     kernel32:KERNEL32.dll
 0000:fffbd000       .debug$S                   0000000180000000     kernel32:KERNEL32.dll
 0000:fffbd000       .debug$S                   0000000180000000     kernel32:KERNEL32.dll
 0000:fffbd000       .debug$S                   0000000180000000     kernel32:KERNEL32.dll
 0000:fffbd000       .debug$S                   0000000180000000     kernel32:KERNEL32.dll
 0000:fffbd000       .debug$S                   0000000180000000     node:node.exe
 0000:fffbd000       .debug$S                   0000000180000000     node:node.exe
 0000:fffbd000       .debug$S                   0000000180000000     node:node.exe
 0000:fffbd000       .debug$S                   0000000180000000     node:node.exe
 0000:fffbd000       .debug$S                   0000000180000000     node:node.exe
 0000:fffbd000       .debug$S                   0000000180000000     node:node.exe
 0000:fffbd000       .debug$S                   0000000180000000     node:node.exe
 0000:fffbd000       .debug$S                   0000000180000000     node:node.exe
 0000:fffbd000       .debug$S                   0000000180000000     node:node.exe
 0000:fffbd000       .debug$S                   0000000180000000     node:node.exe
 0000:fffbd000       .debug$S                   0000000180000000     node:node.exe
 0000:fffbd000       .debug$S                   0000000180000000     node:node.exe
 0000:fffbd000       .debug$S                   0000000180000000     node:node.exe
 0000:fffbd000       .debug$S                   0000000180000000     node:node.exe
 0000:fffbd000       .debug$S                   0000000180000000     node:node.exe
 0000:fffbd000       .debug$S                   0000000180000000     node:node.exe
 0000:fffbd000       .debug$S                   0000000180000000     node:node.exe
 0000:fffbd000       .debug$S                   0000000180000000     node:node.exe
 0000:fffbd000       .debug$S                   0000000180000000     node:node.exe
 0000:fffbd000       .debug$S                   0000000180000000     node:node.exe
 0000:fffbd000       .debug$S                   0000000180000000     node:node.exe
 0000:fffbd000       .debug$S                   0000000180000000     node:node.exe
 0000:fffbd000       .debug$S                   0000000180000000     node:node.exe
 0000:fffbd000       .debug$S                   0000000180000000     node:node.exe
 0000:fffbd000       .debug$S                   0000000180000000     node:node.exe
 0000:fffbd000       .debug$S                   0000000180000000     node:node.exe
 0000:fffbd000       .debug$S                   0000000180000000     node:node.exe
 0000:fffbd000       .debug$S                   0000000180000000     node:node.exe
 0000:fffbd000       .debug$S                   0000000180000000     node:node.exe
 0000:fffbd000       .debug$S                   0000000180000000     node:node.exe
 0000:fffbd000       .debug$S                   0000000180000000     node:node.exe
 0000:fffbd000       .debug$S                   0000000180000000     node:node.exe
 0000:fffbd000       .debug$S                   0000000180000000     node:node.exe
 0000:fffbd000       .debug$S                   0000000180000000     kernel32:KERNEL32.dll
 0000:fffbd000       .debug$S                   0000000180000000     kernel32:KERNEL32.dll
 0000:fffbd000       .debug$S                   0000000180000000     kernel32:KERNEL32.dll
 0000:fffbd000       .debug$S                   0000000180000000     kernel32:KERNEL32.dll
 0000:fffbd000       .debug$S                   0000000180000000     kernel32:KERNEL32.dll
 0000:fffbd000       .debug$S                   0000000180000000     kernel32:KERNEL32.dll
 0000:fffbd000       .debug$S                   0000000180000000     kernel32:KERNEL32.dll
 0000:fffbd000       .debug$S                   0000000180000000     kernel32:KERNEL32.dll
 0000:fffbd000       .debug$S                   0000000180000000     kernel32:KERNEL32.dll
 0000:fffbd000       .debug$S                   0000000180000000     kernel32:KERNEL32.dll
 0000:fffbd000       .debug$S                   0000000180000000     kernel32:KERNEL32.dll
 0000:fffbd000       .debug$S                   0000000180000000     kernel32:KERNEL32.dll
 0000:fffbd000       .debug$S                   0000000180000000     kernel32:KERNEL32.dll
 0000:fffbd000       .debug$S                   0000000180000000     kernel32:KERNEL32.dll
 0000:fffbd000       .debug$S                   0000000180000000     kernel32:KERNEL32.dll
 0000:fffbd000       .debug$S                   0000000180000000     kernel32:KERNEL32.dll
 0000:fffbd000       .debug$S                   0000000180000000     kernel32:KERNEL32.dll
 0000:fffbd000       .debug$S                   0000000180000000     kernel32:KERNEL32.dll
 0000:fffbd000       .debug$S                   0000000180000000     kernel32:KERNEL32.dll
 0000:fffbd000       .debug$S                   0000000180000000     kernel32:KERNEL32.dll
 0000:fffbd000       .debug$S                   0000000180000000     kernel32:KERNEL32.dll
 0000:fffbd000       .debug$S                   0000000180000000     kernel32:KERNEL32.dll
 0000:fffbd000       .debug$S                   0000000180000000     kernel32:KERNEL32.dll
 0000:fffbd000       .debug$S                   0000000180000000     kernel32:KERNEL32.dll
 0000:fffbd000       .debug$S                   0000000180000000     kernel32:KERNEL32.dll
 0000:fffbd000       .debug$S                   0000000180000000     kernel32:KERNEL32.dll
 0000:fffbd000       .debug$S                   0000000180000000     kernel32:KERNEL32.dll
 0000:fffbd000       .debug$S                   0000000180000000     kernel32:KERNEL32.dll
 0000:fffbd000       .debug$S                   0000000180000000     kernel32:KERNEL32.dll
 0000:fffbd000       .debug$S                   0000000180000000     kernel32:KERNEL32.dll
 0000:fffbd000       .debug$S                   0000000180000000     kernel32:KERNEL32.dll
 0000:fffbd000       .debug$S                   0000000180000000     kernel32:KERNEL32.dll
 0000:fffbd000       .debug$S                   0000000180000000     kernel32:KERNEL32.dll
 0000:fffbd000       .debug$S                   0000000180000000     kernel32:KERNEL32.dll
 0000:fffbd000       .debug$S                   0000000180000000     kernel32:KERNEL32.dll
 0000:fffbd000       .debug$S                   0000000180000000     kernel32:KERNEL32.dll
 0000:fffbd000       .debug$S                   0000000180000000     kernel32:KERNEL32.dll
 0000:fffbd000       .debug$S                   0000000180000000     kernel32:KERNEL32.dll
 0000:fffbd000       .debug$S                   0000000180000000     kernel32:KERNEL32.dll
 0000:fffbd000       .debug$S                   0000000180000000     kernel32:KERNEL32.dll
 0000:fffbd000       .debug$S                   0000000180000000     kernel32:KERNEL32.dll
 0000:fffbd000       .debug$S                   0000000180000000     kernel32:KERNEL32.dll
 0000:fffbd000       .debug$S                   0000000180000000     kernel32:KERNEL32.dll
 0000:fffbd000       .debug$S                   0000000180000000     kernel32:KERNEL32.dll
 0000:fffbd000       .debug$S                   0000000180000000     kernel32:KERNEL32.dll
 0000:fffbd000       .debug$S                   0000000180000000     kernel32:KERNEL32.dll
 0000:fffbd000       .debug$S                   0000000180000000     kernel32:KERNEL32.dll
 0000:fffbd000       .debug$S                   0000000180000000     kernel32:KERNEL32.dll
 0000:fffbd000       .debug$S                   0000000180000000     kernel32:KERNEL32.dll
 0000:fffbd000       .debug$S                   0000000180000000     kernel32:KERNEL32.dll
 0000:fffbd000       .debug$S                   0000000180000000     kernel32:KERNEL32.dll
 0000:fffbd000       .debug$S                   0000000180000000     kernel32:KERNEL32.dll
 0000:fffbd000       .debug$S                   0000000180000000     kernel32:KERNEL32.dll
 0000:fffbd000       .debug$S                   0000000180000000     kernel32:KERNEL32.dll
 0000:fffbd000       .debug$S                   0000000180000000     kernel32:KERNEL32.dll
 0000:fffbd000       .debug$S                   0000000180000000     kernel32:KERNEL32.dll
 0000:fffbd000       .debug$S                   0000000180000000     kernel32:KERNEL32.dll
 0000:fffbd000       .debug$S                   0000000180000000     kernel32:KERNEL32.dll
 0000:fffbd000       .debug$S                   0000000180000000     kernel32:KERNEL32.dll
 0000:fffbd000       .debug$S                   0000000180000000     kernel32:KERNEL32.dll
 0000:fffbd000       .debug$S                   0000000180000000     kernel32:KERNEL32.dll
 0000:fffbd000       .debug$S                   0000000180000000     kernel32:KERNEL32.dll
 0000:fffbd000       .debug$S                   0000000180000000     kernel32:KERNEL32.dll
 0000:fffbd000       .debug$S                   0000000180000000     kernel32:KERNEL32.dll
 0000:fffbd000       .debug$S                   0000000180000000     kernel32:KERNEL32.dll
 0000:fffbd000       .debug$S                   0000000180000000     kernel32:KERNEL32.dll
 0000:fffbd000       .debug$S                   0000000180000000     kernel32:KERNEL32.dll
 0000:fffbd000       .debug$S                   0000000180000000     kernel32:KERNEL32.dll
 0000:fffbd000       .debug$S                   0000000180000000     kernel32:KERNEL32.dll
 0000:fffbd000       .debug$S                   0000000180000000     kernel32:KERNEL32.dll
 0000:fffbd000       .debug$S                   0000000180000000     kernel32:KERNEL32.dll
 0000:fffbd000       .debug$S                   0000000180000000     kernel32:KERNEL32.dll
 0000:fffbd000       .debug$S                   0000000180000000     kernel32:KERNEL32.dll
 0000:fffbd000       .debug$S                   0000000180000000     kernel32:KERNEL32.dll
 0000:fffbd000       .debug$S                   0000000180000000     kernel32:KERNEL32.dll
 0000:fffbd000       .debug$S                   0000000180000000     kernel32:KERNEL32.dll
 0000:fffbd000       .debug$S                   0000000180000000     kernel32:KERNEL32.dll
 0000:fffbd000       .debug$S                   0000000180000000     kernel32:KERNEL32.dll
 0000:fffbd000       .debug$S                   0000000180000000     kernel32:KERNEL32.dll
 0000:fffbd000       .debug$S                   0000000180000000     kernel32:KERNEL32.dll
 0000:fffbd000       .debug$S                   0000000180000000     kernel32:KERNEL32.dll
 0000:fffbd000       .debug$S                   0000000180000000     kernel32:KERNEL32.dll
 0000:fffbd000       .debug$S                   0000000180000000     kernel32:KERNEL32.dll
 0000:fffbd000       .debug$S                   0000000180000000     kernel32:KERNEL32.dll
 0000:fffbd000       .debug$S                   0000000180000000     kernel32:KERNEL32.dll
 0000:fffbd000       .debug$S                   0000000180000000     kernel32:KERNEL32.dll
 0000:fffbd000       .debug$S                   0000000180000000     kernel32:KERNEL32.dll
 0000:fffbd000       .debug$S                   0000000180000000     kernel32:KERNEL32.dll
 0000:fffbd000       .debug$S                   0000000180000000     kernel32:KERNEL32.dll
 0000:fffbd000       .debug$S                   0000000180000000     kernel32:KERNEL32.dll
 0000:fffbd000       .debug$S                   0000000180000000     kernel32:KERNEL32.dll
 0000:fffbd000       .debug$S                   0000000180000000     kernel32:KERNEL32.dll
 0000:fffbd000       .debug$S                   0000000180000000     kernel32:KERNEL32.dll
 0000:fffbd000       .debug$S                   0000000180000000     kernel32:KERNEL32.dll
 0000:fffbd000       .debug$S                   0000000180000000     kernel32:KERNEL32.dll
 0000:fffbd000       .debug$S                   0000000180000000     kernel32:KERNEL32.dll
 0000:fffbd000       .debug$S                   0000000180000000     kernel32:KERNEL32.dll
 0000:fffbd000       .debug$S                   0000000180000000     kernel32:KERNEL32.dll
 0000:fffbd000       .debug$S                   0000000180000000     kernel32:KERNEL32.dll
 0000:fffbd000       .debug$S                   0000000180000000     kernel32:KERNEL32.dll
 0000:fffbd000       .debug$S                   0000000180000000     kernel32:KERNEL32.dll
 0000:fffbd000       .debug$S                   0000000180000000     kernel32:KERNEL32.dll
 0000:fffbd000       .debug$S                   0000000180000000     kernel32:KERNEL32.dll
 0000:fffbd000       .debug$S                   0000000180000000     kernel32:KERNEL32.dll
 0000:fffbd000       .debug$S                   0000000180000000     kernel32:KERNEL32.dll
 0000:fffbd000       .debug$S                   0000000180000000     kernel32:KERNEL32.dll
 0000:fffbd000       .debug$S                   0000000180000000     kernel32:KERNEL32.dll
 0000:fffbd000       .debug$S                   0000000180000000     kernel32:KERNEL32.dll
 0000:fffbd000       .debug$S                   0000000180000000     kernel32:KERNEL32.dll
 0000:fffbd000       .debug$S                   0000000180000000     kernel32:KERNEL32.dll
 0000:fffbd000       .debug$S                   0000000180000000     kernel32:KERNEL32.dll
 0000:fffbd000       .debug$S                   0000000180000000     kernel32:KERNEL32.dll
 0000:fffbd000       .debug$S                   0000000180000000     kernel32:KERNEL32.dll
 0000:fffbd000       .debug$S                   0000000180000000     kernel32:KERNEL32.dll
 0000:fffbd000       .debug$S                   0000000180000000     kernel32:KERNEL32.dll
 0000:fffbd000       .debug$S                   0000000180000000     kernel32:KERNEL32.dll
 0000:fffbd000       .debug$S                   0000000180000000     kernel32:KERNEL32.dll
 0000:fffbd000       .debug$S                   0000000180000000     kernel32:KERNEL32.dll
 0000:fffbd000       .debug$S                   0000000180000000     kernel32:KERNEL32.dll
 0000:fffbd000       .debug$S                   0000000180000000     kernel32:KERNEL32.dll
 0000:fffbd000       .debug$S                   0000000180000000     kernel32:KERNEL32.dll
 0000:fffbd000       .debug$S                   0000000180000000     kernel32:KERNEL32.dll
 0000:fffbd000       .debug$S                   0000000180000000     kernel32:KERNEL32.dll
 0000:fffbd000       .debug$S                   0000000180000000     kernel32:KERNEL32.dll
 0000:fffbd000       .debug$S                   0000000180000000     kernel32:KERNEL32.dll
 0000:fffbd000       .debug$S                   0000000180000000     kernel32:KERNEL32.dll
 0001:00000000       ??__Einitlocks@std@@YAXXZ  0000000180001000 f   libcpmt:xlock.obj
 0001:00000020       ??__E_Fac_tidy_reg@std@@YAXXZ 0000000180001020 f   libcpmt:locale0.obj
 0001:0000002c       ??__Eclassic_locale@std@@YAXXZ 000000018000102c f   libcpmt:locale0.obj
 0001:00000038       ??__Ecerr@std@@YAXXZ       0000000180001038 f   libcpmt:cerr.obj
 0001:00000068       ??__Eferr@std@@YAXXZ       0000000180001068 f   libcpmt:cerr.obj
 0001:000000b8       ??__Einit_cerr@std@@YAXXZ  00000001800010b8 f   libcpmt:cerr.obj
 0001:000000f0       ??__Einitlocks@@YAXXZ      00000001800010f0 f   libcpmt:cerr.obj
 0001:00000110       ??__Einit_atexit@@YAXXZ    0000000180001110 f   libcpmt:iosptrs.obj
 0001:0000011c       ??__Einitlocks@std@@YAXXZ  000000018000111c f   libcpmt:iosptrs.obj
 0001:0000013c       ??__Es_defaultWaiterPool@platform@details@Concurrency@@YAXXZ 000000018000113c f   libconcrt:Platform.obj
 0001:00000148       ??__Eg_DebugOutFilePtr@details@Concurrency@@YAXXZ 0000000180001148 f   libconcrt:utils.obj
 0001:00000164       ??__E?s_cookie@Security@details@Concurrency@@2_KA@@YAXXZ 0000000180001164 f   libconcrt:staticinits.obj
 0001:0000017c       ??__E?s_subAllocatorFreePool@SchedulerBase@details@Concurrency@@0V?$LockFreeStack@VSubAllocator@details@Concurrency@@@23@A@@YAXXZ 000000018000117c f   libconcrt:staticinits.obj
 0001:0000018c       ??__E?m_badAllocExceptionPtr@__ExceptionPtr@@0V?$shared_ptr@V__ExceptionPtr@@@std@@A@@YAXXZ 000000018000118c f   libcpmt:excptptr.obj
 0001:00002b50       ?WorkAsync@@YAXPEAUuv_work_s@@@Z 0000000180003b50 f   rainfall_node.obj
 0001:00002c70       ?WorkAsyncComplete@@YAXPEAUuv_work_s@@H@Z 0000000180003c70 f   rainfall_node.obj
 0001:00003e10       _register_rainfall         0000000180004e10 f   rainfall_node.obj
 0001:00005860       ?load_exe_hook@@YAP6A_JXZIPEAUDelayLoadInfo@@@Z 0000000180006860 f   win_delay_load_hook.obj
 0001:00006274       tidy_global                0000000180007274 f   libcpmt:locale0.obj
 0001:0000747c       no_op_initialize           000000018000847c f i libucrt:wsetlocale.obj
 0001:00008370       ?initialize_pointers@@YAHXZ 0000000180009370 f   libcpmt:winapisupp.obj
 0001:00008ac0       $$000000                   0000000180009ac0     LIBCMT:_amdsecgs_.obj
 0001:00008b38       ?__scrt_initialize_thread_safe_statics@@YAHXZ 0000000180009b38 f   LIBCMT:thread_safe_statics.obj
 0001:00008c58       ?__scrt_uninitialize_thread_safe_statics@@YAXXZ 0000000180009c58 f   LIBCMT:thread_safe_statics.obj
 0001:00009220       ?dllmain_crt_dispatch@@YAHQEAUHINSTANCE__@@KQEAX@Z 000000018000a220 f   LIBCMT:dll_dllmain.obj
 0001:00009270       ?dllmain_crt_process_attach@@YAHQEAUHINSTANCE__@@QEAX@Z 000000018000a270 f   LIBCMT:dll_dllmain.obj
 0001:0000939c       ?dllmain_crt_process_detach@@YAH_N@Z 000000018000a39c f   LIBCMT:dll_dllmain.obj
 0001:00009420       ?dllmain_dispatch@@YAHQEAUHINSTANCE__@@KQEAX@Z 000000018000a420 f   LIBCMT:dll_dllmain.obj
 0001:00009518       ?dllmain_raw@@YAHQEAUHINSTANCE__@@KQEAX@Z 000000018000a518 f   LIBCMT:dll_dllmain.obj
 0001:000096e0       $$000000                   000000018000a6e0     LIBCMT:_chkstk_.obj
 0001:000098fc       capture_current_context    000000018000a8fc f   LIBCMT:gs_report.obj
 0001:0000996c       capture_previous_context   000000018000a96c f   LIBCMT:gs_report.obj
 0001:0000a090       $$000000                   000000018000b090     libvcruntime:memcpy.obj
 0001:0000a137       MoveSmall                  000000018000b137     libvcruntime:memcpy.obj
 0001:0000a604       ?CatchIt@@YAXPEAUEHExceptionRecord@@PEA_KPEAU_CONTEXT@@PEAU_xDISPATCHER_CONTEXT@@PEBU_s_FuncInfo@@PEBU_s_HandlerType@@PEBU_s_CatchableType@@PEBU_s_TryBlockMapEntry@@H1EE@Z 000000018000b604 f   libvcruntime:frame.obj
 0001:0000a6c8       ?ExFilterRethrow@@YAHPEAU_EXCEPTION_POINTERS@@PEAUEHExceptionRecord@@PEAH@Z 000000018000b6c8 f   libvcruntime:frame.obj
 0001:0000a750       ?FindHandler@@YAXPEAUEHExceptionRecord@@PEA_KPEAU_CONTEXT@@PEAU_xDISPATCHER_CONTEXT@@PEBU_s_FuncInfo@@EH1@Z 000000018000b750 f   libvcruntime:frame.obj
 0001:0000ac20       ?FindHandlerForForeignException@@YAXPEAUEHExceptionRecord@@PEA_KPEAU_CONTEXT@@PEAU_xDISPATCHER_CONTEXT@@PEBU_s_FuncInfo@@HH1@Z 000000018000bc20 f   libvcruntime:frame.obj
 0001:0000ae8c       ?IsInExceptionSpec@@YAEPEAUEHExceptionRecord@@PEBU_s_ESTypeList@@@Z 000000018000be8c f   libvcruntime:frame.obj
 0001:0000c240       $$000000                   000000018000d240     libvcruntime:memset.obj
 0001:0000c32c       MsetTab                    000000018000d32c     libvcruntime:memset.obj
 0001:0000c3f0       $$000000                   000000018000d3f0     libvcruntime:memcmp.obj
 0001:0000c4c8       ?try_get_function@@YAPEAXW4function_id@?A0x679b24ab@@QEBDQEBW4module_id@2@2@Z 000000018000d4c8 f   libvcruntime:winapi_downlevel.obj
 0001:0000ce90       $$000000                   000000018000de90     libvcruntime:handlers.obj
 0001:0000cee0       $$000000                   000000018000dee0     libvcruntime:_jmpuwind_.obj
 0001:0000d5a4       call_wsetlocale            000000018000e5a4 f   libucrt:setlocale.obj
 0001:0000dce0       common_flush_all           000000018000ece0 f   libucrt:fflush.obj
 0001:0000e0f4       ?common_fseek@@YAHV__crt_stdio_stream@@_JH@Z 000000018000f0f4 f   libucrt:fseek.obj
 0001:0000e160       ?common_fseek_binary_mode_read_only_fast_track_nolock@@YA_NV__crt_stdio_stream@@_JH@Z 000000018000f160 f   libucrt:fseek.obj
 0001:0000e270       ?common_fseek_nolock@@YAHV__crt_stdio_stream@@_JH@Z 000000018000f270 f   libucrt:fseek.obj
 0001:0000e3b0       ??R<lambda_532e024f4337e6fc7ad266c2bef9f4ed>@@QEBA_KXZ 000000018000f3b0 f   libucrt:fwrite.obj
 0001:0000e674       ??R<lambda_b721fa326cdb32351d23dfa67958c160>@@QEBAHXZ 000000018000f674 f   libucrt:setvbuf.obj
 0001:0000f2b0       $$000000                   00000001800102b0     libucrt:pow.obj
 0001:00010950       $$000000                   0000000180011950     libucrt:powf.obj
 0001:00011898       ?x_ismbbtype_l@@YAHPEAU__crt_locale_pointers@@IHH@Z 0000000180012898 f   libucrt:ismbbyte.obj
 0001:00011924       ?internal_isupper_l@@YA_NHQEAU__crt_locale_pointers@@@Z 0000000180012924 f   libucrt:tolower_toupper.obj
 0001:00011f2c       ?atexit_exception_filter@@YAHK@Z 0000000180012f2c f   libucrt:exit.obj
 0001:00011f38       ?common_exit@@YAXHW4_crt_exit_cleanup_mode@@W4_crt_exit_return_mode@@@Z 0000000180012f38 f   libucrt:exit.obj
 0001:000120a4       ?exit_or_terminate_process@@YAXI@Z 00000001800130a4 f   libucrt:exit.obj
 0001:000120f0       ?try_cor_exit_process@@YAXI@Z 00000001800130f0 f   libucrt:exit.obj
 0001:00012188       ??$parse_command_line@D@@YAXPEADPEAPEAD0PEA_K2@Z 0000000180013188 f   libucrt:argv_parsing.obj
 0001:00012520       ??$common_initialize_environment_nolock@D@@YAHXZ 0000000180013520 f   libucrt:environment_initialization.obj
 0001:0001258c       ??$create_environment@D@@YAQEAPEADQEAD@Z 000000018001358c f   libucrt:environment_initialization.obj
 0001:00012688       ??$free_environment@_W@@YAXQEAPEA_W@Z 0000000180013688 f   libucrt:environment_initialization.obj
 0001:00012688       ??$free_environment@D@@YAXQEAPEAD@Z 0000000180013688 f   libucrt:environment_initialization.obj
 0001:000126cc       ??$uninitialize_environment_internal@D@@YAXAEAPEAPEAD@Z 00000001800136cc f   libucrt:environment_initialization.obj
 0001:000126e8       ??$uninitialize_environment_internal@_W@@YAXAEAPEAPEA_W@Z 00000001800136e8 f   libucrt:environment_initialization.obj
 0001:00012920       ??R<lambda_4e60a939b0d047cfe11ddc22648dfba9>@@QEBAHXZ 0000000180013920 f   libucrt:onexit.obj
 0001:00012bd0       initialize_global_variables 0000000180013bd0 f   libucrt:initialization.obj
 0001:00012be4       initialize_c               0000000180013be4 f   libucrt:initialization.obj
 0001:00012c08       uninitialize_environment   0000000180013c08 f   libucrt:initialization.obj
 0001:00012c18       initialize_pointers        0000000180013c18 f   libucrt:initialization.obj
 0001:00012c6c       uninitialize_vcruntime     0000000180013c6c f   libucrt:initialization.obj
 0001:00012c74       uninitialize_allocated_memory 0000000180013c74 f   libucrt:initialization.obj
 0001:00012e30       $$000000                   0000000180013e30     libucrt:exp.obj
 0001:00013ca8       ?construct_ptd_array@@YAXQEAU__acrt_ptd@@@Z 0000000180014ca8 f   libucrt:per_thread_data.obj
 0001:00013d78       ?destroy_fls@@YAXPEAX@Z    0000000180014d78 f   libucrt:per_thread_data.obj
 0001:00013d98       ?destroy_ptd_array@@YAXQEAU__acrt_ptd@@@Z 0000000180014d98 f   libucrt:per_thread_data.obj
 0001:00013e90       ?replace_current_thread_locale_nolock@@YAXQEAU__acrt_ptd@@QEAU__crt_locale_data@@@Z 0000000180014e90 f   libucrt:per_thread_data.obj
 0001:000145d4       ??R<lambda_2af78c5f5901b1372d98f9ab3177dfa6>@@QEBAXXZ 00000001800155d4 f   libucrt:wsetlocale.obj
 0001:00014998       _copytlocinfo_nolock       0000000180015998 f   libucrt:wsetlocale.obj
 0001:00014f58       _wsetlocale_get_all        0000000180015f58 f   libucrt:wsetlocale.obj
 0001:00015140       _wsetlocale_nolock         0000000180016140 f   libucrt:wsetlocale.obj
 0001:000153c8       _wsetlocale_set_cat        00000001800163c8 f   libucrt:wsetlocale.obj
 0001:00015708       ?<helper_func_cdecl>@<lambda_e2bb8337c48846e80c921ea5ddadc92d>@@CAHPEA_W@Z 0000000180016708 f   libucrt:winapi_thunks.obj
 0001:000157e4       ?try_get_function@@YAPEAXW4function_id@?A0x63058377@@QEBDQEBW4module_id@2@2@Z 00000001800167e4 f   libucrt:winapi_thunks.obj
 0001:000160a0       ?_mbstowcs_l_helper@@YA_KPEA_WPEBD_KPEAU__crt_locale_pointers@@@Z 00000001800170a0 f   libucrt:mbstowcs.obj
 0001:000163cc       ?_wcstombs_l_helper@@YA_KPEADPEB_W_KPEAU__crt_locale_pointers@@@Z 00000001800173cc f   libucrt:wcstombs.obj
 0001:000168e0       ?initialize_inherited_file_handles_nolock@@YAXXZ 00000001800178e0 f   libucrt:ioinit.obj
 0001:000169cc       ?initialize_stdio_handles_nolock@@YAXXZ 00000001800179cc f   libucrt:ioinit.obj
 0001:00016ea4       ?write_double_translated_ansi_nolock@@YA?AUwrite_result@?A0x9c548279@@HQEBDI@Z 0000000180017ea4 f   libucrt:write.obj
 0001:000170ac       ?write_text_ansi_nolock@@YA?AUwrite_result@?A0x9c548279@@HQEBDI@Z 00000001800180ac f   libucrt:write.obj
 0001:000171b4       ?write_text_utf16le_nolock@@YA?AUwrite_result@?A0x9c548279@@HQEBDI@Z 00000001800181b4 f   libucrt:write.obj
 0001:000172d0       ?write_text_utf8_nolock@@YA?AUwrite_result@?A0x9c548279@@HQEBDI@Z 00000001800182d0 f   libucrt:write.obj
 0001:00017814       ??$common_refill_and_read_nolock@D@@YAHV__crt_stdio_stream@@@Z 0000000180018814 f   libucrt:_filbuf.obj
 0001:000179c4       ??$common_ftell@_J@@YA_JV__crt_stdio_stream@@@Z 00000001800189c4 f   libucrt:ftell.obj
 0001:00017a18       ??$common_ftell_nolock@_J@@YA_JV__crt_stdio_stream@@@Z 0000000180018a18 f   libucrt:ftell.obj
 0001:00017b90       ?common_ftell_read_mode_nolock@@YA_JV__crt_stdio_stream@@_J1@Z 0000000180018b90 f   libucrt:ftell.obj
 0001:00017d08       ?common_ftell_translated_utf8_nolock@@YA_JV__crt_stdio_stream@@_J@Z 0000000180018d08 f   libucrt:ftell.obj
 0001:00017e90       ??$write_buffer_nolock@D@@YA_NDV__crt_stdio_stream@@@Z 0000000180018e90 f   libucrt:_flsbuf.obj
 0001:0001807c       ??$common_lseek@_J@@YA_JH_JH@Z 000000018001907c f   libucrt:lseek.obj
 0001:0001816c       ??$common_lseek_nolock@_J@@YA_JH_JH@Z 000000018001916c f   libucrt:lseek.obj
 0001:000184c8       ?InternalGetLocaleInfoA@@YAHQEAU__crt_locale_pointers@@QEB_WKQEADH@Z 00000001800194c8 f   libucrt:getlocaleinfoa.obj
 0001:000189e4       ?__acrt_LCMapStringA_stat@@YAHPEAU__crt_locale_pointers@@PEB_WKPEBDHPEADHHH@Z 00000001800199e4 f   libucrt:lcmapstringa.obj
 0001:00019908       ?<helper_func_cdecl>@<lambda_2feae5270eb4d0d5532525f423405775>@@CAHPEBX0@Z 000000018001a908 f   libucrt:argv_wildcards.obj
 0001:0001991c       ??$common_expand_argv_wildcards@D@@YAHQEAPEADQEAPEAPEAD@Z 000000018001a91c f   libucrt:argv_wildcards.obj
 0001:00019b28       ??$copy_and_add_argument_to_buffer@D@@YAHQEBD0_KAEAV?$argument_list@D@?A0xca0879c4@@@Z 000000018001ab28 f   libucrt:argv_wildcards.obj
 0001:00019c38       ??$expand_argument_wildcards@D@@YAHQEAD0AEAV?$argument_list@D@?A0xca0879c4@@@Z 000000018001ac38 f   libucrt:argv_wildcards.obj
 0001:00019eec       ??R<lambda_ad1ced32f4ac17aa236e5ef05d6b3b7c>@@QEBAXXZ 000000018001aeec f   libucrt:mbctype.obj
 0001:0001a104       ?getSystemCP@@YAHH@Z       000000018001b104 f   libucrt:mbctype.obj
 0001:0001a184       ?setSBCS@@YAXPEAU__crt_multibyte_data@@@Z 000000018001b184 f   libucrt:mbctype.obj
 0001:0001a214       ?setSBUpLow@@YAXPEAU__crt_multibyte_data@@@Z 000000018001b214 f   libucrt:mbctype.obj
 0001:0001a3f8       ?setmbcp_internal@@YAHH_N@Z 000000018001b3f8 f   libucrt:mbctype.obj
 0001:0001a968       uninitialize_c             000000018001b968 f   libucrt:initialization.obj
 0001:0001a968       initialize_global_state_isolation 000000018001b968 f   libucrt:initialization.obj
 0001:0001a968       initialize_environment     000000018001b968 f   libucrt:initialization.obj
 0001:0001a968       report_memory_leaks        000000018001b968 f   libucrt:initialization.obj
 0001:0001a968       uninitialize_global_state_isolation 000000018001b968 f   libucrt:initialization.obj
 0001:0001acfc       _call_matherr              000000018001bcfc f   libucrt:libm_error.obj
 0001:0001ad64       _exception_enabled         000000018001bd64 f   libucrt:libm_error.obj
 0001:0001be44       ?free_crt_array_internal@@YAXQEAPEBX_K@Z 000000018001ce44 f   libucrt:inittime.obj
 0001:0001be9c       ?initialize_lc_time@@YA_NQEAU__crt_lc_time_data@@QEAU__crt_locale_data@@@Z 000000018001ce9c f   libucrt:inittime.obj
 0001:0001c4a8       GetLocaleNameFromDefault   000000018001d4a8 f   libucrt:get_qualified_locale.obj
 0001:0001c550       GetLocaleNameFromLangCountry 000000018001d550 f   libucrt:get_qualified_locale.obj
 0001:0001c620       GetLocaleNameFromLanguage  000000018001d620 f   libucrt:get_qualified_locale.obj
 0001:0001c6bc       LangCountryEnumProcEx      000000018001d6bc f   libucrt:get_qualified_locale.obj
 0001:0001ca70       LanguageEnumProcEx         000000018001da70 f   libucrt:get_qualified_locale.obj
 0001:0001cb5c       ProcessCodePage            000000018001db5c f   libucrt:get_qualified_locale.obj
 0001:0001cc10       TestDefaultCountry         000000018001dc10 f   libucrt:get_qualified_locale.obj
 0001:0001cc78       TranslateName              000000018001dc78 f   libucrt:get_qualified_locale.obj
 0001:0001cf34       CountryEnumProc            000000018001df34 f   libucrt:getqloc_downlevel.obj
 0001:0001d020       GetLcidFromLangCountry     000000018001e020 f   libucrt:getqloc_downlevel.obj
 0001:0001d0f0       GetLcidFromLanguage        000000018001e0f0 f   libucrt:getqloc_downlevel.obj
 0001:0001d188       LangCountryEnumProc        000000018001e188 f   libucrt:getqloc_downlevel.obj
 0001:0001d3cc       LanguageEnumProc           000000018001e3cc f   libucrt:getqloc_downlevel.obj
 0001:0001d4c8       LcidFromHexString          000000018001e4c8 f   libucrt:getqloc_downlevel.obj
 0001:0001d518       ProcessCodePage            000000018001e518 f   libucrt:getqloc_downlevel.obj
 0001:0001d5c8       TestDefaultLanguage        000000018001e5c8 f   libucrt:getqloc_downlevel.obj
 0001:0001d674       TranslateName              000000018001e674 f   libucrt:getqloc_downlevel.obj
 0001:0001d990       ?GetTableIndexFromLocaleName@@YAHPEB_W@Z 000000018001e990 f   libucrt:lcidtoname_downlevel.obj
 0001:0001df48       ??$translate_text_mode_nolock@_W@@YAHHQEA_W_K@Z 000000018001ef48 f   libucrt:read.obj
 0001:0001e178       ?translate_ansi_or_utf8_nolock@@YAHHQEAD_KQEA_W1@Z 000000018001f178 f   libucrt:read.obj
 0001:0001ead0       $$000000                   000000018001fad0     libucrt:fpsr.obj
 0001:0001ec00       ?shortsort@@YAXPEAD0_KP6AHPEBX2@Z@Z 000000018001fc00 f   libucrt:qsort.obj
 0001:0001f144       ?initialize_multibyte@@YAHXZ 0000000180020144 f   libucrt:multibyte_initializer.obj
 0001:0001f198       ??$common_xtox@K_W@@YAHKQEA_W_KI_N@Z 0000000180020198 f   libucrt:xtoa.obj
 0001:0001f244       ??$common_xtox_s@K_W@@YAHKQEA_W_KI_N@Z 0000000180020244 f   libucrt:xtoa.obj
 0001:0001f530       $$000000                   0000000180020530     libucrt:log10.obj
 0001:0001fb90       _log_special_common        0000000180020b90 f   libucrt:log_special.obj
 0001:00020acc       ?_StaticAlloc@@YAPEAX_K@Z  0000000180021acc f   libcpmt:excptptr.obj
 0001:00020cb0       $$000000                   0000000180021cb0     LIBCMT:_guard_dispatch_.obj
 0001:00020cd0       ?dtor$0@?0???$_Make_heap_unchecked@PEAVsample@@U?$less@X@std@@@std@@YAXPEAVsample@@0AEAU?$less@X@0@@Z@4HA 0000000180021cd0 f   rainfall.obj
 0001:00020cd0       ?dtor$0@?0???$_Partition_by_median_guess_unchecked@PEAVsample@@U?$less@X@std@@@std@@YA?AU?$pair@PEAVsample@@PEAV1@@0@PEAVsample@@0AEAU?$less@X@0@@Z@4HA 0000000180021cd0 f   rainfall.obj
 0001:00020cd0       ?dtor$0@?0???$_Sort_heap_unchecked@PEAVsample@@U?$less@X@std@@@std@@YAXPEAVsample@@0AEAU?$less@X@0@@Z@4HA 0000000180021cd0 f   rainfall.obj
 0001:00020ce0       ?dtor$0@?0???$swap@Vsample@@X@std@@YAXAEAVsample@@0@Z@4HA 0000000180021ce0 f   rainfall.obj
 0001:00020ce0       ?dtor$0@?0???$_Insertion_sort_unchecked@PEAVsample@@U?$less@X@std@@@std@@YAXPEAVsample@@0AEAU?$less@X@0@@Z@4HA 0000000180021ce0 f   rainfall.obj
 0001:00020cf0       ?dtor$0@?0??NODE_SET_METHOD@node@@YAXV?$Local@VObject@v8@@@v8@@PEBDP6AXAEBV?$FunctionCallbackInfo@VValue@v8@@@3@@Z@Z@4HA 0000000180021cf0 f   rainfall_node.obj
 0001:00020d00       ?dtor$0@?0???0_Locinfo@std@@QEAA@PEBD@Z@4HA 0000000180021d00 f   rainfall_node.obj
 0001:00020d0c       ?dtor$1@?0???0_Locinfo@std@@QEAA@PEBD@Z@4HA 0000000180021d0c f   rainfall_node.obj
 0001:00020d1c       ?dtor$2@?0???0_Locinfo@std@@QEAA@PEBD@Z@4HA 0000000180021d1c f   rainfall_node.obj
 0001:00020d2c       ?dtor$3@?0???0_Locinfo@std@@QEAA@PEBD@Z@4HA 0000000180021d2c f   rainfall_node.obj
 0001:00020d3c       ?dtor$4@?0???0_Locinfo@std@@QEAA@PEBD@Z@4HA 0000000180021d3c f   rainfall_node.obj
 0001:00020d4c       ?dtor$5@?0???0_Locinfo@std@@QEAA@PEBD@Z@4HA 0000000180021d4c f   rainfall_node.obj
 0001:00020d5c       ?dtor$6@?0???0_Locinfo@std@@QEAA@PEBD@Z@4HA 0000000180021d5c f   rainfall_node.obj
 0001:00020d6c       ?dtor$7@?0???0_Locinfo@std@@QEAA@PEBD@Z@4HA 0000000180021d6c f   rainfall_node.obj
 0001:00020d80       ?dtor$0@?0??_Getcat@?$ctype@D@std@@SA_KPEAPEBVfacet@locale@2@PEBV42@@Z@4HA 0000000180021d80 f   rainfall_node.obj
 0001:00020da0       ?dtor$2@?0??_Getcat@?$ctype@D@std@@SA_KPEAPEBVfacet@locale@2@PEBV42@@Z@4HA 0000000180021da0 f   rainfall_node.obj
 0001:00020dac       ?dtor$3@?0??_Getcat@?$ctype@D@std@@SA_KPEAPEBVfacet@locale@2@PEBV42@@Z@4HA 0000000180021dac f   rainfall_node.obj
 0001:00020dbc       ?dtor$4@?0??_Getcat@?$ctype@D@std@@SA_KPEAPEBVfacet@locale@2@PEBV42@@Z@4HA 0000000180021dbc f   rainfall_node.obj
 0001:00020dcc       ?dtor$5@?0??_Getcat@?$ctype@D@std@@SA_KPEAPEBVfacet@locale@2@PEBV42@@Z@4HA 0000000180021dcc f   rainfall_node.obj
 0001:00020ddc       ?dtor$6@?0??_Getcat@?$ctype@D@std@@SA_KPEAPEBVfacet@locale@2@PEBV42@@Z@4HA 0000000180021ddc f   rainfall_node.obj
 0001:00020dec       ?dtor$7@?0??_Getcat@?$ctype@D@std@@SA_KPEAPEBVfacet@locale@2@PEBV42@@Z@4HA 0000000180021dec f   rainfall_node.obj
 0001:00020dfc       ?dtor$8@?0??_Getcat@?$ctype@D@std@@SA_KPEAPEBVfacet@locale@2@PEBV42@@Z@4HA 0000000180021dfc f   rainfall_node.obj
 0001:00020e0c       ?dtor$9@?0??_Getcat@?$ctype@D@std@@SA_KPEAPEBVfacet@locale@2@PEBV42@@Z@4HA 0000000180021e0c f   rainfall_node.obj
 0001:00020e20       ?dtor$0@?0??_Makestr@_System_error@std@@CA?AV?$basic_string@DU?$char_traits@D@std@@V?$allocator@D@2@@2@Verror_code@2@V32@@Z@4HA 0000000180021e20 f   rainfall_node.obj
 0001:00020e2c       ?dtor$1@?0??_Makestr@_System_error@std@@CA?AV?$basic_string@DU?$char_traits@D@std@@V?$allocator@D@2@@2@Verror_code@2@V32@@Z@4HA 0000000180021e2c f   rainfall_node.obj
 0001:00020e40       ?dtor$4@?0??clear@ios_base@std@@QEAAXH_N@Z@4HA 0000000180021e40 f   rainfall_node.obj
 0001:00020e4c       ?dtor$0@?0??clear@ios_base@std@@QEAAXH_N@Z@4HA 0000000180021e4c f   rainfall_node.obj
 0001:00020e58       ?dtor$14@?0??clear@ios_base@std@@QEAAXH_N@Z@4HA 0000000180021e58 f   rainfall_node.obj
 0001:00020e64       ?dtor$1@?0??clear@ios_base@std@@QEAAXH_N@Z@4HA 0000000180021e64 f   rainfall_node.obj
 0001:00020e70       ?dtor$24@?0??clear@ios_base@std@@QEAAXH_N@Z@4HA 0000000180021e70 f   rainfall_node.obj
 0001:00020e7c       ?dtor$2@?0??clear@ios_base@std@@QEAAXH_N@Z@4HA 0000000180021e7c f   rainfall_node.obj
 0001:00020e90       ?dtor$0@?0??WorkAsyncComplete@@YAXPEAUuv_work_s@@H@Z@4HA 0000000180021e90 f   rainfall_node.obj
 0001:00020ea0       ?dtor$0@?0??AvgRainfall@@YAXAEBV?$FunctionCallbackInfo@VValue@v8@@@v8@@@Z@4HA 0000000180021ea0 f   rainfall_node.obj
 0001:00020ea0       ?dtor$1@?0??CalculateResultsAsync@@YAXAEBV?$FunctionCallbackInfo@VValue@v8@@@v8@@@Z@4HA 0000000180021ea0 f   rainfall_node.obj
 0001:00020eb0       ?dtor$0@?0??CalculateResultsSync@@YAXAEBV?$FunctionCallbackInfo@VValue@v8@@@v8@@@Z@4HA 0000000180021eb0 f   rainfall_node.obj
 0001:00020ebc       ?dtor$1@?0??CalculateResultsSync@@YAXAEBV?$FunctionCallbackInfo@VValue@v8@@@v8@@@Z@4HA 0000000180021ebc f   rainfall_node.obj
 0001:00020ec8       ?dtor$2@?0??CalculateResultsSync@@YAXAEBV?$FunctionCallbackInfo@VValue@v8@@@v8@@@Z@4HA 0000000180021ec8 f   rainfall_node.obj
 0001:00020ed4       ?dtor$4@?0??CalculateResultsSync@@YAXAEBV?$FunctionCallbackInfo@VValue@v8@@@v8@@@Z@4HA 0000000180021ed4 f   rainfall_node.obj
 0001:00020ee0       ?dtor$0@?0??CalculateResults@@YAXAEBV?$FunctionCallbackInfo@VValue@v8@@@v8@@@Z@4HA 0000000180021ee0 f   rainfall_node.obj
 0001:00020eec       ?dtor$1@?0??CalculateResults@@YAXAEBV?$FunctionCallbackInfo@VValue@v8@@@v8@@@Z@4HA 0000000180021eec f   rainfall_node.obj
 0001:00020ef8       ?dtor$2@?0??CalculateResults@@YAXAEBV?$FunctionCallbackInfo@VValue@v8@@@v8@@@Z@4HA 0000000180021ef8 f   rainfall_node.obj
 0001:00020f10       ?dtor$0@?0??RainfallData@@YAXAEBV?$FunctionCallbackInfo@VValue@v8@@@v8@@@Z@4HA 0000000180021f10 f   rainfall_node.obj
 0001:00020f20       ?dtor$3@?0??unpack_sample@@YA?AVsample@@PEAVIsolate@v8@@V?$Local@VObject@v8@@@3@@Z@4HA 0000000180021f20 f   rainfall_node.obj
 0001:00020f2c       ?dtor$0@?0??unpack_sample@@YA?AVsample@@PEAVIsolate@v8@@V?$Local@VObject@v8@@@3@@Z@4HA 0000000180021f2c f   rainfall_node.obj
 0001:00020f52       ?dtor$1@?0??unpack_sample@@YA?AVsample@@PEAVIsolate@v8@@V?$Local@VObject@v8@@@3@@Z@4HA 0000000180021f52 f   rainfall_node.obj
 0001:00020f60       ?dtor$2@?0??unpack_sample@@YA?AVsample@@PEAVIsolate@v8@@V?$Local@VObject@v8@@@3@@Z@4HA 0000000180021f60 f   rainfall_node.obj
 0001:00020f70       ?dtor$0@?0??unpack_location@@YA?AVlocation@@PEAVIsolate@v8@@V?$Local@VObject@v8@@@3@@Z@4HA 0000000180021f70 f   rainfall_node.obj
 0001:00020f96       ?dtor$1@?0??unpack_location@@YA?AVlocation@@PEAVIsolate@v8@@V?$Local@VObject@v8@@@3@@Z@4HA 0000000180021f96 f   rainfall_node.obj
 0001:00020fb0       ?dtor$0@?0??push_back@?$vector@Vsample@@V?$allocator@Vsample@@@std@@@std@@QEAAXAEBVsample@@@Z@4HA 0000000180021fb0 f   rainfall_node.obj
 0001:00020fcc       ?dtor$2@?0??push_back@?$vector@Vsample@@V?$allocator@Vsample@@@std@@@std@@QEAAXAEBVsample@@@Z@4HA 0000000180021fcc f   rainfall_node.obj
 0001:00020ff0       ?dtor$0@?0???$use_facet@V?$ctype@D@std@@@std@@YAAEBV?$ctype@D@0@AEBVlocale@0@@Z@4HA 0000000180021ff0 f   rainfall_node.obj
 0001:00021000       ?dtor$1@?0???$?6U?$char_traits@D@std@@@std@@YAAEAV?$basic_ostream@DU?$char_traits@D@std@@@0@AEAV10@PEBD@Z@4HA 0000000180022000 f   rainfall_node.obj
 0001:00021000       ?dtor$1@?0??put@?$basic_ostream@DU?$char_traits@D@std@@@std@@QEAAAEAV12@D@Z@4HA 0000000180022000 f   rainfall_node.obj
 0001:0002100c       ?dtor$0@?0??put@?$basic_ostream@DU?$char_traits@D@std@@@std@@QEAAAEAV12@D@Z@4HA 000000018002200c f   rainfall_node.obj
 0001:0002100c       ?dtor$0@?0???$?6U?$char_traits@D@std@@@std@@YAAEAV?$basic_ostream@DU?$char_traits@D@std@@@0@AEAV10@PEBD@Z@4HA 000000018002200c f   rainfall_node.obj
 0001:00021020       ?dtor$0@?0???0sentry@?$basic_ostream@DU?$char_traits@D@std@@@std@@QEAA@AEAV12@@Z@4HA 0000000180022020 f   rainfall_node.obj
 0001:00021030       ?dtor$0@?0??flush@?$basic_ostream@DU?$char_traits@D@std@@@std@@QEAAAEAV12@XZ@4HA 0000000180022030 f   rainfall_node.obj
 0001:00021040       ?dtor$0@?0??widen@?$basic_ios@DU?$char_traits@D@std@@@std@@QEBADD@Z@4HA 0000000180022040 f   rainfall_node.obj
 0001:0002104c       ?dtor$0@?0??_Locimp_dtor@_Locimp@locale@std@@CAXPEAV123@@Z@4HA 000000018002204c f   libcpmt:locale0.obj
 0001:0002104c       ?dtor$0@?0??_Init@locale@std@@CAPEAV_Locimp@12@_N@Z@4HA 000000018002204c f   libcpmt:locale0.obj
 0001:00021058       ?dtor$0@?0???$use_facet@V?$codecvt@DDU_Mbstatet@@@std@@@std@@YAAEBV?$codecvt@DDU_Mbstatet@@@0@AEBVlocale@0@@Z@4HA 0000000180022058 f   libcpmt:cerr.obj
 0001:00021064       ?dtor$0@?0???0?$basic_ostream@DU?$char_traits@D@std@@@std@@QEAA@PEAV?$basic_streambuf@DU?$char_traits@D@std@@@1@_N@Z@4HA 0000000180022064 f   libcpmt:cerr.obj
 0001:0002108e       ?dtor$0@?0??_Endwrite@?$basic_filebuf@DU?$char_traits@D@std@@@std@@IEAA_NXZ@4HA 000000018002208e f   libcpmt:cerr.obj
 0001:0002109a       ?dtor$0@?0??_Getcat@?$codecvt@DDU_Mbstatet@@@std@@SA_KPEAPEBVfacet@locale@2@PEBV42@@Z@4HA 000000018002209a f   libcpmt:cerr.obj
 0001:000210ba       ?dtor$0@?0??overflow@?$basic_filebuf@DU?$char_traits@D@std@@@std@@MEAAHH@Z@4HA 00000001800220ba f   libcpmt:cerr.obj
 0001:000210ba       ?dtor$0@?0??uflow@?$basic_filebuf@DU?$char_traits@D@std@@@std@@MEAAHXZ@4HA 00000001800220ba f   libcpmt:cerr.obj
 0001:000210c6       __scrt_is_nonwritable_in_current_image$filt$0 00000001800220c6 f   LIBCMT:utility.obj
 0001:000210de       ?fin$0@?0??dllmain_crt_process_attach@@YAHQEAUHINSTANCE__@@QEAX@Z@4HA 00000001800220de f   LIBCMT:dll_dllmain.obj
 0001:000210f5       ?fin$0@?0??dllmain_crt_process_detach@@YAH_N@Z@4HA 00000001800220f5 f   LIBCMT:dll_dllmain.obj
 0001:00021111       ?filt$0@?0??dllmain_dispatch@@YAHQEAUHINSTANCE__@@KQEAX@Z@4HA 0000000180022111 f   LIBCMT:dll_dllmain.obj
 0001:00021147       __CxxCallCatchBlock$filt$0 0000000180022147 f   libvcruntime:frame.obj
 0001:0002116c       __CxxCallCatchBlock$fin$1  000000018002216c f   libvcruntime:frame.obj
 0001:000211e4       __DestructExceptionObject$filt$0 00000001800221e4 f   libvcruntime:frame.obj
 0001:000211fc       __FrameUnwindToState$filt$0 00000001800221fc f   libvcruntime:frame.obj
 0001:00021212       __FrameUnwindToState$fin$1 0000000180022212 f   libvcruntime:frame.obj
 0001:00021235       _CallSETranslator$filt$0   0000000180022235 f   libvcruntime:trnsctrl.obj
 0001:00021281       setlocale$fin$0            0000000180022281 f   libucrt:setlocale.obj
 0001:0002129c       fclose$fin$0               000000018002229c f   libucrt:fclose.obj
 0001:0002129c       fflush$fin$0               000000018002229c f   libucrt:fflush.obj
 0001:000212b4       common_flush_all$fin$0     00000001800222b4 f   libucrt:fflush.obj
 0001:000212ce       common_flush_all$fin$1     00000001800222ce f   libucrt:fflush.obj
 0001:000212e7       fgetc$fin$0                00000001800222e7 f   libucrt:fgetc.obj
 0001:00021301       fputc$fin$0                0000000180022301 f   libucrt:fputc.obj
 0001:0002131b       ?fin$0@?0???$common_ftell@_J@@YA_JV__crt_stdio_stream@@@Z@4HA 000000018002231b f   libucrt:ftell.obj
 0001:0002131b       ?fin$0@?0??common_fseek@@YAHV__crt_stdio_stream@@_JH@Z@4HA 000000018002231b f   libucrt:fseek.obj
 0001:00021335       ?fin$0@?0???$?RV<lambda_7a5ef57ff966f610505f1d28a3d40618>@@AEAV<lambda_b721fa326cdb32351d23dfa67958c160>@@V<lambda_5e0fb27672408a07956fe59e48ccb2aa>@@@?$__crt_seh_guarded_call@H@@QEAAH$$QEAV<lambda_7a5ef57ff966f610505f1d28a3d40618>@@AEAV<lambda_b721fa326cdb32351d23dfa67958c160>@@$$QEAV<lambda_5e0fb27672408a07956fe59e48ccb2aa>@@@Z@4HA 0000000180022335 f   libucrt:setvbuf.obj
 0001:00021335       ?fin$0@?0???$?RV<lambda_5d4c3fee44080f75d5d9762853974fe0>@@AEAV<lambda_532e024f4337e6fc7ad266c2bef9f4ed>@@V<lambda_c87bdc10097eb2402edb8ba9bdf0697b>@@@?$__crt_seh_guarded_call@_K@@QEAA_K$$QEAV<lambda_5d4c3fee44080f75d5d9762853974fe0>@@AEAV<lambda_532e024f4337e6fc7ad266c2bef9f4ed>@@$$QEAV<lambda_c87bdc10097eb2402edb8ba9bdf0697b>@@@Z@4HA 0000000180022335 f   libucrt:fwrite.obj
 0001:00021350       ungetc$fin$0               0000000180022350 f   libucrt:ungetc.obj
 0001:00021368       _query_new_handler$fin$0   0000000180022368 f   libucrt:new_handler.obj
 0001:0002137e       ?filt$0@?0??common_exit@@YAXHW4_crt_exit_cleanup_mode@@W4_crt_exit_return_mode@@@Z@4HA 000000018002237e f   libucrt:exit.obj
 0001:00021399       ?fin$1@?0??common_exit@@YAXHW4_crt_exit_cleanup_mode@@W4_crt_exit_return_mode@@@Z@4HA 0000000180022399 f   libucrt:exit.obj
 0001:000213b2       ?fin$0@?0???$?RV<lambda_e24bbb7b643b32fcea6fa61b31d4c984>@@AEAV<lambda_275893d493268fdec8709772e3fcec0e>@@V<lambda_9d71df4d7cf3f480f8d633942495c3b0>@@@?$__crt_seh_guarded_call@H@@QEAAH$$QEAV<lambda_e24bbb7b643b32fcea6fa61b31d4c984>@@AEAV<lambda_275893d493268fdec8709772e3fcec0e>@@$$QEAV<lambda_9d71df4d7cf3f480f8d633942495c3b0>@@@Z@4HA 00000001800223b2 f   libucrt:onexit.obj
 0001:000213cf       raise$fin$0                00000001800223cf f   libucrt:signal.obj
 0001:000213f3       ?fin$0@?0???$?RV<lambda_5df02c53a8f32f81fd64e5bbb78039f1>@@AEAV<lambda_2af78c5f5901b1372d98f9ab3177dfa6>@@AEAV<lambda_f51fe5fd7c79a33db34fc9310f277369>@@@?$__crt_seh_guarded_call@X@@QEAAX$$QEAV<lambda_5df02c53a8f32f81fd64e5bbb78039f1>@@AEAV<lambda_2af78c5f5901b1372d98f9ab3177dfa6>@@AEAV<lambda_f51fe5fd7c79a33db34fc9310f277369>@@@Z@4HA 00000001800223f3 f   libucrt:wsetlocale.obj
 0001:00021414       ?fin$0@?0???$?RV<lambda_630b2aca97f6d20d5b5ea6529ea6b6af>@@AEAV<lambda_af91936f1d075d609f72d9d8cba980af>@@V<lambda_e82fa975f615b5c7c7b0e4d178fdae67>@@@?$__crt_seh_guarded_call@H@@QEAAH$$QEAV<lambda_630b2aca97f6d20d5b5ea6529ea6b6af>@@AEAV<lambda_af91936f1d075d609f72d9d8cba980af>@@$$QEAV<lambda_e82fa975f615b5c7c7b0e4d178fdae67>@@@Z@4HA 0000000180022414 f   libucrt:winapi_thunks.obj
 0001:00021414       ?fin$0@?0???$?RV<lambda_d67e8342c384adda8f857579ab50b2ae>@@AEAV<lambda_30712929f77e709619002f448b6a9510>@@V<lambda_4525336fd7e478d965fb7ca7a337cad8>@@@?$__crt_seh_guarded_call@X@@QEAAX$$QEAV<lambda_d67e8342c384adda8f857579ab50b2ae>@@AEAV<lambda_30712929f77e709619002f448b6a9510>@@$$QEAV<lambda_4525336fd7e478d965fb7ca7a337cad8>@@@Z@4HA 0000000180022414 f   libucrt:wsetlocale.obj
 0001:00021414       ?fin$0@?0???$?RV<lambda_b8c45f8f788dd370798f47cfe8ac3a86>@@AEAV<lambda_4e60a939b0d047cfe11ddc22648dfba9>@@V<lambda_332c3edc96d0294ec56c57d38c1cdfd5>@@@?$__crt_seh_guarded_call@H@@QEAAH$$QEAV<lambda_b8c45f8f788dd370798f47cfe8ac3a86>@@AEAV<lambda_4e60a939b0d047cfe11ddc22648dfba9>@@$$QEAV<lambda_332c3edc96d0294ec56c57d38c1cdfd5>@@@Z@4HA 0000000180022414 f   libucrt:onexit.obj
 0001:00021414       ?fin$0@?0???$?RV<lambda_5e887d1dcbef67a5eb4283622ba103bf>@@AEAV<lambda_4466841279450cc726390878d4a41900>@@V<lambda_341c25c0346d94847f1f3c463c57e077>@@@?$__crt_seh_guarded_call@X@@QEAAX$$QEAV<lambda_5e887d1dcbef67a5eb4283622ba103bf>@@AEAV<lambda_4466841279450cc726390878d4a41900>@@$$QEAV<lambda_341c25c0346d94847f1f3c463c57e077>@@@Z@4HA 0000000180022414 f   libucrt:per_thread_data.obj
 0001:00021414       ?fin$0@?0???$?RV<lambda_72d1df2b273a38828b1ce30cbf4cdab5>@@AEAV<lambda_876a65b173b8412d3a47c70a915b0cf4>@@V<lambda_41932305e351933ebe8f8be3ed8bb5dc>@@@?$__crt_seh_guarded_call@X@@QEAAX$$QEAV<lambda_72d1df2b273a38828b1ce30cbf4cdab5>@@AEAV<lambda_876a65b173b8412d3a47c70a915b0cf4>@@$$QEAV<lambda_41932305e351933ebe8f8be3ed8bb5dc>@@@Z@4HA 0000000180022414 f   libucrt:per_thread_data.obj
 0001:00021414       ?fin$0@?0???$?RV<lambda_c36588078e9f5dfd39652860aa6b3aaf>@@AEAV<lambda_ec61778202f4f5fc7e7711acc23c3bca>@@V<lambda_dc9d2797ccde5d239b4a0efae8ebd7db>@@@?$__crt_seh_guarded_call@P6AXH@Z@@QEAAP6AXH@Z$$QEAV<lambda_c36588078e9f5dfd39652860aa6b3aaf>@@AEAV<lambda_ec61778202f4f5fc7e7711acc23c3bca>@@$$QEAV<lambda_dc9d2797ccde5d239b4a0efae8ebd7db>@@@Z@4HA 0000000180022414 f   libucrt:signal.obj
 0001:00021414       ?fin$0@?0???$?RV<lambda_46352004c1216016012b18bd6f87e700>@@AEAV<lambda_3bd07e1a1191394380780325891bf33f>@@V<lambda_334532d3f185bcaa59b5be82d7d22bff>@@@?$__crt_seh_guarded_call@X@@QEAAX$$QEAV<lambda_46352004c1216016012b18bd6f87e700>@@AEAV<lambda_3bd07e1a1191394380780325891bf33f>@@$$QEAV<lambda_334532d3f185bcaa59b5be82d7d22bff>@@@Z@4HA 0000000180022414 f   libucrt:per_thread_data.obj
 0001:00021414       ?fin$0@?0???$?RV<lambda_99476a1ad63dd22509b5d3e65b0ffc95>@@AEAV<lambda_ad1ced32f4ac17aa236e5ef05d6b3b7c>@@V<lambda_f7424dd8d45958661754dc4f2697e9c3>@@@?$__crt_seh_guarded_call@X@@QEAAX$$QEAV<lambda_99476a1ad63dd22509b5d3e65b0ffc95>@@AEAV<lambda_ad1ced32f4ac17aa236e5ef05d6b3b7c>@@$$QEAV<lambda_f7424dd8d45958661754dc4f2697e9c3>@@@Z@4HA 0000000180022414 f   libucrt:mbctype.obj
 0001:00021414       ?fin$0@?0???$?RV<lambda_fb3a7dec4e47f37f22dae91bb15c9095>@@AEAV<lambda_698284760c8add0bfb0756c19673e34b>@@V<lambda_dfb8eca1e75fef3034a8fb18dd509707>@@@?$__crt_seh_guarded_call@X@@QEAAX$$QEAV<lambda_fb3a7dec4e47f37f22dae91bb15c9095>@@AEAV<lambda_698284760c8add0bfb0756c19673e34b>@@$$QEAV<lambda_dfb8eca1e75fef3034a8fb18dd509707>@@@Z@4HA 0000000180022414 f   libucrt:per_thread_data.obj
 0001:0002142e       _fcloseall$fin$0           000000018002242e f   libucrt:closeall.obj
 0001:00021447       __acrt_initialize_lowio$fin$0 0000000180022447 f   libucrt:ioinit.obj
 0001:00021447       __acrt_lowio_ensure_fh_exists$fin$0 0000000180022447 f   libucrt:osfinfo.obj
 0001:00021460       ?fin$0@?0???$?RV<lambda_b521505b218e5242e90febf6bfebc422>@@AEAV<lambda_6978c1fb23f02e42e1d9e99668cc68aa>@@V<lambda_314360699dd331753a4119843814e9a7>@@@?$__crt_seh_guarded_call@H@@QEAAH$$QEAV<lambda_b521505b218e5242e90febf6bfebc422>@@AEAV<lambda_6978c1fb23f02e42e1d9e99668cc68aa>@@$$QEAV<lambda_314360699dd331753a4119843814e9a7>@@@Z@4HA 0000000180022460 f   libucrt:commit.obj
 0001:00021460       ?fin$0@?0???$?RV<lambda_bfedae4ebbf01fab1bb6dcc6a9e276e0>@@AEAV<lambda_2fe9b910cf3cbf4a0ab98a02ba45b3ec>@@V<lambda_237c231691f317818eb88cc1d5d642d6>@@@?$__crt_seh_guarded_call@H@@QEAAH$$QEAV<lambda_bfedae4ebbf01fab1bb6dcc6a9e276e0>@@AEAV<lambda_2fe9b910cf3cbf4a0ab98a02ba45b3ec>@@$$QEAV<lambda_237c231691f317818eb88cc1d5d642d6>@@@Z@4HA 0000000180022460 f   libucrt:close.obj
 0001:0002147a       _write$fin$0               000000018002247a f   libucrt:write.obj
 0001:0002147a       ?fin$0@?0???$common_lseek@_J@@YA_JH_JH@Z@4HA 000000018002247a f   libucrt:lseek.obj
 0001:0002147a       _read$fin$0                000000018002247a f   libucrt:read.obj
 0001:00021491       _ctrlfp$filt$0             0000000180022491 f   libucrt:fpctrl.obj
 0001:000214bd       __acrt_update_thread_multibyte_data$fin$0 00000001800224bd f   libucrt:mbctype.obj
 0001:000214d6       __acrt_uninitialize_locale$fin$0 00000001800224d6 f   libucrt:wsetlocale.obj
 0001:000214d6       __acrt_update_thread_locale_data$fin$0 00000001800224d6 f   libucrt:locale_refcounting.obj
 0001:000214ef       ?dtor$0@?0???$?0AEAPEAUEHExceptionRecord@@_N@?$_Ref_count_obj_alloc@V__ExceptionPtr@@U?$_StaticAllocator@H@@@std@@QEAA@AEBU?$_StaticAllocator@H@@AEAPEAUEHExceptionRecord@@$$QEA_N@Z@4HA 00000001800224ef f   libcpmt:excptptr.obj
 0001:000214fb       ?dtor$1@?0???$?0AEAPEAUEHExceptionRecord@@_N@?$_Ref_count_obj_alloc@V__ExceptionPtr@@U?$_StaticAllocator@H@@@std@@QEAA@AEBU?$_StaticAllocator@H@@AEAPEAUEHExceptionRecord@@$$QEA_N@Z@4HA 00000001800224fb f   libcpmt:excptptr.obj
 0001:00021517       ?dtor$11@?0???$allocate_shared@V__ExceptionPtr@@U?$_StaticAllocator@H@@AEAPEAUEHExceptionRecord@@_N@std@@YA?AV?$shared_ptr@V__ExceptionPtr@@@0@AEBU?$_StaticAllocator@H@@AEAPEAUEHExceptionRecord@@$$QEA_N@Z@4HA 0000000180022517 f   libcpmt:excptptr.obj
 0001:00021533       ?catch$18@?0???$allocate_shared@V__ExceptionPtr@@U?$_StaticAllocator@H@@AEAPEAUEHExceptionRecord@@_N@std@@YA?AV?$shared_ptr@V__ExceptionPtr@@@0@AEBU?$_StaticAllocator@H@@AEAPEAUEHExceptionRecord@@$$QEA_N@Z@4HA 0000000180022533 f   libcpmt:excptptr.obj
 0001:00021540       __catch$??$allocate_shared@V__ExceptionPtr@@U?$_StaticAllocator@H@@AEAPEAUEHExceptionRecord@@_N@std@@YA?AV?$shared_ptr@V__ExceptionPtr@@@0@AEBU?$_StaticAllocator@H@@AEAPEAUEHExceptionRecord@@$$QEA_N@Z$0 0000000180022540 f   libcpmt:excptptr.obj
 0001:0002154a       ?dtor$0@?0???$make_shared@V__ExceptionPtr@@AEAPEAUEHExceptionRecord@@_N@std@@YA?AV?$shared_ptr@V__ExceptionPtr@@@0@AEAPEAUEHExceptionRecord@@$$QEA_N@Z@4HA 000000018002254a f   libcpmt:excptptr.obj
 0001:00021567       ?dtor$4@?0???$make_shared@V__ExceptionPtr@@AEAPEAUEHExceptionRecord@@_N@std@@YA?AV?$shared_ptr@V__ExceptionPtr@@@0@AEAPEAUEHExceptionRecord@@$$QEA_N@Z@4HA 0000000180022567 f   libcpmt:excptptr.obj
 0001:00021573       ?dtor$5@?0???$make_shared@V__ExceptionPtr@@AEAPEAUEHExceptionRecord@@_N@std@@YA?AV?$shared_ptr@V__ExceptionPtr@@@0@AEAPEAUEHExceptionRecord@@$$QEA_N@Z@4HA 0000000180022573 f   libcpmt:excptptr.obj
 0001:00021593       ?catch$0@?0??_CallCopyCtor@__ExceptionPtr@@AEBAXPEAX0_KQEBU_s_CatchableType@@@Z@4HA 0000000180022593 f   libcpmt:excptptr.obj
 0001:000215a0       __catch$?_CallCopyCtor@__ExceptionPtr@@AEBAXPEAX0_KQEBU_s_CatchableType@@@Z$0 00000001800225a0 f   libcpmt:excptptr.obj
 0001:000215a6       ?catch$3@?0??_CopyException@__ExceptionPtr@@SA?AV?$shared_ptr@V__ExceptionPtr@@@std@@PEBXPEBU_s_ThrowInfo@@_N@Z@4HA 00000001800225a6 f   libcpmt:excptptr.obj
 0001:000215b3       __catch$?_CopyException@__ExceptionPtr@@SA?AV?$shared_ptr@V__ExceptionPtr@@@std@@PEBXPEBU_s_ThrowInfo@@_N@Z$0 00000001800225b3 f   libcpmt:excptptr.obj
 0001:000215ef       ?catch$4@?0??_CopyException@__ExceptionPtr@@SA?AV?$shared_ptr@V__ExceptionPtr@@@std@@PEBXPEBU_s_ThrowInfo@@_N@Z@4HA 00000001800225ef f   libcpmt:excptptr.obj
 0001:000215fc       __catch$?_CopyException@__ExceptionPtr@@SA?AV?$shared_ptr@V__ExceptionPtr@@@std@@PEBXPEBU_s_ThrowInfo@@_N@Z$1 00000001800225fc f   libcpmt:excptptr.obj
 0001:00021602       ?dtor$0@?0??_InitBadAllocException@__ExceptionPtr@@CA?AV?$shared_ptr@V__ExceptionPtr@@@std@@XZ@4HA 0000000180022602 f   libcpmt:excptptr.obj
 0001:00021610       _IsNonwritableInCurrentImage$filt$0 0000000180022610 f   LIBCMT:pesect.obj
 0001:00021634       ??__Finitlocks@std@@YAXXZ  0000000180022634 f   libcpmt:xlock.obj
 0001:00021640       ??__F_Fac_tidy_reg@std@@YAXXZ 0000000180022640 f   libcpmt:locale0.obj
 0001:0002166c       ??__Fclassic_locale@std@@YAXXZ 000000018002266c f   libcpmt:locale0.obj
 0001:000216cc       ??__Fcerr@std@@YAXXZ       00000001800226cc f   libcpmt:cerr.obj
 0001:0002172c       ??__Fferr@std@@YAXXZ       000000018002272c f   libcpmt:cerr.obj
 0001:00021738       ??__Finitlocks@@YAXXZ      0000000180022738 f   libcpmt:cerr.obj
 0001:00021744       ??__Finit_atexit@@YAXXZ    0000000180022744 f   libcpmt:iosptrs.obj
 0001:00021798       ??__Finitlocks@std@@YAXXZ  0000000180022798 f   libcpmt:iosptrs.obj
 0001:000217a4       ??__Fs_defaultWaiterPool@platform@details@Concurrency@@YAXXZ 00000001800227a4 f   libconcrt:Platform.obj
 0001:000217b0       ??__F?m_badAllocExceptionPtr@__ExceptionPtr@@0V?$shared_ptr@V__ExceptionPtr@@@std@@A@@YAXXZ 00000001800227b0 f   libcpmt:excptptr.obj
 0002:000002d8       ?initlocks$initializer$@std@@3P6AXXZEA 00000001800232d8     libcpmt:xlock.obj
 0002:000002e0       ?initlocks$initializer$@@3P6AXXZEA 00000001800232e0     libcpmt:cerr.obj
 0002:000002e8       ?ferr$initializer$@std@@3P6AXXZEA 00000001800232e8     libcpmt:cerr.obj
 0002:000002f0       ?cerr$initializer$@std@@3P6AXXZEA 00000001800232f0     libcpmt:cerr.obj
 0002:000002f8       ?init_cerr$initializer$@std@@3P6AXXZEA 00000001800232f8     libcpmt:cerr.obj
 0002:00000300       ?initlocks$initializer$@std@@3P6AXXZEA 0000000180023300     libcpmt:iosptrs.obj
 0002:00000308       ?init_atexit$initializer$@@3P6AXXZEA 0000000180023308     libcpmt:iosptrs.obj
 0002:00000310       ??s_cookie$initializer$@Security@details@Concurrency@@2P6AXXZEA@@3P6AXXZEA 0000000180023310     libconcrt:staticinits.obj
 0002:00000318       ??s_subAllocatorFreePool$initializer$@SchedulerBase@details@Concurrency@@0P6AXXZEA@@3P6AXXZEA 0000000180023318     libconcrt:staticinits.obj
 0002:00000320       ?_Fac_tidy_reg$initializer$@std@@3P6AXXZEA 0000000180023320     libcpmt:locale0.obj
 0002:00000328       ?classic_locale$initializer$@std@@3P6AXXZEA 0000000180023328     libcpmt:locale0.obj
 0002:00000330       ?s_defaultWaiterPool$initializer$@platform@details@Concurrency@@3P6AXXZEA 0000000180023330     libconcrt:Platform.obj
 0002:00000338       ?g_DebugOutFilePtr$initializer$@details@Concurrency@@3P6AXXZEA 0000000180023338     libconcrt:utils.obj
 0002:00000340       ??m_badAllocExceptionPtr$initializer$@__ExceptionPtr@@0P6AXXZEA@@3P6AXXZEA 0000000180023340     libcpmt:excptptr.obj
 0002:00000360       ?pinit@@3P6AHXZEA          0000000180023360     libcpmt:winapisupp.obj
 0002:00000368       ?__scrt_initialize_tss_var@@3P6AHXZEA 0000000180023368     LIBCMT:thread_safe_statics.obj
 0002:000003b0       ?pterm@@3P6AXXZEA          00000001800233b0     libconcrt:utils.obj
 0002:000004b8       $cppxdata$??_G_Fac_node@std@@QEAAPEAXI@Z 00000001800234b8     libcpmt:locale0.obj
 0002:000004e0       $cppxdata$?_Locimp_dtor@_Locimp@locale@std@@CAXPEAV123@@Z 00000001800234e0     libcpmt:locale0.obj
 0002:00000508       $cppxdata$??_G_Locimp@locale@std@@MEAAPEAXI@Z 0000000180023508     libcpmt:locale0.obj
 0002:00000530       $cppxdata$?_Init@locale@std@@CAPEAV_Locimp@12@_N@Z 0000000180023530     libcpmt:locale0.obj
 0002:00000558       $cppxdata$??__Fclassic_locale@std@@YAXXZ 0000000180023558     libcpmt:locale0.obj
 0002:000005c8       $cppxdata$??_Glocale@std@@QEAAPEAXI@Z 00000001800235c8     libcpmt:cerr.obj
 0002:000005f0       $cppxdata$?_Init@ios_base@std@@IEAAXXZ 00000001800235f0     libcpmt:cerr.obj
 0002:00000618       $cppxdata$??_Gios_base@std@@UEAAPEAXI@Z 0000000180023618     libcpmt:cerr.obj
 0002:00000640       $cppxdata$??0?$basic_streambuf@DU?$char_traits@D@std@@@std@@IEAA@XZ 0000000180023640     libcpmt:cerr.obj
 0002:00000668       $cppxdata$??1?$basic_filebuf@DU?$char_traits@D@std@@@std@@UEAA@XZ 0000000180023668     libcpmt:cerr.obj
 0002:00000690       $cppxdata$?overflow@?$basic_filebuf@DU?$char_traits@D@std@@@std@@MEAAHH@Z 0000000180023690     libcpmt:cerr.obj
 0002:000006b8       $cppxdata$?uflow@?$basic_filebuf@DU?$char_traits@D@std@@@std@@MEAAHXZ 00000001800236b8     libcpmt:cerr.obj
 0002:000006e0       $cppxdata$?_Endwrite@?$basic_filebuf@DU?$char_traits@D@std@@@std@@IEAA_NXZ 00000001800236e0     libcpmt:cerr.obj
 0002:00000708       $cppxdata$??1?$basic_ios@DU?$char_traits@D@std@@@std@@UEAA@XZ 0000000180023708     libcpmt:cerr.obj
 0002:00000730       $cppxdata$??_G?$basic_ios@DU?$char_traits@D@std@@@std@@UEAAPEAXI@Z 0000000180023730     libcpmt:cerr.obj
 0002:00000758       $cppxdata$??0?$basic_ostream@DU?$char_traits@D@std@@@std@@QEAA@PEAV?$basic_streambuf@DU?$char_traits@D@std@@@1@_N@Z 0000000180023758     libcpmt:cerr.obj
 0002:00000780       $cppxdata$??_G?$basic_ostream@DU?$char_traits@D@std@@@std@@UEAAPEAXI@Z 0000000180023780     libcpmt:cerr.obj
 0002:000007a8       $cppxdata$??__Fcerr@std@@YAXXZ 00000001800237a8     libcpmt:cerr.obj
 0002:000007d0       $cppxdata$??$use_facet@V?$codecvt@DDU_Mbstatet@@@std@@@std@@YAAEBV?$codecvt@DDU_Mbstatet@@@0@AEBVlocale@0@@Z 00000001800237d0     libcpmt:cerr.obj
 0002:000007f8       $cppxdata$?_Getcat@?$codecvt@DDU_Mbstatet@@@std@@SA_KPEAPEBVfacet@locale@2@PEBV42@@Z 00000001800237f8     libcpmt:cerr.obj
 0002:00000ae0       ?_Win_errtab@std@@3QBU_Win_errtab_t@1@B 0000000180023ae0     libcpmt:syserror.obj
 0002:00000d30       ?_Sys_errtab@std@@3QBU_Sys_errtab_t@1@B 0000000180023d30     libcpmt:syserror.obj
 0002:000018d0       $cppxdata$??__Finit_atexit@@YAXXZ 00000001800248d0     libcpmt:iosptrs.obj
 0002:00001d00       digits                     0000000180024d00     libcpmt:xstoul.obj
 0002:00001d28       ndigs                      0000000180024d28     libcpmt:xstoul.obj
 0002:00001d50       digits                     0000000180024d50     libcpmt:xstoull.obj
 0002:00001d78       ndigs                      0000000180024d78     libcpmt:xstoull.obj
 0002:000023d0       ?LcidToLocaleNameTable@@3QBULcidToLocaleName@@B 00000001800253d0     libcpmt:winapinls.obj
 0002:00003210       ?LocaleNameToIndexTable@@3QBULocaleNameIndex@@B 0000000180026210     libcpmt:winapinls.obj
 0002:000050f8       GS_ExceptionPointers       00000001800280f8     LIBCMT:gs_report.obj
 0002:000054c0       ?ExceptionTemplate@?1??_CxxThrowException@@9@4UEHExceptionRecord@@B 00000001800284c0     libvcruntime:throw.obj
 0002:00005500       ?ExceptionTemplate@?1??_UnwindNestedFrames@@9@4U_EXCEPTION_RECORD@@B 0000000180028500     libvcruntime:trnsctrl.obj
 0002:00005598       ?module_names@?A0x679b24ab@@3QBQEB_WB 0000000180028598     libvcruntime:winapi_downlevel.obj
 0002:00005668       ?candidate_modules@?1??try_get_FlsAlloc@@YAP6AKP6AXPEAX@Z@ZXZ@4QBW4module_id@?A0x679b24ab@@B 0000000180028668     libvcruntime:winapi_downlevel.obj
 0002:00005670       ?candidate_modules@?1??try_get_FlsFree@@YAP6AHK@ZXZ@4QBW4module_id@?A0x679b24ab@@B 0000000180028670     libvcruntime:winapi_downlevel.obj
 0002:00005678       ?candidate_modules@?1??try_get_FlsGetValue@@YAP6APEAXK@ZXZ@4QBW4module_id@?A0x679b24ab@@B 0000000180028678     libvcruntime:winapi_downlevel.obj
 0002:00005680       ?candidate_modules@?1??try_get_FlsSetValue@@YAP6AHKPEAX@ZXZ@4QBW4module_id@?A0x679b24ab@@B 0000000180028680     libvcruntime:winapi_downlevel.obj
 0002:00005688       ?candidate_modules@?1??try_get_InitializeCriticalSectionEx@@YAP6AHPEAU_RTL_CRITICAL_SECTION@@KK@ZXZ@4QBW4module_id@?A0x679b24ab@@B 0000000180028688     libvcruntime:winapi_downlevel.obj
 0002:00005690       ?tokenTable@@3QBQEBDB      0000000180028690     libvcruntime:undname.obj
 0002:00005700       ?nameTable@@3QBQEBDB       0000000180028700     libvcruntime:undname.obj
 0002:00005988       ?rttiTable@@3QBQEBDB       0000000180028988     libvcruntime:undname.obj
 0002:00006000       errtable                   0000000180029000     libucrt:errno.obj
 0002:00006980       __flag_x_one_y_snan        0000000180029980     libucrt:pow.obj
 0002:00006984       __flag_x_zero_z_inf        0000000180029984     libucrt:pow.obj
 0002:00006988       __flag_x_nan               0000000180029988     libucrt:pow.obj
 0002:0000698c       __flag_y_nan               000000018002998c     libucrt:pow.obj
 0002:00006990       __flag_x_nan_y_nan         0000000180029990     libucrt:pow.obj
 0002:00006994       __flag_x_neg_y_notint      0000000180029994     libucrt:pow.obj
 0002:00006998       __flag_z_zero              0000000180029998     libucrt:pow.obj
 0002:0000699c       __flag_z_denormal          000000018002999c     libucrt:pow.obj
 0002:000069a0       __flag_z_inf               00000001800299a0     libucrt:pow.obj
 0002:000069b0       __ay_max_bound             00000001800299b0     libucrt:pow.obj
 0002:000069b8       __ay_min_bound             00000001800299b8     libucrt:pow.obj
 0002:000069c0       __sign_mask                00000001800299c0     libucrt:pow.obj
 0002:000069c8       __sign_and_exp_mask        00000001800299c8     libucrt:pow.obj
 0002:000069d0       __exp_mask                 00000001800299d0     libucrt:pow.obj
 0002:000069d8       __neg_inf                  00000001800299d8     libucrt:pow.obj
 0002:000069e0       __pos_inf                  00000001800299e0     libucrt:pow.obj
 0002:000069e8       __pos_one                  00000001800299e8     libucrt:pow.obj
 0002:000069f0       __pos_zero                 00000001800299f0     libucrt:pow.obj
 0002:000069f8       __exp_mant_mask            00000001800299f8     libucrt:pow.obj
 0002:00006a00       __mant_mask                0000000180029a00     libucrt:pow.obj
 0002:00006a08       __ind_pattern              0000000180029a08     libucrt:pow.obj
 0002:00006a10       __neg_qnan                 0000000180029a10     libucrt:pow.obj
 0002:00006a18       __qnan                     0000000180029a18     libucrt:pow.obj
 0002:00006a20       __qnan_set                 0000000180029a20     libucrt:pow.obj
 0002:00006a28       __neg_one                  0000000180029a28     libucrt:pow.obj
 0002:00006a30       __neg_zero                 0000000180029a30     libucrt:pow.obj
 0002:00006a38       __exp_shift                0000000180029a38     libucrt:pow.obj
 0002:00006a40       __exp_bias                 0000000180029a40     libucrt:pow.obj
 0002:00006a48       __exp_bias_m1              0000000180029a48     libucrt:pow.obj
 0002:00006a50       __yexp_53                  0000000180029a50     libucrt:pow.obj
 0002:00006a58       __mant_full                0000000180029a58     libucrt:pow.obj
 0002:00006a60       __1_before_mant            0000000180029a60     libucrt:pow.obj
 0002:00006a68       __mask_mant_all8           0000000180029a68     libucrt:pow.obj
 0002:00006a70       __mask_mant9               0000000180029a70     libucrt:pow.obj
 0002:00006a80       __real_fffffffff8000000    0000000180029a80     libucrt:pow.obj
 0002:00006a90       __mask_8000000000000000    0000000180029a90     libucrt:pow.obj
 0002:00006aa0       __real_4090040000000000    0000000180029aa0     libucrt:pow.obj
 0002:00006ab0       __real_C090C80000000000    0000000180029ab0     libucrt:pow.obj
 0002:00006ac0       __real_ninf                0000000180029ac0     libucrt:pow.obj
 0002:00006ad0       __real_inf                 0000000180029ad0     libucrt:pow.obj
 0002:00006ae0       __real_nan                 0000000180029ae0     libucrt:pow.obj
 0002:00006af0       __real_mant                0000000180029af0     libucrt:pow.obj
 0002:00006b00       __mask_1023                0000000180029b00     libucrt:pow.obj
 0002:00006b10       __mask_001                 0000000180029b10     libucrt:pow.obj
 0002:00006b20       __real_log2_lead           0000000180029b20     libucrt:pow.obj
 0002:00006b30       __real_log2_tail           0000000180029b30     libucrt:pow.obj
 0002:00006b40       __real_two                 0000000180029b40     libucrt:pow.obj
 0002:00006b50       __real_one                 0000000180029b50     libucrt:pow.obj
 0002:00006b60       __real_half                0000000180029b60     libucrt:pow.obj
 0002:00006b70       __mask_100                 0000000180029b70     libucrt:pow.obj
 0002:00006b80       __real_1_over_2            0000000180029b80     libucrt:pow.obj
 0002:00006b90       __real_1_over_3            0000000180029b90     libucrt:pow.obj
 0002:00006ba0       __real_1_over_4            0000000180029ba0     libucrt:pow.obj
 0002:00006bb0       __real_1_over_5            0000000180029bb0     libucrt:pow.obj
 0002:00006bc0       __real_1_over_6            0000000180029bc0     libucrt:pow.obj
 0002:00006bd0       __real_1_over_7            0000000180029bd0     libucrt:pow.obj
 0002:00006be0       __mask_1023_f              0000000180029be0     libucrt:pow.obj
 0002:00006bf0       __mask_2045                0000000180029bf0     libucrt:pow.obj
 0002:00006c00       __real_threshold           0000000180029c00     libucrt:pow.obj
 0002:00006c10       __real_notsign             0000000180029c10     libucrt:pow.obj
 0002:00006c20       __log_F_inv_head           0000000180029c20     libucrt:pow.obj
 0002:00007430       __log_F_inv_tail           000000018002a430     libucrt:pow.obj
 0002:00007c40       __denormal_threshold       000000018002ac40     libucrt:pow.obj
 0002:00007c50       __enable_almost_inf        000000018002ac50     libucrt:pow.obj
 0002:00007c60       __real_zero                000000018002ac60     libucrt:pow.obj
 0002:00007c70       __real_smallest_denormal   000000018002ac70     libucrt:pow.obj
 0002:00007c80       __denormal_tiny_threshold  000000018002ac80     libucrt:pow.obj
 0002:00007c90       __real_p65536              000000018002ac90     libucrt:pow.obj
 0002:00007ca0       __real_m68800              000000018002aca0     libucrt:pow.obj
 0002:00007cb0       __real_64_by_log2          000000018002acb0     libucrt:pow.obj
 0002:00007cc0       __real_log2_by_64_head     000000018002acc0     libucrt:pow.obj
 0002:00007cd0       __real_log2_by_64_tail     000000018002acd0     libucrt:pow.obj
 0002:00007ce0       __real_1_by_720            000000018002ace0     libucrt:pow.obj
 0002:00007cf0       __real_1_by_120            000000018002acf0     libucrt:pow.obj
 0002:00007d00       __real_1_by_24             000000018002ad00     libucrt:pow.obj
 0002:00007d10       __real_1_by_6              000000018002ad10     libucrt:pow.obj
 0002:00007d20       __real_1_by_2              000000018002ad20     libucrt:pow.obj
 0002:00007d30       __flag_x_one_y_snan        000000018002ad30     libucrt:powf.obj
 0002:00007d34       __flag_x_zero_z_inf        000000018002ad34     libucrt:powf.obj
 0002:00007d38       __flag_x_nan               000000018002ad38     libucrt:powf.obj
 0002:00007d3c       __flag_y_nan               000000018002ad3c     libucrt:powf.obj
 0002:00007d40       __flag_x_nan_y_nan         000000018002ad40     libucrt:powf.obj
 0002:00007d44       __flag_x_neg_y_notint      000000018002ad44     libucrt:powf.obj
 0002:00007d48       __flag_z_zero              000000018002ad48     libucrt:powf.obj
 0002:00007d4c       __flag_z_denormal          000000018002ad4c     libucrt:powf.obj
 0002:00007d50       __flag_z_inf               000000018002ad50     libucrt:powf.obj
 0002:00007d54       L__1_by_3                  000000018002ad54     libucrt:powf.obj
 0002:00007d5c       L__log2                    000000018002ad5c     libucrt:powf.obj
 0002:00007d64       L__max_exp_arg             000000018002ad64     libucrt:powf.obj
 0002:00007d6c       L__min_exp_arg             000000018002ad6c     libucrt:powf.obj
 0002:00007d74       L__real_log2_by_64         000000018002ad74     libucrt:powf.obj
 0002:00007d7c       L__1_by_6                  000000018002ad7c     libucrt:powf.obj
 0002:00007d84       L__real_threshold          000000018002ad84     libucrt:powf.obj
 0002:00007d8c       L__real_one                000000018002ad8c     libucrt:powf.obj
 0002:00007d94       L__real_two                000000018002ad94     libucrt:powf.obj
 0002:00007d9c       L__neg_zero                000000018002ad9c     libucrt:powf.obj
 0002:00007db0       L__real_ca42               000000018002adb0     libucrt:powf.obj
 0002:00007db8       L__real_ca4                000000018002adb8     libucrt:powf.obj
 0002:00007dc0       L__real_ca31               000000018002adc0     libucrt:powf.obj
 0002:00007dc8       L__real_ca3                000000018002adc8     libucrt:powf.obj
 0002:00007dd0       L__clear_sign              000000018002add0     libucrt:powf.obj
 0002:00007de0       L__real_64_by_log2         000000018002ade0     libucrt:powf.obj
 0002:00007df0       L__1_by_2                  000000018002adf0     libucrt:powf.obj
 0002:00007e00       L__1023                    000000018002ae00     libucrt:powf.obj
 0002:00007e10       L__xexp_bits_xmantissa_bits 000000018002ae10     libucrt:powf.obj
 0002:00008730       __acrt_initializers        000000018002b730     libucrt:initialization.obj
 0002:00008820       __flag_x_nan               000000018002b820     libucrt:exp.obj
 0002:00008824       __flag_y_zero              000000018002b824     libucrt:exp.obj
 0002:00008828       __flag_y_inf               000000018002b828     libucrt:exp.obj
 0002:00008830       L__real_1_by_720           000000018002b830     libucrt:exp.obj
 0002:00008840       L__real_1_by_120           000000018002b840     libucrt:exp.obj
 0002:00008850       L__real_1_by_6             000000018002b850     libucrt:exp.obj
 0002:00008860       L__real_1_by_2             000000018002b860     libucrt:exp.obj
 0002:00008870       L__real_1_by_24            000000018002b870     libucrt:exp.obj
 0002:00008880       L__log2_by_64_mtail_mhead  000000018002b880     libucrt:exp.obj
 0002:00008890       L__ln_of_smallest_normal   000000018002b890     libucrt:exp.obj
 0002:00008898       L__zero                    000000018002b898     libucrt:exp.obj
 0002:000088a0       L__max_exp_arg             000000018002b8a0     libucrt:exp.obj
 0002:000088a8       L__denormal_tiny_threshold 000000018002b8a8     libucrt:exp.obj
 0002:000088b0       L__min_exp_arg             000000018002b8b0     libucrt:exp.obj
 0002:000088b8       L__real_64_by_log2         000000018002b8b8     libucrt:exp.obj
 0002:000088c0       L__positive_infinity       000000018002b8c0     libucrt:exp.obj
 0002:000088c8       L__negative_infinity       000000018002b8c8     libucrt:exp.obj
 0002:000088d0       L__real_qnanbit            000000018002b8d0     libucrt:exp.obj
 0002:000088d8       L__real_x_near0_threshold  000000018002b8d8     libucrt:exp.obj
 0002:000088e0       L__log2_by_64_mhead        000000018002b8e0     libucrt:exp.obj
 0002:000088e8       L__log2_by_64_mtail        000000018002b8e8     libucrt:exp.obj
 0002:000088f0       L__real_smallest_denormal  000000018002b8f0     libucrt:exp.obj
 0002:000088f8       L__real_one                000000018002b8f8     libucrt:exp.obj
 0002:00008900       L__2_to_neg_26             000000018002b900     libucrt:exp.obj
 0002:00008908       L__2_to_32                 000000018002b908     libucrt:exp.obj
 0002:00008910       L__min_normal              000000018002b910     libucrt:exp.obj
 0002:00008918       L__2_to_neg_63             000000018002b918     libucrt:exp.obj
 0002:00008a40       _first_127char             000000018002ba40     libucrt:wsetlocale.obj
 0002:00009160       module_names               000000018002c160     libucrt:winapi_thunks.obj
 0002:00009690       ?candidate_modules@?1??try_get_CompareStringEx@@YAP6AHPEB_WK0H0HPEAU_nlsversioninfo@@PEAX_J@ZXZ@4QBW4module_id@?A0x63058377@@B 000000018002c690     libucrt:winapi_thunks.obj
 0002:00009698       ?candidate_modules@?1??try_get_EnumSystemLocalesEx@@YAP6AHP6AHPEA_WK_J@ZK1PEAX@ZXZ@4QBW4module_id@?A0x63058377@@B 000000018002c698     libucrt:winapi_thunks.obj
 0002:000096b8       ?candidate_modules@?1??try_get_FlsAlloc@@YAP6AKP6AXPEAX@Z@ZXZ@4QBW4module_id@?A0x63058377@@B 000000018002c6b8     libucrt:winapi_thunks.obj
 0002:000096c0       ?candidate_modules@?1??try_get_FlsFree@@YAP6AHK@ZXZ@4QBW4module_id@?A0x63058377@@B 000000018002c6c0     libucrt:winapi_thunks.obj
 0002:000096c8       ?candidate_modules@?1??try_get_FlsGetValue@@YAP6APEAXK@ZXZ@4QBW4module_id@?A0x63058377@@B 000000018002c6c8     libucrt:winapi_thunks.obj
 0002:000096d0       ?candidate_modules@?1??try_get_FlsSetValue@@YAP6AHKPEAX@ZXZ@4QBW4module_id@?A0x63058377@@B 000000018002c6d0     libucrt:winapi_thunks.obj
 0002:000096d8       ?candidate_modules@?1??try_get_GetCurrentPackageId@@YAP6AJPEAIPEAE@ZXZ@4QBW4module_id@?A0x63058377@@B 000000018002c6d8     libucrt:winapi_thunks.obj
 0002:000096e0       ?candidate_modules@?1??try_get_GetLocaleInfoEx@@YAP6AHPEB_WKPEA_WH@ZXZ@4QBW4module_id@?A0x63058377@@B 000000018002c6e0     libucrt:winapi_thunks.obj
 0002:000096e8       ?candidate_modules@?1??try_get_GetUserDefaultLocaleName@@YAP6AHPEA_WH@ZXZ@4QBW4module_id@?A0x63058377@@B 000000018002c6e8     libucrt:winapi_thunks.obj
 0002:00009710       ?candidate_modules@?1??try_get_InitializeCriticalSectionEx@@YAP6AHPEAU_RTL_CRITICAL_SECTION@@KK@ZXZ@4QBW4module_id@?A0x63058377@@B 000000018002c710     libucrt:winapi_thunks.obj
 0002:00009718       ?candidate_modules@?1??try_get_IsValidLocaleName@@YAP6AHPEB_W@ZXZ@4QBW4module_id@?A0x63058377@@B 000000018002c718     libucrt:winapi_thunks.obj
 0002:00009738       ?candidate_modules@?1??try_get_LCMapStringEx@@YAP6AHPEB_WK0HPEA_WHPEAU_nlsversioninfo@@PEAX_J@ZXZ@4QBW4module_id@?A0x63058377@@B 000000018002c738     libucrt:winapi_thunks.obj
 0002:00009740       ?candidate_modules@?1??try_get_LCIDToLocaleName@@YAP6AHKPEA_WHK@ZXZ@4QBW4module_id@?A0x63058377@@B 000000018002c740     libucrt:winapi_thunks.obj
 0002:00009760       ?candidate_modules@?1??try_get_LocaleNameToLCID@@YAP6AKPEB_WK@ZXZ@4QBW4module_id@?A0x63058377@@B 000000018002c760     libucrt:winapi_thunks.obj
 0002:0000b5d0       _mb_locale_names           000000018002e5d0     libucrt:mbctype.obj
 0002:0000c5c0       LcidToLocaleNameTable      000000018002f5c0     libucrt:lcidtoname_downlevel.obj
 0002:0000d400       LocaleNameToIndexTable     0000000180030400     libucrt:lcidtoname_downlevel.obj
 0002:0000e240       __real@433fffffffffffff    0000000180031240     libucrt:fpsr.obj
 0002:0000e248       __real@c33fffffffffffff    0000000180031248     libucrt:fpsr.obj
 0002:0000e260       __real_ninf                0000000180031260     libucrt:log10.obj
 0002:0000e270       __real_inf                 0000000180031270     libucrt:log10.obj
 0002:0000e280       __real_neg_qnan            0000000180031280     libucrt:log10.obj
 0002:0000e290       __real_qnanbit             0000000180031290     libucrt:log10.obj
 0002:0000e2a0       __int_1023                 00000001800312a0     libucrt:log10.obj
 0002:0000e2b0       __mask_001                 00000001800312b0     libucrt:log10.obj
 0002:0000e2c0       __mask_mant                00000001800312c0     libucrt:log10.obj
 0002:0000e2d0       __mask_mant_top8           00000001800312d0     libucrt:log10.obj
 0002:0000e2e0       __mask_mant9               00000001800312e0     libucrt:log10.obj
 0002:0000e2f0       __real_log10_e             00000001800312f0     libucrt:log10.obj
 0002:0000e300       __real_log10_e_lead        0000000180031300     libucrt:log10.obj
 0002:0000e310       __real_log10_e_tail        0000000180031310     libucrt:log10.obj
 0002:0000e320       __real_log10_2_lead        0000000180031320     libucrt:log10.obj
 0002:0000e330       __real_log10_2_tail        0000000180031330     libucrt:log10.obj
 0002:0000e340       __real_two                 0000000180031340     libucrt:log10.obj
 0002:0000e350       __real_one                 0000000180031350     libucrt:log10.obj
 0002:0000e360       __real_half                0000000180031360     libucrt:log10.obj
 0002:0000e370       __mask_100                 0000000180031370     libucrt:log10.obj
 0002:0000e380       __real_1_over_512          0000000180031380     libucrt:log10.obj
 0002:0000e390       __real_1_over_2            0000000180031390     libucrt:log10.obj
 0002:0000e3a0       __real_1_over_3            00000001800313a0     libucrt:log10.obj
 0002:0000e3b0       __real_1_over_4            00000001800313b0     libucrt:log10.obj
 0002:0000e3c0       __real_1_over_5            00000001800313c0     libucrt:log10.obj
 0002:0000e3d0       __real_1_over_6            00000001800313d0     libucrt:log10.obj
 0002:0000e3e0       __real_neg_1023            00000001800313e0     libucrt:log10.obj
 0002:0000e3f0       __mask_2045                00000001800313f0     libucrt:log10.obj
 0002:0000e400       __real_threshold           0000000180031400     libucrt:log10.obj
 0002:0000e410       __real_near_one_lt         0000000180031410     libucrt:log10.obj
 0002:0000e420       __real_near_one_gt         0000000180031420     libucrt:log10.obj
 0002:0000e430       __real_min_norm            0000000180031430     libucrt:log10.obj
 0002:0000e440       __real_notsign             0000000180031440     libucrt:log10.obj
 0002:0000e450       __real_ca1                 0000000180031450     libucrt:log10.obj
 0002:0000e460       __real_ca2                 0000000180031460     libucrt:log10.obj
 0002:0000e470       __real_ca3                 0000000180031470     libucrt:log10.obj
 0002:0000e480       __real_ca4                 0000000180031480     libucrt:log10.obj
 0002:0000e490       __mask_lower               0000000180031490     libucrt:log10.obj
 0002:0000e4a0       __flag_x_zero              00000001800314a0     libucrt:log10.obj
 0002:0000e4a4       __flag_x_neg               00000001800314a4     libucrt:log10.obj
 0002:0000e4a8       __flag_x_nan               00000001800314a8     libucrt:log10.obj
 0002:0000f4f0       $cppxdata$?_CopyException@__ExceptionPtr@@SA?AV?$shared_ptr@V__ExceptionPtr@@@std@@PEBXPEBU_s_ThrowInfo@@_N@Z 00000001800324f0     libcpmt:excptptr.obj
 0002:0000f518       $cppxdata$??1__ExceptionPtr@@QEAA@XZ 0000000180032518     libcpmt:excptptr.obj
 0002:0000f540       $cppxdata$?_InitBadAllocException@__ExceptionPtr@@CA?AV?$shared_ptr@V__ExceptionPtr@@@std@@XZ 0000000180032540     libcpmt:excptptr.obj
 0002:0000f568       $cppxdata$?_CallCopyCtor@__ExceptionPtr@@AEBAXPEAX0_KQEBU_s_CatchableType@@@Z 0000000180032568     libcpmt:excptptr.obj
 0002:0000f590       $cppxdata$??$make_shared@V__ExceptionPtr@@AEAPEAUEHExceptionRecord@@_N@std@@YA?AV?$shared_ptr@V__ExceptionPtr@@@0@AEAPEAUEHExceptionRecord@@$$QEA_N@Z 0000000180032590     libcpmt:excptptr.obj
 0002:0000f5b8       $cppxdata$??$allocate_shared@V__ExceptionPtr@@U?$_StaticAllocator@H@@AEAPEAUEHExceptionRecord@@_N@std@@YA?AV?$shared_ptr@V__ExceptionPtr@@@0@AEBU?$_StaticAllocator@H@@AEAPEAUEHExceptionRecord@@$$QEA_N@Z 00000001800325b8     libcpmt:excptptr.obj
 0002:0000f5e0       $cppxdata$??$?0AEAPEAUEHExceptionRecord@@_N@?$_Ref_count_obj_alloc@V__ExceptionPtr@@U?$_StaticAllocator@H@@@std@@QEAA@AEBU?$_StaticAllocator@H@@AEAPEAUEHExceptionRecord@@$$QEA_N@Z 00000001800325e0     libcpmt:excptptr.obj
 0002:0000f680       ?msgs@@3QBQEBDB            0000000180032680     libcpmt:thread0.obj
 0002:0000f6b8       ?codes@@3QBHB              00000001800326b8     libcpmt:thread0.obj
 0002:0000f998       $cppxdata$??$swap@Vsample@@X@std@@YAXAEAVsample@@0@Z 0000000180032998     rainfall.obj
 0002:0000f9c0       $cppxdata$??$_Insertion_sort_unchecked@PEAVsample@@U?$less@X@std@@@std@@YAXPEAVsample@@0AEAU?$less@X@0@@Z 00000001800329c0     rainfall.obj
 0002:0000f9e8       $cppxdata$??$_Sort_heap_unchecked@PEAVsample@@U?$less@X@std@@@std@@YAXPEAVsample@@0AEAU?$less@X@0@@Z 00000001800329e8     rainfall.obj
 0002:0000fa10       $cppxdata$??$_Make_heap_unchecked@PEAVsample@@U?$less@X@std@@@std@@YAXPEAVsample@@0AEAU?$less@X@0@@Z 0000000180032a10     rainfall.obj
 0002:0000fa38       $cppxdata$??$_Partition_by_median_guess_unchecked@PEAVsample@@U?$less@X@std@@@std@@YA?AU?$pair@PEAVsample@@PEAV1@@0@PEAVsample@@0AEAU?$less@X@0@@Z 0000000180032a38     rainfall.obj
 0002:0000fa70       $cppxdata$?widen@?$basic_ios@DU?$char_traits@D@std@@@std@@QEBADD@Z 0000000180032a70     rainfall_node.obj
 0002:0000fa98       $cppxdata$?put@?$basic_ostream@DU?$char_traits@D@std@@@std@@QEAAAEAV12@D@Z 0000000180032a98     rainfall_node.obj
 0002:0000fac0       $cppxdata$?flush@?$basic_ostream@DU?$char_traits@D@std@@@std@@QEAAAEAV12@XZ 0000000180032ac0     rainfall_node.obj
 0002:0000fae8       $cppxdata$??0sentry@?$basic_ostream@DU?$char_traits@D@std@@@std@@QEAA@AEAV12@@Z 0000000180032ae8     rainfall_node.obj
 0002:0000fb10       $cppxdata$??$?6U?$char_traits@D@std@@@std@@YAAEAV?$basic_ostream@DU?$char_traits@D@std@@@0@AEAV10@PEBD@Z 0000000180032b10     rainfall_node.obj
 0002:0000fb38       $cppxdata$??$use_facet@V?$ctype@D@std@@@std@@YAAEBV?$ctype@D@0@AEBVlocale@0@@Z 0000000180032b38     rainfall_node.obj
 0002:0000fb60       $cppxdata$?push_back@?$vector@Vsample@@V?$allocator@Vsample@@@std@@@std@@QEAAXAEBVsample@@@Z 0000000180032b60     rainfall_node.obj
 0002:0000fb88       $cppxdata$?AvgRainfall@@YAXAEBV?$FunctionCallbackInfo@VValue@v8@@@v8@@@Z 0000000180032b88     rainfall_node.obj
 0002:0000fbb0       $cppxdata$?unpack_location@@YA?AVlocation@@PEAVIsolate@v8@@V?$Local@VObject@v8@@@3@@Z 0000000180032bb0     rainfall_node.obj
 0002:0000fbd8       $cppxdata$?unpack_sample@@YA?AVsample@@PEAVIsolate@v8@@V?$Local@VObject@v8@@@3@@Z 0000000180032bd8     rainfall_node.obj
 0002:0000fc00       $cppxdata$?RainfallData@@YAXAEBV?$FunctionCallbackInfo@VValue@v8@@@v8@@@Z 0000000180032c00     rainfall_node.obj
 0002:0000fc28       $cppxdata$?CalculateResults@@YAXAEBV?$FunctionCallbackInfo@VValue@v8@@@v8@@@Z 0000000180032c28     rainfall_node.obj
 0002:0000fc50       $cppxdata$?CalculateResultsSync@@YAXAEBV?$FunctionCallbackInfo@VValue@v8@@@v8@@@Z 0000000180032c50     rainfall_node.obj
 0002:0000fc78       $cppxdata$?CalculateResultsAsync@@YAXAEBV?$FunctionCallbackInfo@VValue@v8@@@v8@@@Z 0000000180032c78     rainfall_node.obj
 0002:0000fca0       $cppxdata$?WorkAsyncComplete@@YAXPEAUuv_work_s@@H@Z 0000000180032ca0     rainfall_node.obj
 0002:0000fcc8       $cppxdata$?clear@ios_base@std@@QEAAXH_N@Z 0000000180032cc8     rainfall_node.obj
 0002:0000fcf0       $cppxdata$?_Makestr@_System_error@std@@CA?AV?$basic_string@DU?$char_traits@D@std@@V?$allocator@D@2@@2@Verror_code@2@V32@@Z 0000000180032cf0     rainfall_node.obj
 0002:0000fd18       $cppxdata$?_Getcat@?$ctype@D@std@@SA_KPEAPEBVfacet@locale@2@PEBV42@@Z 0000000180032d18     rainfall_node.obj
 0002:0000fd40       $cppxdata$??0_Locinfo@std@@QEAA@PEBD@Z 0000000180032d40     rainfall_node.obj
 0002:0000fd68       $cppxdata$?NODE_SET_METHOD@node@@YAXV?$Local@VObject@v8@@@v8@@PEBDP6AXAEBV?$FunctionCallbackInfo@VValue@v8@@@3@@Z@Z 0000000180032d68     rainfall_node.obj
 0002:000113c0       $unwind$__dcrt_terminate_console_output 00000001800343c0     libucrt:initcon.obj
 0002:000113c0       $unwind$_stricmp           00000001800343c0     libucrt:stricmp.obj
 0002:000113c0       $unwind$__GSHandlerCheck   00000001800343c0     LIBCMT:_gshandler_.obj
 0002:000113c0       $unwind$_invoke_watson     00000001800343c0     libucrt:invalid_parameter.obj
 0002:000113c0       $unwind$__std_terminate    00000001800343c0     libvcruntime:frame.obj
 0002:000113c0       $unwind$__vcrt_initialize_ptd 00000001800343c0     libvcruntime:per_thread_data.obj
 0002:000113c0       $unwind$_get_osfhandle     00000001800343c0     libucrt:osfinfo.obj
 0002:000113c0       $unwind$__vcrt_uninitialize 00000001800343c0     libvcruntime:initialization.obj
 0002:000113c0       $unwind$?OneShotStaticDestruction@UMSThreadScheduler@details@Concurrency@@SAXXZ 00000001800343c0     libconcrt:UMSThreadScheduler.obj
 0002:000113c0       $unwind$_set_errno_from_matherr 00000001800343c0     libucrt:fpexcept.obj
 0002:000113c0       $unwind$_concrt_static_cleanup 00000001800343c0     libconcrt:utils.obj
 0002:000113c0       $unwind$??__Eg_DebugOutFilePtr@details@Concurrency@@YAXXZ 00000001800343c0     libconcrt:utils.obj
 0002:000113c0       $unwind$?_Lock@?$basic_filebuf@DU?$char_traits@D@std@@@std@@UEAAXXZ 00000001800343c0     libcpmt:cerr.obj
 0002:000113c0       $unwind$?_Locinfo_dtor@_Locinfo@std@@SAXPEAV12@@Z 00000001800343c0     libcpmt:locale0.obj
 0002:000113c0       $unwind$?_Unlock@?$basic_filebuf@DU?$char_traits@D@std@@@std@@UEAAXXZ 00000001800343c0     libcpmt:cerr.obj
 0002:000113c0       $unwind$__report_rangecheckfailure 00000001800343c0     LIBCMT:gs_report.obj
 0002:000113c0       $unwind$__vcrt_initialize  00000001800343c0     libvcruntime:initialization.obj
 0002:000113c0       $unwind$__vcrt_uninitialize_ptd 00000001800343c0     libvcruntime:per_thread_data.obj
 0002:000113c0       $unwind$abort              00000001800343c0     libucrt:abort.obj
 0002:000113c0       $unwind$__vcrt_getptd      00000001800343c0     libvcruntime:per_thread_data.obj
 0002:000113c0       $unwind$__acrt_initialize_command_line 00000001800343c0     libucrt:argv_data.obj
 0002:000113c0       $unwind$__acrt_uninitialize_ptd 00000001800343c0     libucrt:per_thread_data.obj
 0002:000113c0       $unwind$_errno             00000001800343c0     libucrt:errno.obj
 0002:000113c0       $unwind$fsetpos            00000001800343c0     libucrt:fsetpos.obj
 0002:000113c0       $unwind$__vcrt_thread_detach 00000001800343c0     libvcruntime:initialization.obj
 0002:000113c0       $unwind$??__E?s_cookie@Security@details@Concurrency@@2_KA@@YAXXZ 00000001800343c0     libconcrt:staticinits.obj
 0002:000113c0       $unwind$__acrt_release_locale_ref 00000001800343c0     libucrt:locale_refcounting.obj
 0002:000113c0       $unwind$__vcrt_thread_attach 00000001800343c0     libvcruntime:initialization.obj
 0002:000113c0       $unwind$?CheckOneShotStaticDestruction@SchedulerBase@details@Concurrency@@SAXXZ 00000001800343c0     libconcrt:SchedulerBase.obj
 0002:000113c0       $unwind$__acrt_uninitialize_critical 00000001800343c0     libucrt:initialization.obj
 0002:000113c0       $unwind$_Xtime_get_ticks   00000001800343c0     libcpmt:xtime.obj
 0002:000113c0       $unwind$__acrt_thread_attach 00000001800343c0     libucrt:initialization.obj
 0002:000113c0       $unwind$??__Einitlocks@@YAXXZ 00000001800343c0     libcpmt:cerr.obj
 0002:000113c0       $unwind$__acrt_thread_detach 00000001800343c0     libucrt:initialization.obj
 0002:000113c0       $unwind$__doserrno         00000001800343c0     libucrt:errno.obj
 0002:000113c0       $unwind$_GetThrowImageBase 00000001800343c0     libvcruntime:trnsctrl.obj
 0002:000113c0       $unwind$__vcrt_freefls     00000001800343c0     libvcruntime:per_thread_data.obj
 0002:000113c0       $unwind$initialize_c       00000001800343c0     libucrt:initialization.obj
 0002:000113c0       $unwind$__scrt_initialize_default_local_stdio_options 00000001800343c0     LIBCMT:default_local_stdio_options.obj
 0002:000113c0       $unwind$_wcsicmp           00000001800343c0     libucrt:wcsicmp.obj
 0002:000113c0       $unwind$_isatty            00000001800343c0     libucrt:isatty.obj
 0002:000113c0       $unwind$_GetImageBase      00000001800343c0     libvcruntime:trnsctrl.obj
 0002:000113c0       $unwind$_fileno            00000001800343c0     libucrt:fileno.obj
 0002:000113c0       $unwind$tidy_global        00000001800343c0     libcpmt:locale0.obj
 0002:000113c0       $unwind$??$uninitialize_environment_internal@_W@@YAXAEAPEAPEA_W@Z 00000001800343c0     libucrt:environment_initialization.obj
 0002:000113c0       $unwind$__scrt_dllmain_crt_thread_detach 00000001800343c0     LIBCMT:utility.obj
 0002:000113c0       $unwind$uninitialize_environment 00000001800343c0     libucrt:initialization.obj
 0002:000113c0       $unwind$__scrt_dllmain_crt_thread_attach 00000001800343c0     LIBCMT:utility.obj
 0002:000113c0       $unwind$??__Einitlocks@std@@YAXXZ 00000001800343c0     libcpmt:iosptrs.obj
 0002:000113c0       $unwind$?_Atexit@@YAXP6AXXZ@Z 00000001800343c0     libcpmt:iosptrs.obj
 0002:000113c0       $unwind$??$_Immortalize@V_Iostream_error_category@std@@@std@@YAAEAV_Iostream_error_category@0@XZ 00000001800343c0     rainfall_node.obj
 0002:000113c0       $unwind$??$uninitialize_environment_internal@D@@YAXAEAPEAPEAD@Z 00000001800343c0     libucrt:environment_initialization.obj
 0002:000113c0       $unwind$__acrt_initialize_ptd 00000001800343c0     libucrt:per_thread_data.obj
 0002:000113c0       $unwind$__scrt_dllmain_uninitialize_critical 00000001800343c0     LIBCMT:utility.obj
 0002:000113c0       $unwind$__scrt_dllmain_uninitialize_c 00000001800343c0     LIBCMT:utility.obj
 0002:000113c0       $unwind$_fgetc_nolock      00000001800343c0     libucrt:fgetc.obj
 0002:000113c0       $unwind$_statfp            00000001800343c0     libucrt:fpctrl.obj
 0002:000113c0       $unwind$__scrt_dllmain_after_initialize_c 00000001800343c0     LIBCMT:utility.obj
 0002:000113c0       $unwind$__dcrt_uninitialize_environments_nolock 00000001800343c0     libucrt:environment_initialization.obj
 0002:000113c0       $unwind$__scrt_dllmain_before_initialize_c 00000001800343c0     LIBCMT:utility.obj
 0002:000113c0       $unwind$??1_Lockit@std@@QEAA@XZ 00000001800343c0     libcpmt:xlock.obj
 0002:000113c0       $unwind$__pctype_func      00000001800343c0     libucrt:ctype.obj
 0002:000113c0       $unwind$??__Einitlocks@std@@YAXXZ 00000001800343c0     libcpmt:xlock.obj
 0002:000113c0       $unwind$_wcsnicmp          00000001800343c0     libucrt:wcsnicmp.obj
 0002:000113c0       $unwind$___lc_codepage_func 00000001800343c0     libucrt:initctype.obj
 0002:000113c0       $unwind$?initialize_multibyte@@YAHXZ 00000001800343c0     libucrt:multibyte_initializer.obj
 0002:000113c0       $unwind$___lc_locale_name_func 00000001800343c0     libucrt:initctype.obj
 0002:000113c0       $unwind$??1locale@std@@QEAA@XZ 00000001800343c0     rainfall_node.obj
 0002:000113c0       $unwind$__acrt_DownlevelLocaleNameToLCID 00000001800343c0     libucrt:lcidtoname_downlevel.obj
 0002:000113c0       $unwind$_get_stream_buffer_pointers 00000001800343c0     libucrt:_file.obj
 0002:000113c0       $unwind$__vcrt_uninitialize_critical 00000001800343c0     libvcruntime:initialization.obj
 0002:000113c0       $unwind$?__scrt_uninitialize_thread_safe_statics@@YAXXZ 00000001800343c0     LIBCMT:thread_safe_statics.obj
 0002:000113c0       $unwind$_copytlocinfo_nolock 00000001800343c0     libucrt:wsetlocale.obj
 0002:000113c0       $unwind$__crtDownlevelLocaleNameToLCID 00000001800343c0     libcpmt:winapinls.obj
 0002:000113c0       $unwind$atexit             00000001800343c0     LIBCMT:utility.obj
 0002:000113c0       $unwind$?_StaticAlloc@@YAPEAX_K@Z 00000001800343c0     libcpmt:excptptr.obj
 0002:000113c0       $unwind$?_Xlen@?$basic_string@DU?$char_traits@D@std@@V?$allocator@D@2@@std@@QEBAXXZ 00000001800343c0     rainfall.obj
 0002:000113c0       $unwind$??__Ecerr@std@@YAXXZ 00000001800343c0     libcpmt:cerr.obj
 0002:000113c0       $unwind$__FrameUnwindFilter 00000001800343c0     libvcruntime:frame.obj
 0002:000113c0       $unwind$?__GetCurrentState@@YAHPEA_KPEAU_xDISPATCHER_CONTEXT@@PEBU_s_FuncInfo@@@Z 00000001800343c0     libvcruntime:ehstate.obj
 0002:000113c0       $unwind$??__F_Fac_tidy_reg@std@@YAXXZ 00000001800343c0     libcpmt:locale0.obj
 0002:000113c0       $unwind$?dllmain_crt_dispatch@@YAHQEAUHINSTANCE__@@KQEAX@Z 00000001800343c0     LIBCMT:dll_dllmain.obj
 0002:000113c0       $unwind$__acrt_can_use_vista_locale_apis 00000001800343c0     libucrt:winapi_thunks.obj
 0002:000113c0       $unwind$??__E?m_badAllocExceptionPtr@__ExceptionPtr@@0V?$shared_ptr@V__ExceptionPtr@@@std@@A@@YAXXZ 00000001800343c0     libcpmt:excptptr.obj
 0002:000113c0       $unwind$__scrt_acquire_startup_lock 00000001800343c0     LIBCMT:utility.obj
 0002:000113c0       $unwind$__acrt_initialize_heap 00000001800343c0     libucrt:heap_handle.obj
 0002:000113c0       $unwind$?_Deallocate@std@@YAXPEAX_K1@Z 00000001800343c0     rainfall.obj
 0002:000113c0       $unwind$_msize             00000001800343c0     libucrt:msize.obj
 0002:000113c0       $unwind$__acrt_initialize_multibyte 00000001800343c0     libucrt:mbctype.obj
 0002:000113c8       $unwind$??R<lambda_b721fa326cdb32351d23dfa67958c160>@@QEBAHXZ 00000001800343c8     libucrt:setvbuf.obj
 0002:000113c8       $unwind$?calc_rain_stats@@YA?AVrain_result@@AEAVlocation@@@Z 00000001800343c8     rainfall.obj
 0002:000113c8       $unwind$TestDefaultLanguage 00000001800343c8     libucrt:getqloc_downlevel.obj
 0002:000113c8       $unwind$?do_toupper@?$ctype@D@std@@MEBAPEBDPEADPEBD@Z 00000001800343c8     rainfall_node.obj
 0002:000113c8       $unwind$ProcessCodePage    00000001800343c8     libucrt:getqloc_downlevel.obj
 0002:000113c8       $unwind$?do_tolower@?$ctype@D@std@@MEBAPEBDPEADPEBD@Z 00000001800343c8     rainfall_node.obj
 0002:000113c8       $unwind$ProcessCodePage    00000001800343c8     libucrt:get_qualified_locale.obj
 0002:000113d8       $unwind$??_G?$codecvt@DDU_Mbstatet@@@std@@MEAAPEAXI@Z 00000001800343d8     libcpmt:cerr.obj
 0002:000113d8       $unwind$__acrt_uninitialize_stdio 00000001800343d8     libucrt:_file.obj
 0002:000113d8       $unwind$__acrt_stdio_free_buffer_nolock 00000001800343d8     libucrt:_freebuf.obj
 0002:000113d8       $unwind$??0exception@std@@QEAA@AEBV01@@Z 00000001800343d8     libcpmt:xthrow.obj
 0002:000113d8       $unwind$__acrt_stdio_allocate_buffer_nolock 00000001800343d8     libucrt:_getbuf.obj
 0002:000113d8       $unwind$_calloc_base       00000001800343d8     libucrt:calloc_base.obj
 0002:000113d8       $unwind$??0logic_error@std@@QEAA@AEBV01@@Z 00000001800343d8     libcpmt:xthrow.obj
 0002:000113d8       $unwind$__std_exception_destroy 00000001800343d8     libvcruntime:std_exception.obj
 0002:000113d8       $unwind$??0length_error@std@@QEAA@AEBV01@@Z 00000001800343d8     libcpmt:xthrow.obj
 0002:000113d8       $unwind$??_G?$_Ref_count_obj@V__ExceptionPtr@@@std@@UEAAPEAXI@Z 00000001800343d8     libcpmt:excptptr.obj
 0002:000113d8       $unwind$?_Reserve@?$vector@Vsample@@V?$allocator@Vsample@@@std@@@std@@IEAAX_K@Z 00000001800343d8     rainfall_node.obj
 0002:000113d8       $unwind$?__GetUnwindTryBlock@@YAHPEA_KPEAU_xDISPATCHER_CONTEXT@@PEBU_s_FuncInfo@@@Z 00000001800343d8     libvcruntime:ehstate.obj
 0002:000113d8       $unwind$_onexit            00000001800343d8     LIBCMT:utility.obj
 0002:000113d8       $unwind$_fflush_nolock     00000001800343d8     libucrt:fflush.obj
 0002:000113d8       $unwind$__scrt_release_startup_lock 00000001800343d8     LIBCMT:utility.obj
 0002:000113d8       $unwind$?__StateFromIp@@YAHPEBU_s_FuncInfo@@PEAU_xDISPATCHER_CONTEXT@@_J@Z 00000001800343d8     libvcruntime:ehstate.obj
 0002:000113d8       $unwind$_purecall          00000001800343d8     libvcruntime:purevirt.obj
 0002:000113d8       $unwind$__scrt_initialize_crt 00000001800343d8     LIBCMT:utility.obj
 0002:000113d8       $unwind$_set_statfp        00000001800343d8     libucrt:fpctrl.obj
 0002:000113d8       $unwind$__std_type_info_destroy_list 00000001800343d8     libvcruntime:std_type_info.obj
 0002:000113d8       $unwind$__scrt_uninitialize_crt 00000001800343d8     LIBCMT:utility.obj
 0002:000113d8       $unwind$??0bad_alloc@std@@QEAA@AEBV01@@Z 00000001800343d8     libcpmt:xthrow.obj
 0002:000113d8       $unwind$_Init_thread_footer 00000001800343d8     LIBCMT:thread_safe_statics.obj
 0002:000113d8       $unwind$__acrt_initialize_locks 00000001800343d8     libucrt:locks.obj
 0002:000113d8       $unwind$??0_Lockit@std@@QEAA@H@Z 00000001800343d8     libcpmt:xlock.obj
 0002:000113d8       $unwind$_Init_thread_header 00000001800343d8     LIBCMT:thread_safe_statics.obj
 0002:000113d8       $unwind$??0out_of_range@std@@QEAA@AEBV01@@Z 00000001800343d8     libcpmt:xthrow.obj
 0002:000113d8       $unwind$?_Addstd@ios_base@std@@SAXPEAV12@@Z 00000001800343d8     libcpmt:ios.obj
 0002:000113d8       $unwind$??_G_Facet_base@std@@UEAAPEAXI@Z 00000001800343d8     rainfall_node.obj
 0002:000113d8       $unwind$?exit_or_terminate_process@@YAXI@Z 00000001800343d8     libucrt:exit.obj
 0002:000113d8       $unwind$__acrt_uninitialize_winapi_thunks 00000001800343d8     libucrt:winapi_thunks.obj
 0002:000113d8       $unwind$?_Ios_base_dtor@ios_base@std@@CAXPEAV12@@Z 00000001800343d8     libcpmt:ios.obj
 0002:000113d8       $unwind$uninitialize_allocated_memory 00000001800343d8     libucrt:initialization.obj
 0002:000113d8       $unwind$__acrt_uninitialize_locks 00000001800343d8     libucrt:locks.obj
 0002:000113d8       $unwind$?do_widen@?$ctype@D@std@@MEBAPEBDPEBD0PEAD@Z 00000001800343d8     rainfall_node.obj
 0002:000113d8       $unwind$??0bad_cast@std@@QEAA@AEBV01@@Z 00000001800343d8     libcpmt:cerr.obj
 0002:000113d8       $unwind$?DloadReleaseSectionWriteAccess@@YAXXZ 00000001800343d8     DelayImp:delayhlp.obj
 0002:000113d8       $unwind$??__Eferr@std@@YAXXZ 00000001800343d8     libcpmt:cerr.obj
 0002:000113d8       $unwind$??1?$basic_string@DU?$char_traits@D@std@@V?$allocator@D@2@@std@@QEAA@XZ 00000001800343d8     rainfall.obj
 0002:000113d8       $unwind$_malloc_base       00000001800343d8     libucrt:malloc_base.obj
 0002:000113d8       $unwind$_Init_thread_notify 00000001800343d8     LIBCMT:thread_safe_statics.obj
 0002:000113d8       $unwind$initialize_pointers 00000001800343d8     libucrt:initialization.obj
 0002:000113d8       $unwind$??_G?$_Ref_count_obj_alloc@V__ExceptionPtr@@U?$_StaticAllocator@H@@@std@@UEAAPEAXI@Z 00000001800343d8     libcpmt:excptptr.obj
 0002:000113d8       $unwind$??0bad_array_new_length@std@@QEAA@AEBV01@@Z 00000001800343d8     LIBCMT:throw_bad_alloc.obj
 0002:000113d8       $unwind$?do_narrow@?$ctype@D@std@@MEBAPEBDPEBD0DPEAD@Z 00000001800343d8     rainfall_node.obj
 0002:000113d8       $unwind$??0bad_exception@std@@QEAA@AEBV01@@Z 00000001800343d8     libvcruntime:frame.obj
 0002:000113d8       $unwind$??2@YAPEAX_K@Z     00000001800343d8     LIBCMT:new_scalar.obj
 0002:000113d8       $unwind$_Getctype          00000001800343d8     libcpmt:_tolower.obj
 0002:000113d8       $unwind$__vcrt_initialize_locks 00000001800343d8     libvcruntime:locks.obj
 0002:000113d8       $unwind$??_Gtype_info@@UEAAPEAXI@Z 00000001800343d8     LIBCMT:std_type_info_static.obj
 0002:000113d8       $unwind$?load_exe_hook@@YAP6A_JXZIPEAUDelayLoadInfo@@@Z 00000001800343d8     win_delay_load_hook.obj
 0002:000113d8       $unwind$?imbue@?$basic_filebuf@DU?$char_traits@D@std@@@std@@MEAAXAEBVlocale@2@@Z 00000001800343d8     libcpmt:cerr.obj
 0002:000113d8       $unwind$_clrfp             00000001800343d8     libucrt:fpctrl.obj
 0002:000113d8       $unwind$__acrt_update_locale_info 00000001800343d8     libucrt:locale_update.obj
 0002:000113d8       $unwind$?setbuf@?$basic_filebuf@DU?$char_traits@D@std@@@std@@MEAAPEAV?$basic_streambuf@DU?$char_traits@D@std@@@2@PEAD_J@Z 00000001800343d8     libcpmt:cerr.obj
 0002:000113d8       $unwind$_SetImageBase      00000001800343d8     libvcruntime:trnsctrl.obj
 0002:000113d8       $unwind$__acrt_update_multibyte_info 00000001800343d8     libucrt:locale_update.obj
 0002:000113d8       $unwind$_SetThrowImageBase 00000001800343d8     libvcruntime:trnsctrl.obj
 0002:000113d8       $unwind$??1DefaultWaiterPool@platform@details@Concurrency@@QEAA@XZ 00000001800343d8     libconcrt:Platform.obj
 0002:000113d8       $unwind$??_G_Ref_count_base@std@@UEAAPEAXI@Z 00000001800343d8     libcpmt:excptptr.obj
 0002:000113d8       $unwind$__vcrt_freeptd     00000001800343d8     libvcruntime:per_thread_data.obj
 0002:000113d8       $unwind$wcscpy_s           00000001800343d8     libucrt:wcscpy_s.obj
 0002:000113d8       $unwind$__acrt_allocate_buffer_for_argv 00000001800343d8     libucrt:argv_parsing.obj
 0002:000113d8       $unwind$??_Gerror_category@std@@UEAAPEAXI@Z 00000001800343d8     rainfall_node.obj
 0002:000113d8       $unwind$??_G_System_error@std@@UEAAPEAXI@Z 00000001800343d8     rainfall_node.obj
 0002:000113d8       $unwind$?_Facet_Register@std@@YAXPEAV_Facet_base@1@@Z 00000001800343d8     libcpmt:locale0.obj
 0002:000113d8       $unwind$__vcrt_uninitialize_locks 00000001800343d8     libvcruntime:locks.obj
 0002:000113d8       $unwind$strcpy_s           00000001800343d8     libucrt:strcpy_s.obj
 0002:000113d8       $unwind$__raise_securityfailure 00000001800343d8     LIBCMT:gs_report.obj
 0002:000113d8       $unwind$?_Setgloballocale@locale@std@@CAXPEAX@Z 00000001800343d8     libcpmt:locale0.obj
 0002:000113d8       $unwind$wcscat_s           00000001800343d8     libucrt:wcscat_s.obj
 0002:000113d8       $unwind$?_Tidy@?$vector@Vsample@@V?$allocator@Vsample@@@std@@@std@@IEAAXXZ 00000001800343d8     rainfall_node.obj
 0002:000113d8       $unwind$?initialize_pointers@@YAHXZ 00000001800343d8     libcpmt:winapisupp.obj
 0002:000113d8       $unwind$?_Reserve@?$vector@Vlocation@@V?$allocator@Vlocation@@@std@@@std@@IEAAX_K@Z 00000001800343d8     rainfall_node.obj
 0002:000113d8       $unwind$??1?$_Yarn@_W@std@@QEAA@XZ 00000001800343d8     rainfall_node.obj
 0002:000113d8       $unwind$??_Gexception@stdext@@UEAAPEAXI@Z 00000001800343d8     rainfall_node.obj
 0002:000113d8       $unwind$??_G_Iostream_error_category@std@@UEAAPEAXI@Z 00000001800343d8     rainfall_node.obj
 0002:000113d8       $unwind$??_Gruntime_error@std@@UEAAPEAXI@Z 00000001800343d8     rainfall_node.obj
 0002:000113d8       $unwind$_IsExceptionObjectToBeDestroyed 00000001800343d8     libvcruntime:trnsctrl.obj
 0002:000113d8       $unwind$??1?$_Yarn@D@std@@QEAA@XZ 00000001800343d8     rainfall_node.obj
 0002:000113d8       $unwind$?_Tidy@?$vector@Vrain_result@@V?$allocator@Vrain_result@@@std@@@std@@IEAAXXZ 00000001800343d8     rainfall_node.obj
 0002:000113d8       $unwind$_CreateFrameInfo   00000001800343d8     libvcruntime:trnsctrl.obj
 0002:000113d8       $unwind$??_Gfailure@ios_base@std@@UEAAPEAXI@Z 00000001800343d8     rainfall_node.obj
 0002:000113d8       $unwind$__acrt_freeptd     00000001800343d8     libucrt:per_thread_data.obj
 0002:000113e0       $unwind$?_New_Locimp@_Locimp@locale@std@@CAPEAV123@_N@Z 00000001800343e0     libcpmt:locale0.obj
 0002:000113e0       $unwind$?internal_isupper_l@@YA_NHQEAU__crt_locale_pointers@@@Z 00000001800343e0     libucrt:tolower_toupper.obj
 0002:000113e0       $unwind$??_G?$basic_streambuf@DU?$char_traits@D@std@@@std@@UEAAPEAXI@Z 00000001800343e0     libcpmt:cerr.obj
 0002:000113e0       $unwind$__acrt_FlsGetValue 00000001800343e0     libucrt:winapi_thunks.obj
 0002:000113e0       $unwind$_updatetlocinfoEx_nolock 00000001800343e0     libucrt:locale_refcounting.obj
 0002:000113e0       $unwind$??0_LocaleUpdate@@QEAA@QEAU__crt_locale_pointers@@@Z 00000001800343e0     libucrt:stricmp.obj
 0002:000113e0       $unwind$GetLcidFromLanguage 00000001800343e0     libucrt:getqloc_downlevel.obj
 0002:000113e0       $unwind$_FindAndUnlinkFrame 00000001800343e0     libvcruntime:trnsctrl.obj
 0002:000113e0       $unwind$__acrt_FlsFree     00000001800343e0     libucrt:winapi_thunks.obj
 0002:000113e0       $unwind$?_Locinfo_ctor@_Locinfo@std@@SAXPEAV12@PEBD@Z 00000001800343e0     libcpmt:locale0.obj
 0002:000113e0       $unwind$?replace_current_thread_locale_nolock@@YAXQEAU__acrt_ptd@@QEAU__crt_locale_data@@@Z 00000001800343e0     libucrt:per_thread_data.obj
 0002:000113e0       $unwind$strncpy_s          00000001800343e0     libucrt:strncpy_s.obj
 0002:000113e0       $unwind$?uflow@?$basic_streambuf@DU?$char_traits@D@std@@@std@@MEAAHXZ 00000001800343e0     libcpmt:cerr.obj
 0002:000113e0       $unwind$__acrt_getptd      00000001800343e0     libucrt:per_thread_data.obj
 0002:000113e0       $unwind$??4?$basic_string@DU?$char_traits@D@std@@V?$allocator@D@2@@std@@QEAAAEAV01@$$QEAV01@@Z 00000001800343e0     rainfall.obj
 0002:000113e0       $unwind$GetLcidFromLangCountry 00000001800343e0     libucrt:getqloc_downlevel.obj
 0002:000113e0       $unwind$__crtGetSystemTimePreciseAsFileTime 00000001800343e0     libcpmt:winapisupp.obj
 0002:000113e0       $unwind$_Deletegloballocale 00000001800343e0     libcpmt:locale0.obj
 0002:000113e0       $unwind$?pbackfail@?$basic_filebuf@DU?$char_traits@D@std@@@std@@MEAAHH@Z 00000001800343e0     libcpmt:cerr.obj
 0002:000113e0       $unwind$xtime_get          00000001800343e0     libcpmt:xtime.obj
 0002:000113e0       $unwind$??_G?$ctype@D@std@@MEAAPEAXI@Z 00000001800343e0     rainfall_node.obj
 0002:000113e0       $unwind$__acrt_FlsAlloc    00000001800343e0     libucrt:winapi_thunks.obj
 0002:000113e0       $unwind$?<helper_func_cdecl>@<lambda_e2bb8337c48846e80c921ea5ddadc92d>@@CAHPEA_W@Z 00000001800343e0     libucrt:winapi_thunks.obj
 0002:000113e0       $unwind$__vcrt_FlsAlloc    00000001800343e0     libvcruntime:winapi_downlevel.obj
 0002:000113e0       $unwind$GetLocaleNameFromLangCountry 00000001800343e0     libucrt:get_qualified_locale.obj
 0002:000113e0       $unwind$__acrt_invoke_user_matherr 00000001800343e0     libucrt:matherr.obj
 0002:000113e0       $unwind$fgetpos            00000001800343e0     libucrt:fgetpos.obj
 0002:000113e0       $unwind$__acrt_stdio_begin_temporary_buffering_nolock 00000001800343e0     libucrt:_sftbuf.obj
 0002:000113e0       $unwind$__acrt_errno_map_os_error 00000001800343e0     libucrt:errno.obj
 0002:000113e0       $unwind$??_Gbad_exception@std@@UEAAPEAXI@Z 00000001800343e0     libvcruntime:frame.obj
 0002:000113e0       $unwind$?_Delete_this@?$_Ref_count_obj_alloc@V__ExceptionPtr@@U?$_StaticAllocator@H@@@std@@EEAAXXZ 00000001800343e0     libcpmt:excptptr.obj
 0002:000113e0       $unwind$??$common_xtox@K_W@@YAHKQEA_W_KI_N@Z 00000001800343e0     libucrt:xtoa.obj
 0002:000113e0       $unwind$??_Gout_of_range@std@@UEAAPEAXI@Z 00000001800343e0     libcpmt:xthrow.obj
 0002:000113e0       $unwind$??$common_initialize_environment_nolock@D@@YAHXZ 00000001800343e0     libucrt:environment_initialization.obj
 0002:000113e0       $unwind$??_Gbad_array_new_length@std@@UEAAPEAXI@Z 00000001800343e0     LIBCMT:throw_bad_alloc.obj
 0002:000113e0       $unwind$??_G?$basic_filebuf@DU?$char_traits@D@std@@@std@@UEAAPEAXI@Z 00000001800343e0     libcpmt:cerr.obj
 0002:000113e0       $unwind$wcsncpy_s          00000001800343e0     libucrt:wcsncpy_s.obj
 0002:000113e0       $unwind$__vcrt_FlsFree     00000001800343e0     libvcruntime:winapi_downlevel.obj
 0002:000113e0       $unwind$?DloadAcquireSectionWriteAccess@@YAXXZ 00000001800343e0     DelayImp:delayhlp.obj
 0002:000113e0       $unwind$??_Gbad_cast@std@@UEAAPEAXI@Z 00000001800343e0     libcpmt:cerr.obj
 0002:000113e0       $unwind$__acrt_locale_initialize_time 00000001800343e0     libucrt:inittime.obj
 0002:000113e0       $unwind$??1_Locinfo@std@@QEAA@XZ 00000001800343e0     rainfall_node.obj
 0002:000113e0       $unwind$__acrt_uninitialize_lowio 00000001800343e0     libucrt:ioinit.obj
 0002:000113e0       $unwind$??1sentry@?$basic_ostream@DU?$char_traits@D@std@@@std@@QEAA@XZ 00000001800343e0     rainfall_node.obj
 0002:000113e0       $unwind$?try_cor_exit_process@@YAXI@Z 00000001800343e0     libucrt:exit.obj
 0002:000113e0       $unwind$__vcrt_FlsGetValue 00000001800343e0     libvcruntime:winapi_downlevel.obj
 0002:000113e0       $unwind$?push_back@?$vector@Vlocation@@V?$allocator@Vlocation@@@std@@@std@@QEAAX$$QEAVlocation@@@Z 00000001800343e0     rainfall_node.obj
 0002:000113e0       $unwind$_close_nolock      00000001800343e0     libucrt:close.obj
 0002:000113e0       $unwind$?resize@?$vector@Vrain_result@@V?$allocator@Vrain_result@@@std@@@std@@QEAAX_K@Z 00000001800343e0     rainfall_node.obj
 0002:000113e0       $unwind$GetLocaleNameFromLanguage 00000001800343e0     libucrt:get_qualified_locale.obj
 0002:000113e0       $unwind$??1_Init_locks@std@@QEAA@XZ 00000001800343e0     libcpmt:xlock.obj
 0002:000113e0       $unwind$??_Glength_error@std@@UEAAPEAXI@Z 00000001800343e0     libcpmt:xthrow.obj
 0002:000113e0       $unwind$_realloc_base      00000001800343e0     libucrt:realloc_base.obj
 0002:000113e0       $unwind$?__SetUnwindTryBlock@@YAXPEA_KPEAU_xDISPATCHER_CONTEXT@@PEBU_s_FuncInfo@@H@Z 00000001800343e0     libvcruntime:ehstate.obj
 0002:000113e0       $unwind$??_Glogic_error@std@@UEAAPEAXI@Z 00000001800343e0     libcpmt:xthrow.obj
 0002:000113e0       $unwind$?erase@?$basic_string@DU?$char_traits@D@std@@V?$allocator@D@2@@std@@QEAAAEAV12@_K0@Z 00000001800343e0     rainfall.obj
 0002:000113e0       $unwind$__acrt_IsValidLocaleName 00000001800343e0     libucrt:winapi_thunks.obj
 0002:000113e0       $unwind$?DloadGetSRWLockFunctionPointers@@YAEXZ 00000001800343e0     DelayImp:delayhlp.obj
 0002:000113e0       $unwind$_ungetc_nolock     00000001800343e0     libucrt:ungetc.obj
 0002:000113e0       $unwind$?_Assign_rv@?$basic_string@DU?$char_traits@D@std@@V?$allocator@D@2@@std@@QEAAX$$QEAV12@@Z 00000001800343e0     rainfall.obj
 0002:000113e0       $unwind$??0?$basic_string@DU?$char_traits@D@std@@V?$allocator@D@2@@std@@QEAA@$$QEAV01@@Z 00000001800343e0     rainfall.obj
 0002:000113e0       $unwind$??_Gexception@std@@UEAAPEAXI@Z 00000001800343e0     libcpmt:xthrow.obj
 0002:000113e0       $unwind$_callnewh          00000001800343e0     libucrt:new_handler.obj
 0002:000113e0       $unwind$??__F?m_badAllocExceptionPtr@__ExceptionPtr@@0V?$shared_ptr@V__ExceptionPtr@@@std@@A@@YAXXZ 00000001800343e0     libcpmt:excptptr.obj
 0002:000113e0       $unwind$_fclose_nolock     00000001800343e0     libucrt:fclose.obj
 0002:000113e0       $unwind$??_Gbad_alloc@std@@UEAAPEAXI@Z 00000001800343e0     libcpmt:xthrow.obj
 0002:000113e0       $unwind$?ExFilterRethrow@@YAHPEAU_EXCEPTION_POINTERS@@PEAUEHExceptionRecord@@PEAH@Z 00000001800343e0     libvcruntime:frame.obj
 0002:000113ec       $unwind$?_Copy@?$basic_string@DU?$char_traits@D@std@@V?$allocator@D@2@@std@@QEAAX_K0@Z 00000001800343ec     rainfall.obj
 0002:00011400       $unwind$??$_Sort_unchecked1@PEAVsample@@_JU?$less@X@std@@@std@@YAXPEAVsample@@0_JAEAU?$less@X@0@@Z 0000000180034400     rainfall.obj
 0002:00011414       $unwind$??$_Partition_by_median_guess_unchecked@PEAVsample@@U?$less@X@std@@@std@@YA?AU?$pair@PEAVsample@@PEAV1@@0@PEAVsample@@0AEAU?$less@X@0@@Z 0000000180034414     rainfall.obj
 0002:00011438       $stateUnwindMap$??$_Sort_heap_unchecked@PEAVsample@@U?$less@X@std@@@std@@YAXPEAVsample@@0AEAU?$less@X@0@@Z 0000000180034438     rainfall.obj
 0002:00011438       $stateUnwindMap$??$_Make_heap_unchecked@PEAVsample@@U?$less@X@std@@@std@@YAXPEAVsample@@0AEAU?$less@X@0@@Z 0000000180034438     rainfall.obj
 0002:00011438       $stateUnwindMap$??$_Partition_by_median_guess_unchecked@PEAVsample@@U?$less@X@std@@@std@@YA?AU?$pair@PEAVsample@@PEAV1@@0@PEAVsample@@0AEAU?$less@X@0@@Z 0000000180034438     rainfall.obj
 0002:00011440       $ip2state$??$_Partition_by_median_guess_unchecked@PEAVsample@@U?$less@X@std@@@std@@YA?AU?$pair@PEAVsample@@PEAV1@@0@PEAVsample@@0AEAU?$less@X@0@@Z 0000000180034440     rainfall.obj
 0002:00011468       $unwind$??$_Make_heap_unchecked@PEAVsample@@U?$less@X@std@@@std@@YAXPEAVsample@@0AEAU?$less@X@0@@Z 0000000180034468     rainfall.obj
 0002:00011488       $ip2state$??$_Make_heap_unchecked@PEAVsample@@U?$less@X@std@@@std@@YAXPEAVsample@@0AEAU?$less@X@0@@Z 0000000180034488     rainfall.obj
 0002:000114a0       $unwind$??$_Sort_heap_unchecked@PEAVsample@@U?$less@X@std@@@std@@YAXPEAVsample@@0AEAU?$less@X@0@@Z 00000001800344a0     rainfall.obj
 0002:000114c0       $ip2state$??$_Sort_heap_unchecked@PEAVsample@@U?$less@X@std@@@std@@YAXPEAVsample@@0AEAU?$less@X@0@@Z 00000001800344c0     rainfall.obj
 0002:000114d8       $unwind$??$_Insertion_sort_unchecked@PEAVsample@@U?$less@X@std@@@std@@YAXPEAVsample@@0AEAU?$less@X@0@@Z 00000001800344d8     rainfall.obj
 0002:000114fc       $stateUnwindMap$??$_Insertion_sort_unchecked@PEAVsample@@U?$less@X@std@@@std@@YAXPEAVsample@@0AEAU?$less@X@0@@Z 00000001800344fc     rainfall.obj
 0002:000114fc       $stateUnwindMap$??$swap@Vsample@@X@std@@YAXAEAVsample@@0@Z 00000001800344fc     rainfall.obj
 0002:00011508       $ip2state$??$_Insertion_sort_unchecked@PEAVsample@@U?$less@X@std@@@std@@YAXPEAVsample@@0AEAU?$less@X@0@@Z 0000000180034508     rainfall.obj
 0002:00011530       $unwind$??$_Guess_median_unchecked@PEAVsample@@U?$less@X@std@@@std@@YAXPEAVsample@@00AEAU?$less@X@0@@Z 0000000180034530     rainfall.obj
 0002:0001153c       $chain$0$??$_Guess_median_unchecked@PEAVsample@@U?$less@X@std@@@std@@YAXPEAVsample@@00AEAU?$less@X@0@@Z 000000018003453c     rainfall.obj
 0002:00011550       $chain$3$??$_Guess_median_unchecked@PEAVsample@@U?$less@X@std@@@std@@YAXPEAVsample@@00AEAU?$less@X@0@@Z 0000000180034550     rainfall.obj
 0002:0001156c       $chain$4$??$_Guess_median_unchecked@PEAVsample@@U?$less@X@std@@@std@@YAXPEAVsample@@00AEAU?$less@X@0@@Z 000000018003456c     rainfall.obj
 0002:00011580       $chain$5$??$_Guess_median_unchecked@PEAVsample@@U?$less@X@std@@@std@@YAXPEAVsample@@00AEAU?$less@X@0@@Z 0000000180034580     rainfall.obj
 0002:00011590       $chain$6$??$_Guess_median_unchecked@PEAVsample@@U?$less@X@std@@@std@@YAXPEAVsample@@00AEAU?$less@X@0@@Z 0000000180034590     rainfall.obj
 0002:000115a0       $unwind$??$_Pop_heap_hole_by_index@PEAVsample@@_JV1@U?$less@X@std@@@std@@YAXPEAVsample@@_J1$$QEAV1@AEAU?$less@X@0@@Z 00000001800345a0     rainfall.obj
 0002:000115bc       $unwind$??$swap@Vsample@@X@std@@YAXAEAVsample@@0@Z 00000001800345bc     rainfall.obj
 0002:000115d8       $ip2state$??$swap@Vsample@@X@std@@YAXAEAVsample@@0@Z 00000001800345d8     rainfall.obj
 0002:000115f0       $unwind$??$_Push_heap_by_index@PEAVsample@@_JV1@U?$less@X@std@@@std@@YAXPEAVsample@@_J1$$QEAV1@AEAU?$less@X@0@@Z 00000001800345f0     rainfall.obj
 0002:000115fc       $chain$1$??$_Push_heap_by_index@PEAVsample@@_JV1@U?$less@X@std@@@std@@YAXPEAVsample@@_J1$$QEAV1@AEAU?$less@X@0@@Z 00000001800345fc     rainfall.obj
 0002:00011614       $chain$2$??$_Push_heap_by_index@PEAVsample@@_JV1@U?$less@X@std@@@std@@YAXPEAVsample@@_J1$$QEAV1@AEAU?$less@X@0@@Z 0000000180034614     rainfall.obj
 0002:00011628       $chain$3$??$_Push_heap_by_index@PEAVsample@@_JV1@U?$less@X@std@@@std@@YAXPEAVsample@@_J1$$QEAV1@AEAU?$less@X@0@@Z 0000000180034628     rainfall.obj
 0002:00011638       $chain$4$??$_Push_heap_by_index@PEAVsample@@_JV1@U?$less@X@std@@@std@@YAXPEAVsample@@_J1$$QEAV1@AEAU?$less@X@0@@Z 0000000180034638     rainfall.obj
 0002:00011648       $unwind$?xsputn@?$basic_streambuf@DU?$char_traits@D@std@@@std@@MEAA_JPEBD_J@Z 0000000180034648     libcpmt:cerr.obj
 0002:00011648       $unwind$??$_Move_backward_unchecked1@PEAVsample@@PEAV1@@std@@YAPEAVsample@@PEAV1@00U_General_ptr_iterator_tag@0@@Z 0000000180034648     rainfall.obj
 0002:00011660       $unwind$??$common_xtox_s@K_W@@YAHKQEA_W_KI_N@Z 0000000180034660     libucrt:xtoa.obj
 0002:00011660       $unwind$?message@error_code@std@@QEBA?AV?$basic_string@DU?$char_traits@D@std@@V?$allocator@D@2@@2@XZ 0000000180034660     rainfall_node.obj
 0002:00011660       $unwind$?getloc@ios_base@std@@QEBA?AVlocale@2@XZ 0000000180034660     rainfall_node.obj
 0002:00011660       $unwind$?equivalent@error_category@std@@UEBA_NHAEBVerror_condition@2@@Z 0000000180034660     rainfall_node.obj
 0002:00011660       $unwind$??0length_error@std@@QEAA@PEBD@Z 0000000180034660     libcpmt:xthrow.obj
 0002:00011660       $unwind$?_Raise@exception@stdext@@QEBAXXZ 0000000180034660     rainfall_node.obj
 0002:00011660       $unwind$??0out_of_range@std@@QEAA@PEBD@Z 0000000180034660     libcpmt:xthrow.obj
 0002:00011660       $unwind$?InitializeCookie@Security@details@Concurrency@@SA_KXZ 0000000180034660     libconcrt:utils.obj
 0002:00011660       $unwind$?message@_Iostream_error_category@std@@UEBA?AV?$basic_string@DU?$char_traits@D@std@@V?$allocator@D@2@@2@H@Z 0000000180034660     rainfall_node.obj
 0002:00011668       $unwind$?NODE_SET_METHOD@node@@YAXV?$Local@VObject@v8@@@v8@@PEBDP6AXAEBV?$FunctionCallbackInfo@VValue@v8@@@3@@Z@Z 0000000180034668     rainfall_node.obj
 0002:00011680       $stateUnwindMap$?NODE_SET_METHOD@node@@YAXV?$Local@VObject@v8@@@v8@@PEBDP6AXAEBV?$FunctionCallbackInfo@VValue@v8@@@3@@Z@Z 0000000180034680     rainfall_node.obj
 0002:00011688       $ip2state$?NODE_SET_METHOD@node@@YAXV?$Local@VObject@v8@@@v8@@PEBDP6AXAEBV?$FunctionCallbackInfo@VValue@v8@@@3@@Z@Z 0000000180034688     rainfall_node.obj
 0002:000116a0       $unwind$??0_Locinfo@std@@QEAA@PEBD@Z 00000001800346a0     rainfall_node.obj
 0002:000116b4       $stateUnwindMap$??0_Locinfo@std@@QEAA@PEBD@Z 00000001800346b4     rainfall_node.obj
 0002:00011700       $ip2state$??0_Locinfo@std@@QEAA@PEBD@Z 0000000180034700     rainfall_node.obj
 0002:00011758       $unwind$?_Getcat@?$ctype@D@std@@SA_KPEAPEBVfacet@locale@2@PEBV42@@Z 0000000180034758     rainfall_node.obj
 0002:00011778       $stateUnwindMap$?_Getcat@?$ctype@D@std@@SA_KPEAPEBVfacet@locale@2@PEBV42@@Z 0000000180034778     rainfall_node.obj
 0002:000117c0       $ip2state$?_Getcat@?$ctype@D@std@@SA_KPEAPEBVfacet@locale@2@PEBV42@@Z 00000001800347c0     rainfall_node.obj
 0002:00011828       $unwind$?dtor$5@?0???$make_shared@V__ExceptionPtr@@AEAPEAUEHExceptionRecord@@_N@std@@YA?AV?$shared_ptr@V__ExceptionPtr@@@0@AEAPEAUEHExceptionRecord@@$$QEA_N@Z@4HA 0000000180034828     libcpmt:excptptr.obj
 0002:00011828       $unwind$?fin$0@?0??common_fseek@@YAHV__crt_stdio_stream@@_JH@Z@4HA 0000000180034828     libucrt:fseek.obj
 0002:00011828       $unwind$?fin$0@?0???$?RV<lambda_630b2aca97f6d20d5b5ea6529ea6b6af>@@AEAV<lambda_af91936f1d075d609f72d9d8cba980af>@@V<lambda_e82fa975f615b5c7c7b0e4d178fdae67>@@@?$__crt_seh_guarded_call@H@@QEAAH$$QEAV<lambda_630b2aca97f6d20d5b5ea6529ea6b6af>@@AEAV<lambda_af91936f1d075d609f72d9d8cba980af>@@$$QEAV<lambda_e82fa975f615b5c7c7b0e4d178fdae67>@@@Z@4HA 0000000180034828     libucrt:winapi_thunks.obj
 0002:00011828       $unwind$raise$fin$0        0000000180034828     libucrt:signal.obj
 0002:00011828       $unwind$fputc$fin$0        0000000180034828     libucrt:fputc.obj
 0002:00011828       $unwind$?fin$0@?0???$?RV<lambda_c36588078e9f5dfd39652860aa6b3aaf>@@AEAV<lambda_ec61778202f4f5fc7e7711acc23c3bca>@@V<lambda_dc9d2797ccde5d239b4a0efae8ebd7db>@@@?$__crt_seh_guarded_call@P6AXH@Z@@QEAAP6AXH@Z$$QEAV<lambda_c36588078e9f5dfd39652860aa6b3aaf>@@AEAV<lambda_ec61778202f4f5fc7e7711acc23c3bca>@@$$QEAV<lambda_dc9d2797ccde5d239b4a0efae8ebd7db>@@@Z@4HA 0000000180034828     libucrt:signal.obj
 0002:00011828       $unwind$?fin$0@?0???$common_ftell@_J@@YA_JV__crt_stdio_stream@@@Z@4HA 0000000180034828     libucrt:ftell.obj
 0002:00011828       $unwind$__acrt_update_thread_locale_data$fin$0 0000000180034828     libucrt:locale_refcounting.obj
 0002:00011828       $unwind$?dtor$0@?0???$make_shared@V__ExceptionPtr@@AEAPEAUEHExceptionRecord@@_N@std@@YA?AV?$shared_ptr@V__ExceptionPtr@@@0@AEAPEAUEHExceptionRecord@@$$QEA_N@Z@4HA 0000000180034828     libcpmt:excptptr.obj
 0002:00011828       $unwind$?fin$0@?0???$?RV<lambda_d67e8342c384adda8f857579ab50b2ae>@@AEAV<lambda_30712929f77e709619002f448b6a9510>@@V<lambda_4525336fd7e478d965fb7ca7a337cad8>@@@?$__crt_seh_guarded_call@X@@QEAAX$$QEAV<lambda_d67e8342c384adda8f857579ab50b2ae>@@AEAV<lambda_30712929f77e709619002f448b6a9510>@@$$QEAV<lambda_4525336fd7e478d965fb7ca7a337cad8>@@@Z@4HA 0000000180034828     libucrt:wsetlocale.obj
 0002:00011828       $unwind$?fin$0@?0???$?RV<lambda_5df02c53a8f32f81fd64e5bbb78039f1>@@AEAV<lambda_2af78c5f5901b1372d98f9ab3177dfa6>@@AEAV<lambda_f51fe5fd7c79a33db34fc9310f277369>@@@?$__crt_seh_guarded_call@X@@QEAAX$$QEAV<lambda_5df02c53a8f32f81fd64e5bbb78039f1>@@AEAV<lambda_2af78c5f5901b1372d98f9ab3177dfa6>@@AEAV<lambda_f51fe5fd7c79a33db34fc9310f277369>@@@Z@4HA 0000000180034828     libucrt:wsetlocale.obj
 0002:00011828       $unwind$fgetc$fin$0        0000000180034828     libucrt:fgetc.obj
 0002:00011828       $unwind$_read$fin$0        0000000180034828     libucrt:read.obj
 0002:00011828       $unwind$?fin$0@?0???$?RV<lambda_5d4c3fee44080f75d5d9762853974fe0>@@AEAV<lambda_532e024f4337e6fc7ad266c2bef9f4ed>@@V<lambda_c87bdc10097eb2402edb8ba9bdf0697b>@@@?$__crt_seh_guarded_call@_K@@QEAA_K$$QEAV<lambda_5d4c3fee44080f75d5d9762853974fe0>@@AEAV<lambda_532e024f4337e6fc7ad266c2bef9f4ed>@@$$QEAV<lambda_c87bdc10097eb2402edb8ba9bdf0697b>@@@Z@4HA 0000000180034828     libucrt:fwrite.obj
 0002:00011828       $unwind$_ctrlfp$filt$0     0000000180034828     libucrt:fpctrl.obj
 0002:00011828       $unwind$?dtor$11@?0???$allocate_shared@V__ExceptionPtr@@U?$_StaticAllocator@H@@AEAPEAUEHExceptionRecord@@_N@std@@YA?AV?$shared_ptr@V__ExceptionPtr@@@0@AEBU?$_StaticAllocator@H@@AEAPEAUEHExceptionRecord@@$$QEA_N@Z@4HA 0000000180034828     libcpmt:excptptr.obj
 0002:00011828       $unwind$_write$fin$0       0000000180034828     libucrt:write.obj
 0002:00011828       $unwind$?fin$0@?0???$?RV<lambda_72d1df2b273a38828b1ce30cbf4cdab5>@@AEAV<lambda_876a65b173b8412d3a47c70a915b0cf4>@@V<lambda_41932305e351933ebe8f8be3ed8bb5dc>@@@?$__crt_seh_guarded_call@X@@QEAAX$$QEAV<lambda_72d1df2b273a38828b1ce30cbf4cdab5>@@AEAV<lambda_876a65b173b8412d3a47c70a915b0cf4>@@$$QEAV<lambda_41932305e351933ebe8f8be3ed8bb5dc>@@@Z@4HA 0000000180034828     libucrt:per_thread_data.obj
 0002:00011828       $unwind$__CxxCallCatchBlock$filt$0 0000000180034828     libvcruntime:frame.obj
 0002:00011828       $unwind$__acrt_lowio_ensure_fh_exists$fin$0 0000000180034828     libucrt:osfinfo.obj
 0002:00011828       $unwind$?fin$0@?0???$?RV<lambda_7a5ef57ff966f610505f1d28a3d40618>@@AEAV<lambda_b721fa326cdb32351d23dfa67958c160>@@V<lambda_5e0fb27672408a07956fe59e48ccb2aa>@@@?$__crt_seh_guarded_call@H@@QEAAH$$QEAV<lambda_7a5ef57ff966f610505f1d28a3d40618>@@AEAV<lambda_b721fa326cdb32351d23dfa67958c160>@@$$QEAV<lambda_5e0fb27672408a07956fe59e48ccb2aa>@@@Z@4HA 0000000180034828     libucrt:setvbuf.obj
 0002:00011828       $unwind$__acrt_uninitialize_locale$fin$0 0000000180034828     libucrt:wsetlocale.obj
 0002:00011828       $unwind$?fin$0@?0???$?RV<lambda_99476a1ad63dd22509b5d3e65b0ffc95>@@AEAV<lambda_ad1ced32f4ac17aa236e5ef05d6b3b7c>@@V<lambda_f7424dd8d45958661754dc4f2697e9c3>@@@?$__crt_seh_guarded_call@X@@QEAAX$$QEAV<lambda_99476a1ad63dd22509b5d3e65b0ffc95>@@AEAV<lambda_ad1ced32f4ac17aa236e5ef05d6b3b7c>@@$$QEAV<lambda_f7424dd8d45958661754dc4f2697e9c3>@@@Z@4HA 0000000180034828     libucrt:mbctype.obj
 0002:00011828       $unwind$fflush$fin$0       0000000180034828     libucrt:fflush.obj
 0002:00011828       $unwind$?fin$0@?0???$?RV<lambda_fb3a7dec4e47f37f22dae91bb15c9095>@@AEAV<lambda_698284760c8add0bfb0756c19673e34b>@@V<lambda_dfb8eca1e75fef3034a8fb18dd509707>@@@?$__crt_seh_guarded_call@X@@QEAAX$$QEAV<lambda_fb3a7dec4e47f37f22dae91bb15c9095>@@AEAV<lambda_698284760c8add0bfb0756c19673e34b>@@$$QEAV<lambda_dfb8eca1e75fef3034a8fb18dd509707>@@@Z@4HA 0000000180034828     libucrt:per_thread_data.obj
 0002:00011828       $unwind$?fin$0@?0???$?RV<lambda_5e887d1dcbef67a5eb4283622ba103bf>@@AEAV<lambda_4466841279450cc726390878d4a41900>@@V<lambda_341c25c0346d94847f1f3c463c57e077>@@@?$__crt_seh_guarded_call@X@@QEAAX$$QEAV<lambda_5e887d1dcbef67a5eb4283622ba103bf>@@AEAV<lambda_4466841279450cc726390878d4a41900>@@$$QEAV<lambda_341c25c0346d94847f1f3c463c57e077>@@@Z@4HA 0000000180034828     libucrt:per_thread_data.obj
 0002:00011828       $unwind$__FrameUnwindToState$filt$0 0000000180034828     libvcruntime:frame.obj
 0002:00011828       $unwind$_IsNonwritableInCurrentImage$filt$0 0000000180034828     LIBCMT:pesect.obj
 0002:00011828       $unwind$?dtor$0@?0???0?$basic_ostream@DU?$char_traits@D@std@@@std@@QEAA@PEAV?$basic_streambuf@DU?$char_traits@D@std@@@1@_N@Z@4HA 0000000180034828     libcpmt:cerr.obj
 0002:00011828       $unwind$?dtor$1@?0???$?0AEAPEAUEHExceptionRecord@@_N@?$_Ref_count_obj_alloc@V__ExceptionPtr@@U?$_StaticAllocator@H@@@std@@QEAA@AEBU?$_StaticAllocator@H@@AEAPEAUEHExceptionRecord@@$$QEA_N@Z@4HA 0000000180034828     libcpmt:excptptr.obj
 0002:00011828       $unwind$?fin$0@?0???$common_lseek@_J@@YA_JH_JH@Z@4HA 0000000180034828     libucrt:lseek.obj
 0002:00011828       $unwind$common_flush_all$fin$0 0000000180034828     libucrt:fflush.obj
 0002:00011828       $unwind$?dtor$0@?0??push_back@?$vector@Vsample@@V?$allocator@Vsample@@@std@@@std@@QEAAXAEBVsample@@@Z@4HA 0000000180034828     rainfall_node.obj
 0002:00011828       $unwind$__FrameUnwindToState$fin$1 0000000180034828     libvcruntime:frame.obj
 0002:00011828       $unwind$common_flush_all$fin$1 0000000180034828     libucrt:fflush.obj
 0002:00011828       $unwind$fclose$fin$0       0000000180034828     libucrt:fclose.obj
 0002:00011828       $unwind$?dtor$0@?0??unpack_location@@YA?AVlocation@@PEAVIsolate@v8@@V?$Local@VObject@v8@@@3@@Z@4HA 0000000180034828     rainfall_node.obj
 0002:00011828       $unwind$__acrt_update_thread_multibyte_data$fin$0 0000000180034828     libucrt:mbctype.obj
 0002:00011828       $unwind$_fcloseall$fin$0   0000000180034828     libucrt:closeall.obj
 0002:00011828       $unwind$ungetc$fin$0       0000000180034828     libucrt:ungetc.obj
 0002:00011828       $unwind$__acrt_initialize_lowio$fin$0 0000000180034828     libucrt:ioinit.obj
 0002:00011828       $unwind$_query_new_handler$fin$0 0000000180034828     libucrt:new_handler.obj
 0002:00011828       $unwind$?fin$0@?0??dllmain_crt_process_detach@@YAH_N@Z@4HA 0000000180034828     LIBCMT:dll_dllmain.obj
 0002:00011828       $unwind$?fin$1@?0??common_exit@@YAXHW4_crt_exit_cleanup_mode@@W4_crt_exit_return_mode@@@Z@4HA 0000000180034828     libucrt:exit.obj
 0002:00011828       $unwind$?dtor$0@?0??_Getcat@?$codecvt@DDU_Mbstatet@@@std@@SA_KPEAPEBVfacet@locale@2@PEBV42@@Z@4HA 0000000180034828     libcpmt:cerr.obj
 0002:00011828       $unwind$?filt$0@?0??common_exit@@YAXHW4_crt_exit_cleanup_mode@@W4_crt_exit_return_mode@@@Z@4HA 0000000180034828     libucrt:exit.obj
 0002:00011828       $unwind$?dtor$2@?0??push_back@?$vector@Vsample@@V?$allocator@Vsample@@@std@@@std@@QEAAXAEBVsample@@@Z@4HA 0000000180034828     rainfall_node.obj
 0002:00011828       $unwind$?fin$0@?0??dllmain_crt_process_attach@@YAHQEAUHINSTANCE__@@QEAX@Z@4HA 0000000180034828     LIBCMT:dll_dllmain.obj
 0002:00011828       $unwind$__DestructExceptionObject$filt$0 0000000180034828     libvcruntime:frame.obj
 0002:00011828       $unwind$?fin$0@?0???$?RV<lambda_b8c45f8f788dd370798f47cfe8ac3a86>@@AEAV<lambda_4e60a939b0d047cfe11ddc22648dfba9>@@V<lambda_332c3edc96d0294ec56c57d38c1cdfd5>@@@?$__crt_seh_guarded_call@H@@QEAAH$$QEAV<lambda_b8c45f8f788dd370798f47cfe8ac3a86>@@AEAV<lambda_4e60a939b0d047cfe11ddc22648dfba9>@@$$QEAV<lambda_332c3edc96d0294ec56c57d38c1cdfd5>@@@Z@4HA 0000000180034828     libucrt:onexit.obj
 0002:00011828       $unwind$?fin$0@?0???$?RV<lambda_e24bbb7b643b32fcea6fa61b31d4c984>@@AEAV<lambda_275893d493268fdec8709772e3fcec0e>@@V<lambda_9d71df4d7cf3f480f8d633942495c3b0>@@@?$__crt_seh_guarded_call@H@@QEAAH$$QEAV<lambda_e24bbb7b643b32fcea6fa61b31d4c984>@@AEAV<lambda_275893d493268fdec8709772e3fcec0e>@@$$QEAV<lambda_9d71df4d7cf3f480f8d633942495c3b0>@@@Z@4HA 0000000180034828     libucrt:onexit.obj
 0002:00011828       $unwind$?fin$0@?0???$?RV<lambda_46352004c1216016012b18bd6f87e700>@@AEAV<lambda_3bd07e1a1191394380780325891bf33f>@@V<lambda_334532d3f185bcaa59b5be82d7d22bff>@@@?$__crt_seh_guarded_call@X@@QEAAX$$QEAV<lambda_46352004c1216016012b18bd6f87e700>@@AEAV<lambda_3bd07e1a1191394380780325891bf33f>@@$$QEAV<lambda_334532d3f185bcaa59b5be82d7d22bff>@@@Z@4HA 0000000180034828     libucrt:per_thread_data.obj
 0002:00011828       $unwind$?fin$0@?0???$?RV<lambda_b521505b218e5242e90febf6bfebc422>@@AEAV<lambda_6978c1fb23f02e42e1d9e99668cc68aa>@@V<lambda_314360699dd331753a4119843814e9a7>@@@?$__crt_seh_guarded_call@H@@QEAAH$$QEAV<lambda_b521505b218e5242e90febf6bfebc422>@@AEAV<lambda_6978c1fb23f02e42e1d9e99668cc68aa>@@$$QEAV<lambda_314360699dd331753a4119843814e9a7>@@@Z@4HA 0000000180034828     libucrt:commit.obj
 0002:00011828       $unwind$?dtor$0@?0??unpack_sample@@YA?AVsample@@PEAVIsolate@v8@@V?$Local@VObject@v8@@@3@@Z@4HA 0000000180034828     rainfall_node.obj
 0002:00011828       $unwind$?dtor$0@?0??_Getcat@?$ctype@D@std@@SA_KPEAPEBVfacet@locale@2@PEBV42@@Z@4HA 0000000180034828     rainfall_node.obj
 0002:00011828       $unwind$?fin$0@?0???$?RV<lambda_bfedae4ebbf01fab1bb6dcc6a9e276e0>@@AEAV<lambda_2fe9b910cf3cbf4a0ab98a02ba45b3ec>@@V<lambda_237c231691f317818eb88cc1d5d642d6>@@@?$__crt_seh_guarded_call@H@@QEAAH$$QEAV<lambda_bfedae4ebbf01fab1bb6dcc6a9e276e0>@@AEAV<lambda_2fe9b910cf3cbf4a0ab98a02ba45b3ec>@@$$QEAV<lambda_237c231691f317818eb88cc1d5d642d6>@@@Z@4HA 0000000180034828     libucrt:close.obj
 0002:00011830       $chain$0$?do_tolower@?$ctype@D@std@@MEBAPEBDPEADPEBD@Z 0000000180034830     rainfall_node.obj
 0002:00011844       $chain$1$?do_tolower@?$ctype@D@std@@MEBAPEBDPEADPEBD@Z 0000000180034844     rainfall_node.obj
 0002:00011854       $chain$0$?do_toupper@?$ctype@D@std@@MEBAPEBDPEADPEBD@Z 0000000180034854     rainfall_node.obj
 0002:00011868       $chain$1$?do_toupper@?$ctype@D@std@@MEBAPEBDPEADPEBD@Z 0000000180034868     rainfall_node.obj
 0002:00011878       $unwind$?_Makestr@_System_error@std@@CA?AV?$basic_string@DU?$char_traits@D@std@@V?$allocator@D@2@@2@Verror_code@2@V32@@Z 0000000180034878     rainfall_node.obj
 0002:00011890       $stateUnwindMap$?_Makestr@_System_error@std@@CA?AV?$basic_string@DU?$char_traits@D@std@@V?$allocator@D@2@@2@Verror_code@2@V32@@Z 0000000180034890     rainfall_node.obj
 0002:000118a0       $ip2state$?_Makestr@_System_error@std@@CA?AV?$basic_string@DU?$char_traits@D@std@@V?$allocator@D@2@@2@Verror_code@2@V32@@Z 00000001800348a0     rainfall_node.obj
 0002:000118c8       $unwind$?message@_Generic_error_category@std@@UEBA?AV?$basic_string@DU?$char_traits@D@std@@V?$allocator@D@2@@2@H@Z 00000001800348c8     rainfall_node.obj
 0002:000118d4       $unwind$?clear@ios_base@std@@QEAAXH_N@Z 00000001800348d4     rainfall_node.obj
 0002:000118f4       $stateUnwindMap$?clear@ios_base@std@@QEAAXH_N@Z 00000001800348f4     rainfall_node.obj
 0002:00011930       $ip2state$?clear@ios_base@std@@QEAAXH_N@Z 0000000180034930     rainfall_node.obj
 0002:00011998       $unwind$?WorkAsync@@YAXPEAUuv_work_s@@@Z 0000000180034998     rainfall_node.obj
 0002:000119b4       $unwind$?WorkAsyncComplete@@YAXPEAUuv_work_s@@H@Z 00000001800349b4     rainfall_node.obj
 0002:000119cc       $stateUnwindMap$?WorkAsyncComplete@@YAXPEAUuv_work_s@@H@Z 00000001800349cc     rainfall_node.obj
 0002:000119e0       $ip2state$?WorkAsyncComplete@@YAXPEAUuv_work_s@@H@Z 00000001800349e0     rainfall_node.obj
 0002:000119f8       $unwind$?CalculateResultsAsync@@YAXAEBV?$FunctionCallbackInfo@VValue@v8@@@v8@@@Z 00000001800349f8     rainfall_node.obj
 0002:00011a1c       $stateUnwindMap$?AvgRainfall@@YAXAEBV?$FunctionCallbackInfo@VValue@v8@@@v8@@@Z 0000000180034a1c     rainfall_node.obj
 0002:00011a1c       $stateUnwindMap$?CalculateResultsAsync@@YAXAEBV?$FunctionCallbackInfo@VValue@v8@@@v8@@@Z 0000000180034a1c     rainfall_node.obj
 0002:00011a28       $ip2state$?CalculateResultsAsync@@YAXAEBV?$FunctionCallbackInfo@VValue@v8@@@v8@@@Z 0000000180034a28     rainfall_node.obj
 0002:00011a40       $unwind$?CalculateResultsSync@@YAXAEBV?$FunctionCallbackInfo@VValue@v8@@@v8@@@Z 0000000180034a40     rainfall_node.obj
 0002:00011a60       $stateUnwindMap$?CalculateResultsSync@@YAXAEBV?$FunctionCallbackInfo@VValue@v8@@@v8@@@Z 0000000180034a60     rainfall_node.obj
 0002:00011a80       $ip2state$?CalculateResultsSync@@YAXAEBV?$FunctionCallbackInfo@VValue@v8@@@v8@@@Z 0000000180034a80     rainfall_node.obj
 0002:00011ac8       $unwind$?CalculateResults@@YAXAEBV?$FunctionCallbackInfo@VValue@v8@@@v8@@@Z 0000000180034ac8     rainfall_node.obj
 0002:00011ae8       $stateUnwindMap$?CalculateResults@@YAXAEBV?$FunctionCallbackInfo@VValue@v8@@@v8@@@Z 0000000180034ae8     rainfall_node.obj
 0002:00011b00       $ip2state$?CalculateResults@@YAXAEBV?$FunctionCallbackInfo@VValue@v8@@@v8@@@Z 0000000180034b00     rainfall_node.obj
 0002:00011b38       $unwind$?pack_rain_result@@YAXPEAVIsolate@v8@@AEAV?$Local@VObject@v8@@@2@AEAVrain_result@@@Z 0000000180034b38     rainfall_node.obj
 0002:00011b48       $unwind$?RainfallData@@YAXAEBV?$FunctionCallbackInfo@VValue@v8@@@v8@@@Z 0000000180034b48     rainfall_node.obj
 0002:00011b60       $stateUnwindMap$?RainfallData@@YAXAEBV?$FunctionCallbackInfo@VValue@v8@@@v8@@@Z 0000000180034b60     rainfall_node.obj
 0002:00011b68       $ip2state$?RainfallData@@YAXAEBV?$FunctionCallbackInfo@VValue@v8@@@v8@@@Z 0000000180034b68     rainfall_node.obj
 0002:00011b80       $unwind$?unpack_sample@@YA?AVsample@@PEAVIsolate@v8@@V?$Local@VObject@v8@@@3@@Z 0000000180034b80     rainfall_node.obj
 0002:00011ba0       $stateUnwindMap$?unpack_sample@@YA?AVsample@@PEAVIsolate@v8@@V?$Local@VObject@v8@@@3@@Z 0000000180034ba0     rainfall_node.obj
 0002:00011bc0       $ip2state$?unpack_sample@@YA?AVsample@@PEAVIsolate@v8@@V?$Local@VObject@v8@@@3@@Z 0000000180034bc0     rainfall_node.obj
 0002:00011c00       $unwind$?unpack_location@@YA?AVlocation@@PEAVIsolate@v8@@V?$Local@VObject@v8@@@3@@Z 0000000180034c00     rainfall_node.obj
 0002:00011c24       $stateUnwindMap$?unpack_location@@YA?AVlocation@@PEAVIsolate@v8@@V?$Local@VObject@v8@@@3@@Z 0000000180034c24     rainfall_node.obj
 0002:00011c38       $ip2state$?unpack_location@@YA?AVlocation@@PEAVIsolate@v8@@V?$Local@VObject@v8@@@3@@Z 0000000180034c38     rainfall_node.obj
 0002:00011c58       $unwind$?AvgRainfall@@YAXAEBV?$FunctionCallbackInfo@VValue@v8@@@v8@@@Z 0000000180034c58     rainfall_node.obj
 0002:00011c70       $ip2state$?AvgRainfall@@YAXAEBV?$FunctionCallbackInfo@VValue@v8@@@v8@@@Z 0000000180034c70     rainfall_node.obj
 0002:00011c88       $unwind$?init@@YAXV?$Local@VObject@v8@@@v8@@0@Z 0000000180034c88     rainfall_node.obj
 0002:00011c90       $unwind$?push_back@?$vector@Vsample@@V?$allocator@Vsample@@@std@@@std@@QEAAXAEBVsample@@@Z 0000000180034c90     rainfall_node.obj
 0002:00011ca8       $stateUnwindMap$?push_back@?$vector@Vsample@@V?$allocator@Vsample@@@std@@@std@@QEAAXAEBVsample@@@Z 0000000180034ca8     rainfall_node.obj
 0002:00011cb8       $ip2state$?push_back@?$vector@Vsample@@V?$allocator@Vsample@@@std@@@std@@QEAAXAEBVsample@@@Z 0000000180034cb8     rainfall_node.obj
 0002:00011ce0       $unwind$?_Tidy@?$vector@Vlocation@@V?$allocator@Vlocation@@@std@@@std@@IEAAXXZ 0000000180034ce0     rainfall_node.obj
 0002:00011ce0       $unwind$iswctype           0000000180034ce0     libucrt:iswctype.obj
 0002:00011ce0       $unwind$__acrt_is_packaged_app 0000000180034ce0     libucrt:winapi_thunks.obj
 0002:00011cec       $chain$0$?_Tidy@?$vector@Vlocation@@V?$allocator@Vlocation@@@std@@@std@@IEAAXXZ 0000000180034cec     rainfall_node.obj
 0002:00011d00       $chain$1$?_Tidy@?$vector@Vlocation@@V?$allocator@Vlocation@@@std@@@std@@IEAAXXZ 0000000180034d00     rainfall_node.obj
 0002:00011d10       $unwind$?assign@?$basic_string@DU?$char_traits@D@std@@V?$allocator@D@2@@std@@QEAAAEAV12@PEBD_K@Z 0000000180034d10     rainfall_node.obj
 0002:00011d10       $unwind$?__scrt_initialize_thread_safe_statics@@YAHXZ 0000000180034d10     LIBCMT:thread_safe_statics.obj
 0002:00011d10       $unwind$??$common_lseek_nolock@_J@@YA_JH_JH@Z 0000000180034d10     libucrt:lseek.obj
 0002:00011d10       $unwind$??R<lambda_ad1ced32f4ac17aa236e5ef05d6b3b7c>@@QEBAXXZ 0000000180034d10     libucrt:mbctype.obj
 0002:00011d10       $unwind$__acrt_stdio_flush_and_write_narrow_nolock 0000000180034d10     libucrt:_flsbuf.obj
 0002:00011d10       $unwind$__acrt_FlsSetValue 0000000180034d10     libucrt:winapi_thunks.obj
 0002:00011d10       $unwind$__acrt_stdio_flush_nolock 0000000180034d10     libucrt:fflush.obj
 0002:00011d10       $unwind$??0_Init_locks@std@@QEAA@XZ 0000000180034d10     libcpmt:xlock.obj
 0002:00011d10       $unwind$?underflow@?$basic_filebuf@DU?$char_traits@D@std@@@std@@MEAAHXZ 0000000180034d10     libcpmt:cerr.obj
 0002:00011d10       $unwind$_RTC_Initialize    0000000180034d10     LIBCMT:_initsect_.obj
 0002:00011d10       $unwind$_DllMainCRTStartup 0000000180034d10     LIBCMT:dll_dllmain.obj
 0002:00011d10       $unwind$_initterm_e        0000000180034d10     libucrt:initterm.obj
 0002:00011d10       $unwind$__vcrt_FlsSetValue 0000000180034d10     libvcruntime:winapi_downlevel.obj
 0002:00011d10       $unwind$__acrt_GetUserDefaultLocaleName 0000000180034d10     libucrt:winapi_thunks.obj
 0002:00011d10       $unwind$?free_crt_array_internal@@YAXQEAPEBX_K@Z 0000000180034d10     libucrt:inittime.obj
 0002:00011d10       $unwind$__acrt_execute_uninitializers 0000000180034d10     libucrt:shared_initialization.obj
 0002:00011d10       $unwind$_Init_thread_wait  0000000180034d10     LIBCMT:thread_safe_statics.obj
 0002:00011d10       $unwind$?_Tidy@ios_base@std@@AEAAXXZ 0000000180034d10     libcpmt:ios.obj
 0002:00011d10       $unwind$?_Initcvt@?$basic_filebuf@DU?$char_traits@D@std@@@std@@IEAAXPEBV?$codecvt@DDU_Mbstatet@@@2@@Z 0000000180034d10     libcpmt:cerr.obj
 0002:00011d10       $unwind$__acrt_LocaleNameToLCID 0000000180034d10     libucrt:winapi_thunks.obj
 0002:00011d10       $unwind$?sync@?$basic_filebuf@DU?$char_traits@D@std@@@std@@MEAAHXZ 0000000180034d10     libcpmt:cerr.obj
 0002:00011d10       $unwind$_exception_enabled 0000000180034d10     libucrt:libm_error.obj
 0002:00011d10       $unwind$_RTC_Terminate     0000000180034d10     LIBCMT:_initsect_.obj
 0002:00011d10       $unwind$__acrt_getptd_noexit 0000000180034d10     libucrt:per_thread_data.obj
 0002:00011d10       $unwind$__vcrt_getptd_noexit 0000000180034d10     libvcruntime:per_thread_data.obj
 0002:00011d10       $unwind$??4?$_Yarn@D@std@@QEAAAEAV01@PEBD@Z 0000000180034d10     libcpmt:locale0.obj
 0002:00011d10       $unwind$??R<lambda_532e024f4337e6fc7ad266c2bef9f4ed>@@QEBA_KXZ 0000000180034d10     libucrt:fwrite.obj
 0002:00011d20       $unwind$_wcstombs_s_l      0000000180034d20     libucrt:wcstombs.obj
 0002:00011d20       $unwind$__std_exception_copy 0000000180034d20     libvcruntime:std_exception.obj
 0002:00011d20       $unwind$?assign@?$basic_string@DU?$char_traits@D@std@@V?$allocator@D@2@@std@@QEAAAEAV12@AEBV12@_K1@Z 0000000180034d20     rainfall_node.obj
 0002:00011d20       $unwind$_free_osfhnd       0000000180034d20     libucrt:osfinfo.obj
 0002:00011d20       $unwind$?initialize_stdio_handles_nolock@@YAXXZ 0000000180034d20     libucrt:ioinit.obj
 0002:00011d34       $unwind$?append@?$basic_string@DU?$char_traits@D@std@@V?$allocator@D@2@@std@@QEAAAEAV12@PEBD_K@Z 0000000180034d34     rainfall_node.obj
 0002:00011d44       $chain$0$?append@?$basic_string@DU?$char_traits@D@std@@V?$allocator@D@2@@std@@QEAAAEAV12@PEBD_K@Z 0000000180034d44     rainfall_node.obj
 0002:00011d58       $chain$1$?append@?$basic_string@DU?$char_traits@D@std@@V?$allocator@D@2@@std@@QEAAAEAV12@PEBD_K@Z 0000000180034d58     rainfall_node.obj
 0002:00011d68       $chain$2$?append@?$basic_string@DU?$char_traits@D@std@@V?$allocator@D@2@@std@@QEAAAEAV12@PEBD_K@Z 0000000180034d68     rainfall_node.obj
 0002:00011d7c       $unwind$?append@?$basic_string@DU?$char_traits@D@std@@V?$allocator@D@2@@std@@QEAAAEAV12@AEBV12@_K1@Z 0000000180034d7c     rainfall_node.obj
 0002:00011d90       $chain$0$?append@?$basic_string@DU?$char_traits@D@std@@V?$allocator@D@2@@std@@QEAAAEAV12@AEBV12@_K1@Z 0000000180034d90     rainfall_node.obj
 0002:00011da4       $chain$1$?append@?$basic_string@DU?$char_traits@D@std@@V?$allocator@D@2@@std@@QEAAAEAV12@AEBV12@_K1@Z 0000000180034da4     rainfall_node.obj
 0002:00011db4       $chain$2$?append@?$basic_string@DU?$char_traits@D@std@@V?$allocator@D@2@@std@@QEAAAEAV12@AEBV12@_K1@Z 0000000180034db4     rainfall_node.obj
 0002:00011dc8       $unwind$?_Reallocate@?$vector@Vrain_result@@V?$allocator@Vrain_result@@@std@@@std@@IEAAX_K@Z 0000000180034dc8     rainfall_node.obj
 0002:00011ddc       $chain$0$?_Reallocate@?$vector@Vrain_result@@V?$allocator@Vrain_result@@@std@@@std@@IEAAX_K@Z 0000000180034ddc     rainfall_node.obj
 0002:00011df0       $chain$1$?_Reallocate@?$vector@Vrain_result@@V?$allocator@Vrain_result@@@std@@@std@@IEAAX_K@Z 0000000180034df0     rainfall_node.obj
 0002:00011e00       $chain$2$?_Reallocate@?$vector@Vrain_result@@V?$allocator@Vrain_result@@@std@@@std@@IEAAX_K@Z 0000000180034e00     rainfall_node.obj
 0002:00011e14       $unwind$?_Reallocate@?$vector@Vlocation@@V?$allocator@Vlocation@@@std@@@std@@IEAAX_K@Z 0000000180034e14     rainfall_node.obj
 0002:00011e24       $chain$2$?_Reallocate@?$vector@Vlocation@@V?$allocator@Vlocation@@@std@@@std@@IEAAX_K@Z 0000000180034e24     rainfall_node.obj
 0002:00011e40       $chain$3$?_Reallocate@?$vector@Vlocation@@V?$allocator@Vlocation@@@std@@@std@@IEAAX_K@Z 0000000180034e40     rainfall_node.obj
 0002:00011e50       $chain$4$?_Reallocate@?$vector@Vlocation@@V?$allocator@Vlocation@@@std@@@std@@IEAAX_K@Z 0000000180034e50     rainfall_node.obj
 0002:00011e6c       $unwind$?_Reallocate@?$vector@Vsample@@V?$allocator@Vsample@@@std@@@std@@IEAAX_K@Z 0000000180034e6c     rainfall_node.obj
 0002:00011e7c       $chain$0$?_Reallocate@?$vector@Vsample@@V?$allocator@Vsample@@@std@@@std@@IEAAX_K@Z 0000000180034e7c     rainfall_node.obj
 0002:00011e90       $chain$2$?_Reallocate@?$vector@Vsample@@V?$allocator@Vsample@@@std@@@std@@IEAAX_K@Z 0000000180034e90     rainfall_node.obj
 0002:00011ea8       $chain$3$?_Reallocate@?$vector@Vsample@@V?$allocator@Vsample@@@std@@@std@@IEAAX_K@Z 0000000180034ea8     rainfall_node.obj
 0002:00011ebc       $chain$4$?_Reallocate@?$vector@Vsample@@V?$allocator@Vsample@@@std@@@std@@IEAAX_K@Z 0000000180034ebc     rainfall_node.obj
 0002:00011ecc       $chain$5$?_Reallocate@?$vector@Vsample@@V?$allocator@Vsample@@@std@@@std@@IEAAX_K@Z 0000000180034ecc     rainfall_node.obj
 0002:00011ee4       $unwind$??$use_facet@V?$ctype@D@std@@@std@@YAAEBV?$ctype@D@0@AEBVlocale@0@@Z 0000000180034ee4     rainfall_node.obj
 0002:00011efc       $stateUnwindMap$??$use_facet@V?$ctype@D@std@@@std@@YAAEBV?$ctype@D@0@AEBVlocale@0@@Z 0000000180034efc     rainfall_node.obj
 0002:00011f08       $ip2state$??$use_facet@V?$ctype@D@std@@@std@@YAAEBV?$ctype@D@0@AEBVlocale@0@@Z 0000000180034f08     rainfall_node.obj
 0002:00011f20       $unwind$??$?6U?$char_traits@D@std@@@std@@YAAEAV?$basic_ostream@DU?$char_traits@D@std@@@0@AEAV10@PEBD@Z 0000000180034f20     rainfall_node.obj
 0002:00011f38       $stateUnwindMap$??$?6U?$char_traits@D@std@@@std@@YAAEAV?$basic_ostream@DU?$char_traits@D@std@@@0@AEAV10@PEBD@Z 0000000180034f38     rainfall_node.obj
 0002:00011f38       $stateUnwindMap$?put@?$basic_ostream@DU?$char_traits@D@std@@@std@@QEAAAEAV12@D@Z 0000000180034f38     rainfall_node.obj
 0002:00011f48       $ip2state$??$?6U?$char_traits@D@std@@@std@@YAAEAV?$basic_ostream@DU?$char_traits@D@std@@@0@AEAV10@PEBD@Z 0000000180034f48     rainfall_node.obj
 0002:00011f68       $unwind$??0sentry@?$basic_ostream@DU?$char_traits@D@std@@@std@@QEAA@AEAV12@@Z 0000000180034f68     rainfall_node.obj
 0002:00011f7c       $stateUnwindMap$??0sentry@?$basic_ostream@DU?$char_traits@D@std@@@std@@QEAA@AEAV12@@Z 0000000180034f7c     rainfall_node.obj
 0002:00011f88       $ip2state$??0sentry@?$basic_ostream@DU?$char_traits@D@std@@@std@@QEAA@AEAV12@@Z 0000000180034f88     rainfall_node.obj
 0002:00011fa0       $unwind$?flush@?$basic_ostream@DU?$char_traits@D@std@@@std@@QEAAAEAV12@XZ 0000000180034fa0     rainfall_node.obj
 0002:00011fb4       $stateUnwindMap$?flush@?$basic_ostream@DU?$char_traits@D@std@@@std@@QEAAAEAV12@XZ 0000000180034fb4     rainfall_node.obj
 0002:00011fc0       $ip2state$?flush@?$basic_ostream@DU?$char_traits@D@std@@@std@@QEAAAEAV12@XZ 0000000180034fc0     rainfall_node.obj
 0002:00011fd8       $unwind$?put@?$basic_ostream@DU?$char_traits@D@std@@@std@@QEAAAEAV12@D@Z 0000000180034fd8     rainfall_node.obj
 0002:00011ff0       $ip2state$?put@?$basic_ostream@DU?$char_traits@D@std@@@std@@QEAAAEAV12@D@Z 0000000180034ff0     rainfall_node.obj
 0002:00012010       $unwind$?widen@?$basic_ios@DU?$char_traits@D@std@@@std@@QEBADD@Z 0000000180035010     rainfall_node.obj
 0002:00012024       $stateUnwindMap$?widen@?$basic_ios@DU?$char_traits@D@std@@@std@@QEBADD@Z 0000000180035024     rainfall_node.obj
 0002:00012030       $ip2state$?widen@?$basic_ios@DU?$char_traits@D@std@@@std@@QEBADD@Z 0000000180035030     rainfall_node.obj
 0002:00012048       $unwind$??$_Destroy_range1@V?$allocator@Vsample@@@std@@PEAVsample@@@std@@YAXPEAVsample@@0AEAU?$_Wrap_alloc@V?$allocator@Vsample@@@std@@@0@U?$integral_constant@_N$0A@@0@@Z 0000000180035048     rainfall_node.obj
 0002:00012050       $chain$1$??$_Destroy_range1@V?$allocator@Vsample@@@std@@PEAVsample@@@std@@YAXPEAVsample@@0AEAU?$_Wrap_alloc@V?$allocator@Vsample@@@std@@@0@U?$integral_constant@_N$0A@@0@@Z 0000000180035050     rainfall_node.obj
 0002:00012068       $chain$2$??$_Destroy_range1@V?$allocator@Vsample@@@std@@PEAVsample@@@std@@YAXPEAVsample@@0AEAU?$_Wrap_alloc@V?$allocator@Vsample@@@std@@@0@U?$integral_constant@_N$0A@@0@@Z 0000000180035068     rainfall_node.obj
 0002:00012078       $chain$3$??$_Destroy_range1@V?$allocator@Vsample@@@std@@PEAVsample@@@std@@YAXPEAVsample@@0AEAU?$_Wrap_alloc@V?$allocator@Vsample@@@std@@@0@U?$integral_constant@_N$0A@@0@@Z 0000000180035078     rainfall_node.obj
 0002:00012090       xdata                      0000000180035090     node:node.exe
 0002:00012098       $unwind$?__scrt_throw_std_bad_array_new_length@@YAXXZ 0000000180035098     LIBCMT:throw_bad_alloc.obj
 0002:00012098       $unwind$_raise_exc         0000000180035098     libucrt:fpexcept.obj
 0002:00012098       $unwind$?_Xbad_alloc@std@@YAXXZ 0000000180035098     libcpmt:xthrow.obj
 0002:00012098       $unwind$?__scrt_throw_std_bad_alloc@@YAXXZ 0000000180035098     LIBCMT:throw_bad_alloc.obj
 0002:00012098       $unwind$_raise_excf        0000000180035098     libucrt:fpexcept.obj
 0002:00012098       $unwind$__dcrt_lowio_initialize_console_output 0000000180035098     libucrt:initcon.obj
 0002:00012098       $unwind$?_Xlength_error@std@@YAXPEBD@Z 0000000180035098     libcpmt:xthrow.obj
 0002:00012098       $unwind$?_Xout_of_range@std@@YAXPEBD@Z 0000000180035098     libcpmt:xthrow.obj
 0002:000120a0       $unwind$??_G_Fac_node@std@@QEAAPEAXI@Z 00000001800350a0     libcpmt:locale0.obj
 0002:000120c0       $ip2state$??_G_Fac_node@std@@QEAAPEAXI@Z 00000001800350c0     libcpmt:locale0.obj
 0002:000120d8       $unwind$?_Locimp_dtor@_Locimp@locale@std@@CAXPEAV123@@Z 00000001800350d8     libcpmt:locale0.obj
 0002:000120f8       $ip2state$?_Locimp_dtor@_Locimp@locale@std@@CAXPEAV123@@Z 00000001800350f8     libcpmt:locale0.obj
 0002:00012110       $unwind$??_G_Locimp@locale@std@@MEAAPEAXI@Z 0000000180035110     libcpmt:locale0.obj
 0002:00012128       $ip2state$??_G_Locimp@locale@std@@MEAAPEAXI@Z 0000000180035128     libcpmt:locale0.obj
 0002:00012140       $unwind$?_Init@locale@std@@CAPEAV_Locimp@12@_N@Z 0000000180035140     libcpmt:locale0.obj
 0002:00012158       $stateUnwindMap$?_Init@locale@std@@CAPEAV_Locimp@12@_N@Z 0000000180035158     libcpmt:locale0.obj
 0002:00012158       $stateUnwindMap$?_Locimp_dtor@_Locimp@locale@std@@CAXPEAV123@@Z 0000000180035158     libcpmt:locale0.obj
 0002:00012160       $ip2state$?_Init@locale@std@@CAPEAV_Locimp@12@_N@Z 0000000180035160     libcpmt:locale0.obj
 0002:00012178       $unwind$??__Fclassic_locale@std@@YAXXZ 0000000180035178     libcpmt:locale0.obj
 0002:00012190       $ip2state$??__Fclassic_locale@std@@YAXXZ 0000000180035190     libcpmt:locale0.obj
 0002:000121a8       $unwind$??_Glocale@std@@QEAAPEAXI@Z 00000001800351a8     libcpmt:cerr.obj
 0002:000121c8       $ip2state$??_Glocale@std@@QEAAPEAXI@Z 00000001800351c8     libcpmt:cerr.obj
 0002:000121e0       $unwind$?_Init@ios_base@std@@IEAAXXZ 00000001800351e0     libcpmt:cerr.obj
 0002:000121f8       $ip2state$?_Init@ios_base@std@@IEAAXXZ 00000001800351f8     libcpmt:cerr.obj
 0002:00012210       $unwind$??_Gios_base@std@@UEAAPEAXI@Z 0000000180035210     libcpmt:cerr.obj
 0002:00012224       $stateUnwindMap$??1?$basic_ios@DU?$char_traits@D@std@@@std@@UEAA@XZ 0000000180035224     libcpmt:cerr.obj
 0002:00012224       $stateUnwindMap$?_Init@ios_base@std@@IEAAXXZ 0000000180035224     libcpmt:cerr.obj
 0002:00012224       $stateUnwindMap$??_G_Locimp@locale@std@@MEAAPEAXI@Z 0000000180035224     libcpmt:locale0.obj
 0002:00012224       $stateUnwindMap$??0?$basic_streambuf@DU?$char_traits@D@std@@@std@@IEAA@XZ 0000000180035224     libcpmt:cerr.obj
 0002:00012224       $stateUnwindMap$??_Gios_base@std@@UEAAPEAXI@Z 0000000180035224     libcpmt:cerr.obj
 0002:00012224       $stateUnwindMap$??_G_Fac_node@std@@QEAAPEAXI@Z 0000000180035224     libcpmt:locale0.obj
 0002:00012224       $stateUnwindMap$??__Finit_atexit@@YAXXZ 0000000180035224     libcpmt:iosptrs.obj
 0002:00012224       $stateUnwindMap$??__Fcerr@std@@YAXXZ 0000000180035224     libcpmt:cerr.obj
 0002:00012224       $stateUnwindMap$??_G?$basic_ostream@DU?$char_traits@D@std@@@std@@UEAAPEAXI@Z 0000000180035224     libcpmt:cerr.obj
 0002:00012224       $stateUnwindMap$??_Glocale@std@@QEAAPEAXI@Z 0000000180035224     libcpmt:cerr.obj
 0002:00012224       $stateUnwindMap$??__Fclassic_locale@std@@YAXXZ 0000000180035224     libcpmt:locale0.obj
 0002:00012224       $stateUnwindMap$??_G?$basic_ios@DU?$char_traits@D@std@@@std@@UEAAPEAXI@Z 0000000180035224     libcpmt:cerr.obj
 0002:00012230       $ip2state$??_Gios_base@std@@UEAAPEAXI@Z 0000000180035230     libcpmt:cerr.obj
 0002:00012248       $unwind$??0?$basic_streambuf@DU?$char_traits@D@std@@@std@@IEAA@XZ 0000000180035248     libcpmt:cerr.obj
 0002:00012260       $ip2state$??0?$basic_streambuf@DU?$char_traits@D@std@@@std@@IEAA@XZ 0000000180035260     libcpmt:cerr.obj
 0002:00012278       $unwind$??1?$basic_filebuf@DU?$char_traits@D@std@@@std@@UEAA@XZ 0000000180035278     libcpmt:cerr.obj
 0002:00012288       $ip2state$??1?$basic_filebuf@DU?$char_traits@D@std@@@std@@UEAA@XZ 0000000180035288     libcpmt:cerr.obj
 0002:00012290       $unwind$?overflow@?$basic_filebuf@DU?$char_traits@D@std@@@std@@MEAAHH@Z 0000000180035290     libcpmt:cerr.obj
 0002:000122b8       $ip2state$?overflow@?$basic_filebuf@DU?$char_traits@D@std@@@std@@MEAAHH@Z 00000001800352b8     libcpmt:cerr.obj
 0002:000122d0       $unwind$?uflow@?$basic_filebuf@DU?$char_traits@D@std@@@std@@MEAAHXZ 00000001800352d0     libcpmt:cerr.obj
 0002:000122fc       $stateUnwindMap$?uflow@?$basic_filebuf@DU?$char_traits@D@std@@@std@@MEAAHXZ 00000001800352fc     libcpmt:cerr.obj
 0002:000122fc       $stateUnwindMap$?overflow@?$basic_filebuf@DU?$char_traits@D@std@@@std@@MEAAHH@Z 00000001800352fc     libcpmt:cerr.obj
 0002:00012308       $ip2state$?uflow@?$basic_filebuf@DU?$char_traits@D@std@@@std@@MEAAHXZ 0000000180035308     libcpmt:cerr.obj
 0002:00012320       $unwind$?seekoff@?$basic_filebuf@DU?$char_traits@D@std@@@std@@MEAA?AV?$fpos@U_Mbstatet@@@2@_JHH@Z 0000000180035320     libcpmt:cerr.obj
 0002:00012334       $unwind$?seekpos@?$basic_filebuf@DU?$char_traits@D@std@@@std@@MEAA?AV?$fpos@U_Mbstatet@@@2@V32@H@Z 0000000180035334     libcpmt:cerr.obj
 0002:00012348       $unwind$?_Init@?$basic_filebuf@DU?$char_traits@D@std@@@std@@IEAAXPEAU_iobuf@@W4_Initfl@12@@Z 0000000180035348     libcpmt:cerr.obj
 0002:00012354       $unwind$?_Endwrite@?$basic_filebuf@DU?$char_traits@D@std@@@std@@IEAA_NXZ 0000000180035354     libcpmt:cerr.obj
 0002:0001237c       $stateUnwindMap$?_Endwrite@?$basic_filebuf@DU?$char_traits@D@std@@@std@@IEAA_NXZ 000000018003537c     libcpmt:cerr.obj
 0002:00012388       $ip2state$?_Endwrite@?$basic_filebuf@DU?$char_traits@D@std@@@std@@IEAA_NXZ 0000000180035388     libcpmt:cerr.obj
 0002:000123a0       $unwind$??1?$basic_ios@DU?$char_traits@D@std@@@std@@UEAA@XZ 00000001800353a0     libcpmt:cerr.obj
 0002:000123b0       $ip2state$??1?$basic_ios@DU?$char_traits@D@std@@@std@@UEAA@XZ 00000001800353b0     libcpmt:cerr.obj
 0002:000123c8       $unwind$??_G?$basic_ios@DU?$char_traits@D@std@@@std@@UEAAPEAXI@Z 00000001800353c8     libcpmt:cerr.obj
 0002:000123e0       $ip2state$??_G?$basic_ios@DU?$char_traits@D@std@@@std@@UEAAPEAXI@Z 00000001800353e0     libcpmt:cerr.obj
 0002:000123f8       $unwind$??0?$basic_ostream@DU?$char_traits@D@std@@@std@@QEAA@PEAV?$basic_streambuf@DU?$char_traits@D@std@@@1@_N@Z 00000001800353f8     libcpmt:cerr.obj
 0002:00012410       $stateUnwindMap$??0?$basic_ostream@DU?$char_traits@D@std@@@std@@QEAA@PEAV?$basic_streambuf@DU?$char_traits@D@std@@@1@_N@Z 0000000180035410     libcpmt:cerr.obj
 0002:00012418       $ip2state$??0?$basic_ostream@DU?$char_traits@D@std@@@std@@QEAA@PEAV?$basic_streambuf@DU?$char_traits@D@std@@@1@_N@Z 0000000180035418     libcpmt:cerr.obj
 0002:00012430       $unwind$??_G?$basic_ostream@DU?$char_traits@D@std@@@std@@UEAAPEAXI@Z 0000000180035430     libcpmt:cerr.obj
 0002:00012448       $ip2state$??_G?$basic_ostream@DU?$char_traits@D@std@@@std@@UEAAPEAXI@Z 0000000180035448     libcpmt:cerr.obj
 0002:00012460       $unwind$??__Fcerr@std@@YAXXZ 0000000180035460     libcpmt:cerr.obj
 0002:00012470       $ip2state$??__Fcerr@std@@YAXXZ 0000000180035470     libcpmt:cerr.obj
 0002:00012488       $unwind$??$use_facet@V?$codecvt@DDU_Mbstatet@@@std@@@std@@YAAEBV?$codecvt@DDU_Mbstatet@@@0@AEBVlocale@0@@Z 0000000180035488     libcpmt:cerr.obj
 0002:000124a0       $stateUnwindMap$??$use_facet@V?$codecvt@DDU_Mbstatet@@@std@@@std@@YAAEBV?$codecvt@DDU_Mbstatet@@@0@AEBVlocale@0@@Z 00000001800354a0     libcpmt:cerr.obj
 0002:000124a8       $ip2state$??$use_facet@V?$codecvt@DDU_Mbstatet@@@std@@@std@@YAAEBV?$codecvt@DDU_Mbstatet@@@0@AEBVlocale@0@@Z 00000001800354a8     libcpmt:cerr.obj
 0002:000124c0       $unwind$?_Getcat@?$codecvt@DDU_Mbstatet@@@std@@SA_KPEAPEBVfacet@locale@2@PEBV42@@Z 00000001800354c0     libcpmt:cerr.obj
 0002:000124e0       $stateUnwindMap$?_Getcat@?$codecvt@DDU_Mbstatet@@@std@@SA_KPEAPEBVfacet@locale@2@PEBV42@@Z 00000001800354e0     libcpmt:cerr.obj
 0002:000124e8       $ip2state$?_Getcat@?$codecvt@DDU_Mbstatet@@@std@@SA_KPEAPEBVfacet@locale@2@PEBV42@@Z 00000001800354e8     libcpmt:cerr.obj
 0002:00012500       $unwind$_Tolower           0000000180035500     libcpmt:_tolower.obj
 0002:00012510       $unwind$_Thrd_sleep        0000000180035510     libcpmt:cthread.obj
 0002:00012520       $unwind$_Toupper           0000000180035520     libcpmt:_toupper.obj
 0002:00012534       $unwind$wcschr             0000000180035534     libvcruntime:wcschr.obj
 0002:00012534       $unwind$_Xtime_diff_to_millis2 0000000180035534     libcpmt:xtime.obj
 0002:0001253c       $unwind$??__Finit_atexit@@YAXXZ 000000018003553c     libcpmt:iosptrs.obj
 0002:00012550       $ip2state$??__Finit_atexit@@YAXXZ 0000000180035550     libcpmt:iosptrs.obj
 0002:00012568       $unwind$__crtLCMapStringA  0000000180035568     libcpmt:StlLCMapStringA.obj
 0002:00012590       $xdatasym                  0000000180035590     LIBCMT:_amdsecgs_.obj
 0002:00012594       $unwind$__scrt_is_nonwritable_in_current_image 0000000180035594     LIBCMT:utility.obj
 0002:000125b4       $unwind$__scrt_is_nonwritable_in_current_image$filt$0 00000001800355b4     LIBCMT:utility.obj
 0002:000125bc       $unwind$__scrt_initialize_onexit_tables 00000001800355bc     LIBCMT:utility.obj
 0002:000125c8       $unwind$?dllmain_raw@@YAHQEAUHINSTANCE__@@KQEAX@Z 00000001800355c8     LIBCMT:dll_dllmain.obj
 0002:000125c8       $unwind$__vcrt_InitializeCriticalSectionEx 00000001800355c8     libvcruntime:winapi_downlevel.obj
 0002:000125c8       $unwind$_seh_filter_exe    00000001800355c8     libucrt:exception_filter.obj
 0002:000125c8       $unwind$__acrt_free_locale 00000001800355c8     libucrt:locale_refcounting.obj
 0002:000125c8       $unwind$__acrt_lowio_create_handle_array 00000001800355c8     libucrt:osfinfo.obj
 0002:000125c8       $unwind$__scrt_dllmain_exception_filter 00000001800355c8     LIBCMT:utility.obj
 0002:000125c8       $unwind$__acrt_execute_initializers 00000001800355c8     libucrt:shared_initialization.obj
 0002:000125c8       $unwind$?append@?$basic_string@DU?$char_traits@D@std@@V?$allocator@D@2@@std@@QEAAAEAV12@_KD@Z 00000001800355c8     libcpmt:cerr.obj
 0002:000125c8       $unwind$__acrt_InitializeCriticalSectionEx 00000001800355c8     libucrt:winapi_thunks.obj
 0002:000125c8       $unwind$__crtInitializeCriticalSectionEx 00000001800355c8     libcpmt:winapisupp.obj
 0002:000125c8       $unwind$?_ExecutionInCatch@@YAHPEAU_xDISPATCHER_CONTEXT@@PEBU_s_FuncInfo@@@Z 00000001800355c8     libvcruntime:trnsctrl.obj
 0002:000125c8       $unwind$?expand_if_necessary@?$argument_list@D@?A0xca0879c4@@AEAAHXZ 00000001800355c8     libucrt:argv_wildcards.obj
 0002:000125c8       $unwind$?setSBCS@@YAXPEAU__crt_multibyte_data@@@Z 00000001800355c8     libucrt:mbctype.obj
 0002:000125c8       $unwind$_recalloc_base     00000001800355c8     libucrt:recalloc.obj
 0002:000125dc       $unwind$?dllmain_crt_process_attach@@YAHQEAUHINSTANCE__@@QEAX@Z 00000001800355dc     LIBCMT:dll_dllmain.obj
 0002:00012608       $unwind$?dllmain_crt_process_detach@@YAH_N@Z 0000000180035608     LIBCMT:dll_dllmain.obj
 0002:00012630       $unwind$?dllmain_dispatch@@YAHQEAUHINSTANCE__@@KQEAX@Z 0000000180035630     LIBCMT:dll_dllmain.obj
 0002:00012658       $unwind$?filt$0@?0??dllmain_dispatch@@YAHQEAUHINSTANCE__@@KQEAX@Z@4HA 0000000180035658     LIBCMT:dll_dllmain.obj
 0002:00012658       $unwind$setlocale$fin$0    0000000180035658     libucrt:setlocale.obj
 0002:00012660       $unwind$__GSHandlerCheckCommon 0000000180035660     LIBCMT:_gshandler_.obj
 0002:00012668       $xdatasym                  0000000180035668     LIBCMT:_chkstk_.obj
 0002:00012670       $unwind$__report_securityfailure 0000000180035670     LIBCMT:gs_report.obj
 0002:00012678       $unwind$capture_current_context 0000000180035678     LIBCMT:gs_report.obj
 0002:00012684       $unwind$capture_previous_context 0000000180035684     LIBCMT:gs_report.obj
 0002:00012690       $unwind$__scrt_fastfail    0000000180035690     LIBCMT:utility_desktop.obj
 0002:000126a0       $unwind$__isa_available_init 00000001800356a0     LIBCMT:_cpu_disp_.obj
 0002:000126b0       $unwind$__security_init_cookie 00000001800356b0     LIBCMT:gs_support.obj
 0002:000126c0       $xdatasym                  00000001800356c0     LIBCMT:_guard_dispatch_.obj
 0002:000126c8       $xdatasym                  00000001800356c8     libvcruntime:memcpy.obj
 0002:000126cc       $unwind$__CxxCallCatchBlock 00000001800356cc     libvcruntime:frame.obj
 0002:00012708       $unwind$__CxxCallCatchBlock$fin$1 0000000180035708     libvcruntime:frame.obj
 0002:00012714       $unwind$__FrameUnwindToState 0000000180035714     libvcruntime:frame.obj
 0002:00012750       $unwind$?FindHandler@@YAXPEAUEHExceptionRecord@@PEA_KPEAU_CONTEXT@@PEAU_xDISPATCHER_CONTEXT@@PEBU_s_FuncInfo@@EH1@Z 0000000180035750     libvcruntime:frame.obj
 0002:00012770       $unwind$?CatchIt@@YAXPEAUEHExceptionRecord@@PEA_KPEAU_CONTEXT@@PEAU_xDISPATCHER_CONTEXT@@PEBU_s_FuncInfo@@PEBU_s_HandlerType@@PEBU_s_CatchableType@@PEBU_s_TryBlockMapEntry@@H1EE@Z 0000000180035770     libvcruntime:frame.obj
 0002:00012788       $unwind$__BuildCatchObject 0000000180035788     libvcruntime:frame.obj
 0002:000127b4       $unwind$?FindHandlerForForeignException@@YAXPEAUEHExceptionRecord@@PEA_KPEAU_CONTEXT@@PEAU_xDISPATCHER_CONTEXT@@PEBU_s_FuncInfo@@HH1@Z 00000001800357b4     libvcruntime:frame.obj
 0002:000127cc       $unwind$__DestructExceptionObject 00000001800357cc     libvcruntime:frame.obj
 0002:000127f0       $unwind$__BuildCatchObjectHelper 00000001800357f0     libvcruntime:frame.obj
 0002:00012830       $unwind$_CxxThrowException 0000000180035830     libvcruntime:throw.obj
 0002:00012844       $unwind$?_GetEstablisherFrame@@YAPEA_KPEA_KPEAU_xDISPATCHER_CONTEXT@@PEBU_s_FuncInfo@@0@Z 0000000180035844     libvcruntime:trnsctrl.obj
 0002:0001285c       $unwind$?__FrameUnwindToEmptyState@@YAXPEA_KPEAU_xDISPATCHER_CONTEXT@@PEBU_s_FuncInfo@@@Z 000000018003585c     libvcruntime:trnsctrl.obj
 0002:00012870       $unwind$_CallSETranslator  0000000180035870     libvcruntime:trnsctrl.obj
 0002:00012894       $unwind$_CallSETranslator$filt$0 0000000180035894     libvcruntime:trnsctrl.obj
 0002:0001289c       $unwind$_UnwindNestedFrames 000000018003589c     libvcruntime:trnsctrl.obj
 0002:000128b0       $unwind$__CxxFrameHandler3 00000001800358b0     libvcruntime:trnsctrl.obj
 0002:000128c0       $unwind$_wcsicmp_l         00000001800358c0     libucrt:wcsicmp.obj
 0002:000128c0       $unwind$?__SehTransFilter@@YAHPEAU_EXCEPTION_POINTERS@@PEAUEHExceptionRecord@@PEA_KPEAU_CONTEXT@@PEAU_xDISPATCHER_CONTEXT@@PEBU_s_FuncInfo@@PEAH@Z 00000001800358c0     libvcruntime:trnsctrl.obj
 0002:000128d8       $xdatasym                  00000001800358d8     libvcruntime:memset.obj
 0002:000128e0       $xdatasym                  00000001800358e0     libvcruntime:memcmp.obj
 0002:000128e4       $unwind$__acrt_stdio_end_temporary_buffering_nolock 00000001800358e4     libucrt:_sftbuf.obj
 0002:000128e4       $unwind$__vcrt_uninitialize_winapi_thunks 00000001800358e4     libvcruntime:winapi_downlevel.obj
 0002:000128f0       $xdatasym                  00000001800358f0     libvcruntime:handlers.obj
 0002:000128f8       $xdatasym                  00000001800358f8     libvcruntime:_jmpuwind_.obj
 0002:0001290c       $unwind$__acrt_call_reportfault 000000018003590c     libucrt:invalid_parameter.obj
 0002:0001292c       $unwind$_invalid_parameter 000000018003592c     libucrt:invalid_parameter.obj
 0002:00012944       $unwind$setlocale          0000000180035944     libucrt:setlocale.obj
 0002:00012974       $unwind$call_wsetlocale    0000000180035974     libucrt:setlocale.obj
 0002:00012988       $unwind$fclose             0000000180035988     libucrt:fclose.obj
 0002:000129ac       $unwind$fflush             00000001800359ac     libucrt:fflush.obj
 0002:000129d0       $unwind$common_flush_all   00000001800359d0     libucrt:fflush.obj
 0002:00012a0c       $unwind$fgetc              0000000180035a0c     libucrt:fgetc.obj
 0002:00012a40       $unwind$fputc              0000000180035a40     libucrt:fputc.obj
 0002:00012a74       $unwind$?common_fseek_binary_mode_read_only_fast_track_nolock@@YA_NV__crt_stdio_stream@@_JH@Z 0000000180035a74     libucrt:fseek.obj
 0002:00012a80       $unwind$??$common_refill_and_read_nolock@D@@YAHV__crt_stdio_stream@@@Z 0000000180035a80     libucrt:_filbuf.obj
 0002:00012a80       $unwind$?common_fseek_nolock@@YAHV__crt_stdio_stream@@_JH@Z 0000000180035a80     libucrt:fseek.obj
 0002:00012a80       $unwind$_raise_exc_ex      0000000180035a80     libucrt:fpexcept.obj
 0002:00012a94       $unwind$?common_fseek@@YAHV__crt_stdio_stream@@_JH@Z 0000000180035a94     libucrt:fseek.obj
 0002:00012ab8       $unwind$fwrite             0000000180035ab8     libucrt:fwrite.obj
 0002:00012ac0       $unwind$?try_get_function@@YAPEAXW4function_id@?A0x63058377@@QEBDQEBW4module_id@2@2@Z 0000000180035ac0     libucrt:winapi_thunks.obj
 0002:00012ac0       $unwind$_fwrite_nolock     0000000180035ac0     libucrt:fwrite.obj
 0002:00012ac0       $unwind$?try_get_function@@YAPEAXW4function_id@?A0x679b24ab@@QEBDQEBW4module_id@2@2@Z 0000000180035ac0     libvcruntime:winapi_downlevel.obj
 0002:00012ac0       $unwind$?IsInExceptionSpec@@YAEPEAUEHExceptionRecord@@PEBU_s_ESTypeList@@@Z 0000000180035ac0     libvcruntime:frame.obj
 0002:00012adc       $unwind$??$?RV<lambda_5d4c3fee44080f75d5d9762853974fe0>@@AEAV<lambda_532e024f4337e6fc7ad266c2bef9f4ed>@@V<lambda_c87bdc10097eb2402edb8ba9bdf0697b>@@@?$__crt_seh_guarded_call@_K@@QEAA_K$$QEAV<lambda_5d4c3fee44080f75d5d9762853974fe0>@@AEAV<lambda_532e024f4337e6fc7ad266c2bef9f4ed>@@$$QEAV<lambda_c87bdc10097eb2402edb8ba9bdf0697b>@@@Z 0000000180035adc     libucrt:fwrite.obj
 0002:00012b00       $unwind$setvbuf            0000000180035b00     libucrt:setvbuf.obj
 0002:00012b08       $unwind$??$?RV<lambda_7a5ef57ff966f610505f1d28a3d40618>@@AEAV<lambda_b721fa326cdb32351d23dfa67958c160>@@V<lambda_5e0fb27672408a07956fe59e48ccb2aa>@@@?$__crt_seh_guarded_call@H@@QEAAH$$QEAV<lambda_7a5ef57ff966f610505f1d28a3d40618>@@AEAV<lambda_b721fa326cdb32351d23dfa67958c160>@@$$QEAV<lambda_5e0fb27672408a07956fe59e48ccb2aa>@@@Z 0000000180035b08     libucrt:setvbuf.obj
 0002:00012b2c       $unwind$ungetc             0000000180035b2c     libucrt:ungetc.obj
 0002:00012b50       $unwind$islower            0000000180035b50     libucrt:_ctype.obj
 0002:00012b50       $unwind$isupper            0000000180035b50     libucrt:_ctype.obj
 0002:00012b50       $unwind$?getSystemCP@@YAHH@Z 0000000180035b50     libucrt:mbctype.obj
 0002:00012b50       $unwind$_isleadbyte_l      0000000180035b50     libucrt:_wctype.obj
 0002:00012b58       $unwind$__acrt_locale_initialize_ctype 0000000180035b58     libucrt:initctype.obj
 0002:00012b80       $xdatasym                  0000000180035b80     libucrt:pow.obj
 0002:00012b90       $xdatasym                  0000000180035b90     libucrt:powf.obj
 0002:00012ba0       $unwind$_free_base         0000000180035ba0     libucrt:free_base.obj
 0002:00012ba0       $unwind$__acrt_locale_free_numeric 0000000180035ba0     libucrt:initnum.obj
 0002:00012ba0       $unwind$?destroy_fls@@YAXPEAX@Z 0000000180035ba0     libucrt:per_thread_data.obj
 0002:00012ba0       $unwind$__acrt_locale_free_lc_time_if_unreferenced 0000000180035ba0     libucrt:locale_refcounting.obj
 0002:00012ba8       $unwind$terminate          0000000180035ba8     libucrt:terminate.obj
 0002:00012bc8       $unwind$?x_ismbbtype_l@@YAHPEAU__crt_locale_pointers@@IHH@Z 0000000180035bc8     libucrt:ismbbyte.obj
 0002:00012bc8       $unwind$_stricmp_l         0000000180035bc8     libucrt:stricmp.obj
 0002:00012bd8       $unwind$_tolower_l         0000000180035bd8     libucrt:tolower_toupper.obj
 0002:00012be8       $unwind$wcsnlen            0000000180035be8     libucrt:strnlen.obj
 0002:00012bf0       $unwind$_query_new_handler 0000000180035bf0     libucrt:new_handler.obj
 0002:00012c10       $unwind$?common_exit@@YAXHW4_crt_exit_cleanup_mode@@W4_crt_exit_return_mode@@@Z 0000000180035c10     libucrt:exit.obj
 0002:00012c50       $unwind$_configure_narrow_argv 0000000180035c50     libucrt:argv_parsing.obj
 0002:00012c64       $unwind$??$parse_command_line@D@@YAXPEADPEAPEAD0PEA_K2@Z 0000000180035c64     libucrt:argv_parsing.obj
 0002:00012c64       $unwind$??R<lambda_4e60a939b0d047cfe11ddc22648dfba9>@@QEBAHXZ 0000000180035c64     libucrt:onexit.obj
 0002:00012c64       $unwind$?_GetRangeOfTrysToCheck@@YAPEBU_s_TryBlockMapEntry@@PEA_KPEBU_s_FuncInfo@@HHPEAI2PEAU_xDISPATCHER_CONTEXT@@@Z 0000000180035c64     libvcruntime:trnsctrl.obj
 0002:00012c64       $unwind$TranslateName      0000000180035c64     libucrt:get_qualified_locale.obj
 0002:00012c80       $unwind$_register_onexit_function 0000000180035c80     libucrt:onexit.obj
 0002:00012c88       $unwind$_execute_onexit_table 0000000180035c88     libucrt:onexit.obj
 0002:00012c90       $unwind$??$?RV<lambda_b8c45f8f788dd370798f47cfe8ac3a86>@@AEAV<lambda_4e60a939b0d047cfe11ddc22648dfba9>@@V<lambda_332c3edc96d0294ec56c57d38c1cdfd5>@@@?$__crt_seh_guarded_call@H@@QEAAH$$QEAV<lambda_b8c45f8f788dd370798f47cfe8ac3a86>@@AEAV<lambda_4e60a939b0d047cfe11ddc22648dfba9>@@$$QEAV<lambda_332c3edc96d0294ec56c57d38c1cdfd5>@@@Z 0000000180035c90     libucrt:onexit.obj
 0002:00012cb4       $unwind$??$?RV<lambda_e24bbb7b643b32fcea6fa61b31d4c984>@@AEAV<lambda_275893d493268fdec8709772e3fcec0e>@@V<lambda_9d71df4d7cf3f480f8d633942495c3b0>@@@?$__crt_seh_guarded_call@H@@QEAAH$$QEAV<lambda_e24bbb7b643b32fcea6fa61b31d4c984>@@AEAV<lambda_275893d493268fdec8709772e3fcec0e>@@$$QEAV<lambda_9d71df4d7cf3f480f8d633942495c3b0>@@@Z 0000000180035cb4     libucrt:onexit.obj
 0002:00012ce8       $xdatasym                  0000000180035ce8     libucrt:exp.obj
 0002:00012cf0       $unwind$sqrt               0000000180035cf0     libucrt:sqrt.obj
 0002:00012cf8       $unwind$_invalid_parameter_noinfo 0000000180035cf8     libucrt:invalid_parameter.obj
 0002:00012cf8       $unwind$_wtol              0000000180035cf8     libucrt:atox.obj
 0002:00012cf8       $unwind$mbstowcs_s         0000000180035cf8     libucrt:mbstowcs.obj
 0002:00012cf8       $unwind$_itow_s            0000000180035cf8     libucrt:xtoa.obj
 0002:00012cf8       $unwind$_invalid_parameter_noinfo_noreturn 0000000180035cf8     libucrt:invalid_parameter.obj
 0002:00012cf8       $unwind$_log10_special     0000000180035cf8     libucrt:log_special.obj
 0002:00012d00       $unwind$??$parse_integer@KV?$c_string_character_source@_W@__crt_strtox@@@__crt_strtox@@YAKQEAU__crt_locale_pointers@@V?$c_string_character_source@_W@0@H_N@Z 0000000180035d00     libucrt:atox.obj
 0002:00012d1c       $unwind$?construct_ptd_array@@YAXQEAU__acrt_ptd@@@Z 0000000180035d1c     libucrt:per_thread_data.obj
 0002:00012d24       $unwind$?destroy_ptd_array@@YAXQEAU__acrt_ptd@@@Z 0000000180035d24     libucrt:per_thread_data.obj
 0002:00012d2c       $unwind$??$?RV<lambda_72d1df2b273a38828b1ce30cbf4cdab5>@@AEAV<lambda_876a65b173b8412d3a47c70a915b0cf4>@@V<lambda_41932305e351933ebe8f8be3ed8bb5dc>@@@?$__crt_seh_guarded_call@X@@QEAAX$$QEAV<lambda_72d1df2b273a38828b1ce30cbf4cdab5>@@AEAV<lambda_876a65b173b8412d3a47c70a915b0cf4>@@$$QEAV<lambda_41932305e351933ebe8f8be3ed8bb5dc>@@@Z 0000000180035d2c     libucrt:per_thread_data.obj
 0002:00012d50       $unwind$??$?RV<lambda_5e887d1dcbef67a5eb4283622ba103bf>@@AEAV<lambda_4466841279450cc726390878d4a41900>@@V<lambda_341c25c0346d94847f1f3c463c57e077>@@@?$__crt_seh_guarded_call@X@@QEAAX$$QEAV<lambda_5e887d1dcbef67a5eb4283622ba103bf>@@AEAV<lambda_4466841279450cc726390878d4a41900>@@$$QEAV<lambda_341c25c0346d94847f1f3c463c57e077>@@@Z 0000000180035d50     libucrt:per_thread_data.obj
 0002:00012d74       $unwind$??$?RV<lambda_46352004c1216016012b18bd6f87e700>@@AEAV<lambda_3bd07e1a1191394380780325891bf33f>@@V<lambda_334532d3f185bcaa59b5be82d7d22bff>@@@?$__crt_seh_guarded_call@X@@QEAAX$$QEAV<lambda_46352004c1216016012b18bd6f87e700>@@AEAV<lambda_3bd07e1a1191394380780325891bf33f>@@$$QEAV<lambda_334532d3f185bcaa59b5be82d7d22bff>@@@Z 0000000180035d74     libucrt:per_thread_data.obj
 0002:00012d98       $unwind$??$?RV<lambda_fb3a7dec4e47f37f22dae91bb15c9095>@@AEAV<lambda_698284760c8add0bfb0756c19673e34b>@@V<lambda_dfb8eca1e75fef3034a8fb18dd509707>@@@?$__crt_seh_guarded_call@X@@QEAAX$$QEAV<lambda_fb3a7dec4e47f37f22dae91bb15c9095>@@AEAV<lambda_698284760c8add0bfb0756c19673e34b>@@$$QEAV<lambda_dfb8eca1e75fef3034a8fb18dd509707>@@@Z 0000000180035d98     libucrt:per_thread_data.obj
 0002:00012dbc       $unwind$__acrt_get_sigabrt_handler 0000000180035dbc     libucrt:signal.obj
 0002:00012dc4       $unwind$raise              0000000180035dc4     libucrt:signal.obj
 0002:00012df0       $unwind$??$?RV<lambda_c36588078e9f5dfd39652860aa6b3aaf>@@AEAV<lambda_ec61778202f4f5fc7e7711acc23c3bca>@@V<lambda_dc9d2797ccde5d239b4a0efae8ebd7db>@@@?$__crt_seh_guarded_call@P6AXH@Z@@QEAAP6AXH@Z$$QEAV<lambda_c36588078e9f5dfd39652860aa6b3aaf>@@AEAV<lambda_ec61778202f4f5fc7e7711acc23c3bca>@@$$QEAV<lambda_dc9d2797ccde5d239b4a0efae8ebd7db>@@@Z 0000000180035df0     libucrt:signal.obj
 0002:00012e14       $unwind$__acrt_copy_locale_name 0000000180035e14     libucrt:wsetlocale.obj
 0002:00012e24       $unwind$_wsetlocale        0000000180035e24     libucrt:wsetlocale.obj
 0002:00012e2c       $unwind$_expandlocale      0000000180035e2c     libucrt:wsetlocale.obj
 0002:00012e4c       $unwind$_wcscats           0000000180035e4c     libucrt:wsetlocale.obj
 0002:00012e5c       $unwind$??$create_environment@D@@YAQEAPEADQEAD@Z 0000000180035e5c     libucrt:environment_initialization.obj
 0002:00012e5c       $unwind$__lc_wcstolc       0000000180035e5c     libucrt:wsetlocale.obj
 0002:00012e74       $unwind$_wsetlocale_set_cat 0000000180035e74     libucrt:wsetlocale.obj
 0002:00012e98       $unwind$_wsetlocale_get_all 0000000180035e98     libucrt:wsetlocale.obj
 0002:00012eb4       $unwind$_wsetlocale_nolock 0000000180035eb4     libucrt:wsetlocale.obj
 0002:00012ed8       $unwind$__acrt_uninitialize_locale 0000000180035ed8     libucrt:wsetlocale.obj
 0002:00012ef8       $unwind$??R<lambda_2af78c5f5901b1372d98f9ab3177dfa6>@@QEBAXXZ 0000000180035ef8     libucrt:wsetlocale.obj
 0002:00012f04       $unwind$??$?RV<lambda_5df02c53a8f32f81fd64e5bbb78039f1>@@AEAV<lambda_2af78c5f5901b1372d98f9ab3177dfa6>@@AEAV<lambda_f51fe5fd7c79a33db34fc9310f277369>@@@?$__crt_seh_guarded_call@X@@QEAAX$$QEAV<lambda_5df02c53a8f32f81fd64e5bbb78039f1>@@AEAV<lambda_2af78c5f5901b1372d98f9ab3177dfa6>@@AEAV<lambda_f51fe5fd7c79a33db34fc9310f277369>@@@Z 0000000180035f04     libucrt:wsetlocale.obj
 0002:00012f24       $unwind$??$?RV<lambda_d67e8342c384adda8f857579ab50b2ae>@@AEAV<lambda_30712929f77e709619002f448b6a9510>@@V<lambda_4525336fd7e478d965fb7ca7a337cad8>@@@?$__crt_seh_guarded_call@X@@QEAAX$$QEAV<lambda_d67e8342c384adda8f857579ab50b2ae>@@AEAV<lambda_30712929f77e709619002f448b6a9510>@@$$QEAV<lambda_4525336fd7e478d965fb7ca7a337cad8>@@@Z 0000000180035f24     libucrt:wsetlocale.obj
 0002:00012f48       $unwind$__acrt_initialize_winapi_thunks 0000000180035f48     libucrt:winapi_thunks.obj
 0002:00012f50       $unwind$__acrt_EnumSystemLocalesEx 0000000180035f50     libucrt:winapi_thunks.obj
 0002:00012f64       $unwind$??$?RV<lambda_630b2aca97f6d20d5b5ea6529ea6b6af>@@AEAV<lambda_af91936f1d075d609f72d9d8cba980af>@@V<lambda_e82fa975f615b5c7c7b0e4d178fdae67>@@@?$__crt_seh_guarded_call@H@@QEAAH$$QEAV<lambda_630b2aca97f6d20d5b5ea6529ea6b6af>@@AEAV<lambda_af91936f1d075d609f72d9d8cba980af>@@$$QEAV<lambda_e82fa975f615b5c7c7b0e4d178fdae67>@@@Z 0000000180035f64     libucrt:winapi_thunks.obj
 0002:00012f8c       $unwind$_mbstowcs_s_l      0000000180035f8c     libucrt:mbstowcs.obj
 0002:00012fa4       $unwind$?_mbstowcs_l_helper@@YA_KPEA_WPEBD_KPEAU__crt_locale_pointers@@@Z 0000000180035fa4     libucrt:mbstowcs.obj
 0002:00012fc0       $unwind$?_wcstombs_l_helper@@YA_KPEADPEB_W_KPEAU__crt_locale_pointers@@@Z 0000000180035fc0     libucrt:wcstombs.obj
 0002:00012fe0       $unwind$_fcloseall         0000000180035fe0     libucrt:closeall.obj
 0002:00013004       $unwind$__acrt_initialize_lowio 0000000180036004     libucrt:ioinit.obj
 0002:00013024       $unwind$?initialize_inherited_file_handles_nolock@@YAXXZ 0000000180036024     libucrt:ioinit.obj
 0002:00013040       $unwind$_commit            0000000180036040     libucrt:commit.obj
 0002:00013040       $unwind$_close             0000000180036040     libucrt:close.obj
 0002:00013048       $unwind$??$?RV<lambda_bfedae4ebbf01fab1bb6dcc6a9e276e0>@@AEAV<lambda_2fe9b910cf3cbf4a0ab98a02ba45b3ec>@@V<lambda_237c231691f317818eb88cc1d5d642d6>@@@?$__crt_seh_guarded_call@H@@QEAAH$$QEAV<lambda_bfedae4ebbf01fab1bb6dcc6a9e276e0>@@AEAV<lambda_2fe9b910cf3cbf4a0ab98a02ba45b3ec>@@$$QEAV<lambda_237c231691f317818eb88cc1d5d642d6>@@@Z 0000000180036048     libucrt:close.obj
 0002:0001306c       $unwind$??$?RV<lambda_b521505b218e5242e90febf6bfebc422>@@AEAV<lambda_6978c1fb23f02e42e1d9e99668cc68aa>@@V<lambda_314360699dd331753a4119843814e9a7>@@@?$__crt_seh_guarded_call@H@@QEAAH$$QEAV<lambda_b521505b218e5242e90febf6bfebc422>@@AEAV<lambda_6978c1fb23f02e42e1d9e99668cc68aa>@@$$QEAV<lambda_314360699dd331753a4119843814e9a7>@@@Z 000000018003606c     libucrt:commit.obj
 0002:00013090       $unwind$_write             0000000180036090     libucrt:write.obj
 0002:000130c0       $unwind$_write_nolock      00000001800360c0     libucrt:write.obj
 0002:000130d8       $unwind$?write_double_translated_ansi_nolock@@YA?AUwrite_result@?A0x9c548279@@HQEBDI@Z 00000001800360d8     libucrt:write.obj
 0002:000130f8       $unwind$?write_text_ansi_nolock@@YA?AUwrite_result@?A0x9c548279@@HQEBDI@Z 00000001800360f8     libucrt:write.obj
 0002:000130f8       $unwind$?write_text_utf16le_nolock@@YA?AUwrite_result@?A0x9c548279@@HQEBDI@Z 00000001800360f8     libucrt:write.obj
 0002:00013118       $unwind$?write_text_utf8_nolock@@YA?AUwrite_result@?A0x9c548279@@HQEBDI@Z 0000000180036118     libucrt:write.obj
 0002:0001313c       $unwind$?common_ftell_translated_utf8_nolock@@YA_JV__crt_stdio_stream@@_J@Z 000000018003613c     libucrt:ftell.obj
 0002:00013160       $unwind$?common_ftell_read_mode_nolock@@YA_JV__crt_stdio_stream@@_J1@Z 0000000180036160     libucrt:ftell.obj
 0002:0001317c       $unwind$??$common_ftell_nolock@_J@@YA_JV__crt_stdio_stream@@@Z 000000018003617c     libucrt:ftell.obj
 0002:00013188       $unwind$??$common_ftell@_J@@YA_JV__crt_stdio_stream@@@Z 0000000180036188     libucrt:ftell.obj
 0002:000131a8       $unwind$??$write_buffer_nolock@D@@YA_NDV__crt_stdio_stream@@@Z 00000001800361a8     libucrt:_flsbuf.obj
 0002:000131b8       $unwind$??$common_lseek@_J@@YA_JH_JH@Z 00000001800361b8     libucrt:lseek.obj
 0002:000131e8       $unwind$_isctype_l         00000001800361e8     libucrt:isctype.obj
 0002:00013204       $unwind$__acrt_GetLocaleInfoA 0000000180036204     libucrt:getlocaleinfoa.obj
 0002:00013224       $unwind$?InternalGetLocaleInfoA@@YAHQEAU__crt_locale_pointers@@QEB_WKQEADH@Z 0000000180036224     libucrt:getlocaleinfoa.obj
 0002:0001324c       $unwind$__acrt_GetStringTypeA 000000018003624c     libucrt:getstringtypea.obj
 0002:00013274       $unwind$__acrt_LCMapStringA 0000000180036274     libucrt:lcmapstringa.obj
 0002:00013284       $unwind$?__acrt_LCMapStringA_stat@@YAHPEAU__crt_locale_pointers@@PEB_WKPEBDHPEADHHH@Z 0000000180036284     libucrt:lcmapstringa.obj
 0002:000132ac       $unwind$_ctrlfp            00000001800362ac     libucrt:fpctrl.obj
 0002:000132d4       $unwind$__acrt_LCMapStringEx 00000001800362d4     libucrt:winapi_thunks.obj
 0002:000132d4       $unwind$_mbtowc_l          00000001800362d4     libucrt:mbtowc.obj
 0002:000132d4       $unwind$??0__ExceptionPtr@@QEAA@PEBUEHExceptionRecord@@_N@Z 00000001800362d4     libcpmt:excptptr.obj
 0002:000132d4       $unwind$__crtLCMapStringEx 00000001800362d4     libcpmt:winapinls.obj
 0002:000132ec       $unwind$__acrt_initialize_fma3 00000001800362ec     libucrt:fma3_available.obj
 0002:000132f4       $unwind$_powf_special      00000001800362f4     libucrt:pow_special.obj
 0002:00013304       $unwind$_pow_special       0000000180036304     libucrt:pow_special.obj
 0002:00013310       $unwind$??$common_expand_argv_wildcards@D@@YAHQEAPEADQEAPEAPEAD@Z 0000000180036310     libucrt:argv_wildcards.obj
 0002:00013328       $unwind$??$expand_argument_wildcards@D@@YAHQEAD0AEAV?$argument_list@D@?A0xca0879c4@@@Z 0000000180036328     libucrt:argv_wildcards.obj
 0002:00013348       $unwind$__acrt_update_thread_multibyte_data 0000000180036348     libucrt:mbctype.obj
 0002:0001336c       $unwind$_setmbcp_nolock    000000018003636c     libucrt:mbctype.obj
 0002:0001338c       $unwind$?setSBUpLow@@YAXPEAU__crt_multibyte_data@@@Z 000000018003638c     libucrt:mbctype.obj
 0002:000133a8       $unwind$?setmbcp_internal@@YAHH_N@Z 00000001800363a8     libucrt:mbctype.obj
 0002:000133b8       $unwind$??$?RV<lambda_99476a1ad63dd22509b5d3e65b0ffc95>@@AEAV<lambda_ad1ced32f4ac17aa236e5ef05d6b3b7c>@@V<lambda_f7424dd8d45958661754dc4f2697e9c3>@@@?$__crt_seh_guarded_call@X@@QEAAX$$QEAV<lambda_99476a1ad63dd22509b5d3e65b0ffc95>@@AEAV<lambda_ad1ced32f4ac17aa236e5ef05d6b3b7c>@@$$QEAV<lambda_f7424dd8d45958661754dc4f2697e9c3>@@@Z 00000001800363b8     libucrt:mbctype.obj
 0002:000133dc       $unwind$__dcrt_get_narrow_environment_from_os 00000001800363dc     libucrt:get_environment_from_os.obj
 0002:000133dc       $unwind$_wcsnicmp_l        00000001800363dc     libucrt:wcsnicmp.obj
 0002:000133f4       $unwind$_call_matherr      00000001800363f4     libucrt:libm_error.obj
 0002:000133fc       $unwind$_handle_error      00000001800363fc     libucrt:libm_error.obj
 0002:000133fc       $unwind$_handle_errorf     00000001800363fc     libucrt:libm_error.obj
 0002:0001341c       $unwind$__acrt_update_thread_locale_data 000000018003641c     libucrt:locale_refcounting.obj
 0002:00013440       $unwind$__acrt_locale_initialize_monetary 0000000180036440     libucrt:initmon.obj
 0002:0001345c       $unwind$__acrt_locale_free_monetary 000000018003645c     libucrt:initmon.obj
 0002:00013464       $unwind$__InternalCxxFrameHandler 0000000180036464     libvcruntime:frame.obj
 0002:00013464       $unwind$__C_specific_handler 0000000180036464     libvcruntime:_chandler_.obj
 0002:00013464       $unwind$__acrt_locale_initialize_numeric 0000000180036464     libucrt:initnum.obj
 0002:00013480       $unwind$__acrt_locale_free_time 0000000180036480     libucrt:inittime.obj
 0002:00013490       $unwind$?initialize_lc_time@@YA_NQEAU__crt_lc_time_data@@QEAU__crt_locale_data@@@Z 0000000180036490     libucrt:inittime.obj
 0002:000134ac       $unwind$??$copy_and_add_argument_to_buffer@D@@YAHQEBD0_KAEAV?$argument_list@D@?A0xca0879c4@@@Z 00000001800364ac     libucrt:argv_wildcards.obj
 0002:000134ac       $unwind$__acrt_get_qualified_locale 00000001800364ac     libucrt:get_qualified_locale.obj
 0002:000134c8       $unwind$LangCountryEnumProcEx 00000001800364c8     libucrt:get_qualified_locale.obj
 0002:000134e8       $unwind$LanguageEnumProcEx 00000001800364e8     libucrt:get_qualified_locale.obj
 0002:00013504       $unwind$GetLocaleNameFromDefault 0000000180036504     libucrt:get_qualified_locale.obj
 0002:0001351c       $unwind$TestDefaultCountry 000000018003651c     libucrt:get_qualified_locale.obj
 0002:00013530       $unwind$__acrt_get_qualified_locale_downlevel 0000000180036530     libucrt:getqloc_downlevel.obj
 0002:0001354c       $unwind$_initterm          000000018003654c     libucrt:initterm.obj
 0002:0001354c       $unwind$__TypeMatch        000000018003654c     libvcruntime:frame.obj
 0002:0001354c       $unwind$GetTableIndexFromLocaleName 000000018003654c     libcpmt:winapinls.obj
 0002:0001354c       $unwind$__acrt_GetLocaleInfoEx 000000018003654c     libucrt:winapi_thunks.obj
 0002:0001354c       $unwind$?xsgetn@?$basic_streambuf@DU?$char_traits@D@std@@@std@@MEAA_JPEAD_J@Z 000000018003654c     libcpmt:cerr.obj
 0002:0001354c       $unwind$TranslateName      000000018003654c     libucrt:getqloc_downlevel.obj
 0002:0001354c       $unwind$__GSHandlerCheck_EH 000000018003654c     LIBCMT:gshandlereh.obj
 0002:0001354c       $unwind$__acrt_initialize_stdio 000000018003654c     libucrt:_file.obj
 0002:0001354c       $unwind$__acrt_LCIDToLocaleName 000000018003654c     libucrt:winapi_thunks.obj
 0002:0001354c       $unwind$?_Reset0@?$_Ptr_base@V__ExceptionPtr@@@std@@QEAAXPEAV__ExceptionPtr@@PEAV_Ref_count_base@2@@Z 000000018003654c     libcpmt:excptptr.obj
 0002:00013564       $unwind$LangCountryEnumProc 0000000180036564     libucrt:getqloc_downlevel.obj
 0002:00013584       $unwind$LanguageEnumProc   0000000180036584     libucrt:getqloc_downlevel.obj
 0002:000135a0       $unwind$CountryEnumProc    00000001800365a0     libucrt:getqloc_downlevel.obj
 0002:000135c0       $unwind$_wcsdup            00000001800365c0     libucrt:wcsdup.obj
 0002:000135c0       $unwind$__lc_lctowcs       00000001800365c0     libucrt:wsetlocale.obj
 0002:000135c0       $unwind$__acrt_DownlevelLCIDToLocaleName 00000001800365c0     libucrt:lcidtoname_downlevel.obj
 0002:000135d4       $unwind$?GetTableIndexFromLocaleName@@YAHPEB_W@Z 00000001800365d4     libucrt:lcidtoname_downlevel.obj
 0002:000135ec       $unwind$__acrt_lowio_destroy_handle_array 00000001800365ec     libucrt:osfinfo.obj
 0002:000135fc       $unwind$__acrt_lowio_ensure_fh_exists 00000001800365fc     libucrt:osfinfo.obj
 0002:00013628       $unwind$__report_gsfailure 0000000180036628     LIBCMT:gs_report.obj
 0002:00013628       $unwind$_putwch_nolock     0000000180036628     libucrt:putwch.obj
 0002:00013630       $unwind$_read              0000000180036630     libucrt:read.obj
 0002:0001365c       $unwind$_read_nolock       000000018003665c     libucrt:read.obj
 0002:00013674       $unwind$?translate_ansi_or_utf8_nolock@@YAHHQEAD_KQEA_W1@Z 0000000180036674     libucrt:read.obj
 0002:0001368c       $unwind$??$translate_text_mode_nolock@_W@@YAHHQEA_W_K@Z 000000018003668c     libucrt:read.obj
 0002:000136a8       $xdatasym                  00000001800366a8     libucrt:fpsr.obj
 0002:000136b0       $unwind$_towlower_l        00000001800366b0     libucrt:towlower.obj
 0002:000136b8       $unwind$qsort              00000001800366b8     libucrt:qsort.obj
 0002:000136d0       $chain$4$qsort             00000001800366d0     libucrt:qsort.obj
 0002:000136f4       $chain$5$qsort             00000001800366f4     libucrt:qsort.obj
 0002:00013704       $unwind$?shortsort@@YAXPEAD0_KP6AHPEBX2@Z@Z 0000000180036704     libucrt:qsort.obj
 0002:00013714       $chain$2$?shortsort@@YAXPEAD0_KP6AHPEBX2@Z@Z 0000000180036714     libucrt:qsort.obj
 0002:00013730       $chain$3$?shortsort@@YAXPEAD0_KP6AHPEBX2@Z@Z 0000000180036730     libucrt:qsort.obj
 0002:00013740       $unwind$strpbrk            0000000180036740     libucrt:strpbrk.obj
 0002:00013750       $unwind$_mbsdec_l          0000000180036750     libucrt:mbsdec.obj
 0002:00013760       $xdatasym                  0000000180036760     libucrt:log10.obj
 0002:0001376c       $unwind$__acrt_LCMapStringW 000000018003676c     libucrt:lcmapstringw.obj
 0002:00013780       $unwind$_log_special_common 0000000180036780     libucrt:log_special.obj
 0002:00013780       $unwind$_exp_special       0000000180036780     libucrt:exp_special.obj
 0002:0001378c       $unwind$?DloadObtainSection@@YAPEAXPEAK0@Z 000000018003678c     DelayImp:delayhlp.obj
 0002:0001379c       $unwind$?DloadMakePermanentImageCommit@@YAXPEAX_K@Z 000000018003679c     DelayImp:delayhlp.obj
 0002:000137a8       $unwind$?DloadProtectSection@@YAXKPEAK@Z 00000001800367a8     DelayImp:delayhlp.obj
 0002:000137b8       $unwind$__delayLoadHelper2 00000001800367b8     DelayImp:delayhlp.obj
 0002:000137d0       $unwind$?_CopyException@__ExceptionPtr@@SA?AV?$shared_ptr@V__ExceptionPtr@@@std@@PEBXPEBU_s_ThrowInfo@@_N@Z 00000001800367d0     libcpmt:excptptr.obj
 0002:000137e4       $stateUnwindMap$?_CopyException@__ExceptionPtr@@SA?AV?$shared_ptr@V__ExceptionPtr@@@std@@PEBXPEBU_s_ThrowInfo@@_N@Z 00000001800367e4     libcpmt:excptptr.obj
 0002:000137e4       $stateUnwindMap$?_CallCopyCtor@__ExceptionPtr@@AEBAXPEAX0_KQEBU_s_CatchableType@@@Z 00000001800367e4     libcpmt:excptptr.obj
 0002:000137f4       $tryMap$?_CopyException@__ExceptionPtr@@SA?AV?$shared_ptr@V__ExceptionPtr@@@std@@PEBXPEBU_s_ThrowInfo@@_N@Z 00000001800367f4     libcpmt:excptptr.obj
 0002:00013808       $handlerMap$0$?_CopyException@__ExceptionPtr@@SA?AV?$shared_ptr@V__ExceptionPtr@@@std@@PEBXPEBU_s_ThrowInfo@@_N@Z 0000000180036808     libcpmt:excptptr.obj
 0002:00013830       $ip2state$?_CopyException@__ExceptionPtr@@SA?AV?$shared_ptr@V__ExceptionPtr@@@std@@PEBXPEBU_s_ThrowInfo@@_N@Z 0000000180036830     libcpmt:excptptr.obj
 0002:00013868       $unwind$?catch$4@?0??_CopyException@__ExceptionPtr@@SA?AV?$shared_ptr@V__ExceptionPtr@@@std@@PEBXPEBU_s_ThrowInfo@@_N@Z@4HA 0000000180036868     libcpmt:excptptr.obj
 0002:00013868       $unwind$?catch$3@?0??_CopyException@__ExceptionPtr@@SA?AV?$shared_ptr@V__ExceptionPtr@@@std@@PEBXPEBU_s_ThrowInfo@@_N@Z@4HA 0000000180036868     libcpmt:excptptr.obj
 0002:00013878       $unwind$??1__ExceptionPtr@@QEAA@XZ 0000000180036878     libcpmt:excptptr.obj
 0002:00013890       $ip2state$??1__ExceptionPtr@@QEAA@XZ 0000000180036890     libcpmt:excptptr.obj
 0002:00013898       $unwind$?_InitBadAllocException@__ExceptionPtr@@CA?AV?$shared_ptr@V__ExceptionPtr@@@std@@XZ 0000000180036898     libcpmt:excptptr.obj
 0002:000138a8       $stateUnwindMap$?_InitBadAllocException@__ExceptionPtr@@CA?AV?$shared_ptr@V__ExceptionPtr@@@std@@XZ 00000001800368a8     libcpmt:excptptr.obj
 0002:000138b0       $ip2state$?_InitBadAllocException@__ExceptionPtr@@CA?AV?$shared_ptr@V__ExceptionPtr@@@std@@XZ 00000001800368b0     libcpmt:excptptr.obj
 0002:000138c8       $unwind$?_CallCopyCtor@__ExceptionPtr@@AEBAXPEAX0_KQEBU_s_CatchableType@@@Z 00000001800368c8     libcpmt:excptptr.obj
 0002:000138e4       $tryMap$?_CallCopyCtor@__ExceptionPtr@@AEBAXPEAX0_KQEBU_s_CatchableType@@@Z 00000001800368e4     libcpmt:excptptr.obj
 0002:000138f8       $handlerMap$0$?_CallCopyCtor@__ExceptionPtr@@AEBAXPEAX0_KQEBU_s_CatchableType@@@Z 00000001800368f8     libcpmt:excptptr.obj
 0002:00013910       $ip2state$?_CallCopyCtor@__ExceptionPtr@@AEBAXPEAX0_KQEBU_s_CatchableType@@@Z 0000000180036910     libcpmt:excptptr.obj
 0002:00013938       $unwind$?catch$0@?0??_CallCopyCtor@__ExceptionPtr@@AEBAXPEAX0_KQEBU_s_CatchableType@@@Z@4HA 0000000180036938     libcpmt:excptptr.obj
 0002:00013948       $unwind$??$make_shared@V__ExceptionPtr@@AEAPEAUEHExceptionRecord@@_N@std@@YA?AV?$shared_ptr@V__ExceptionPtr@@@0@AEAPEAUEHExceptionRecord@@$$QEA_N@Z 0000000180036948     libcpmt:excptptr.obj
 0002:00013960       $stateUnwindMap$??$make_shared@V__ExceptionPtr@@AEAPEAUEHExceptionRecord@@_N@std@@YA?AV?$shared_ptr@V__ExceptionPtr@@@0@AEAPEAUEHExceptionRecord@@$$QEA_N@Z 0000000180036960     libcpmt:excptptr.obj
 0002:00013978       $ip2state$??$make_shared@V__ExceptionPtr@@AEAPEAUEHExceptionRecord@@_N@std@@YA?AV?$shared_ptr@V__ExceptionPtr@@@0@AEAPEAUEHExceptionRecord@@$$QEA_N@Z 0000000180036978     libcpmt:excptptr.obj
 0002:000139a8       $unwind$??$allocate_shared@V__ExceptionPtr@@U?$_StaticAllocator@H@@AEAPEAUEHExceptionRecord@@_N@std@@YA?AV?$shared_ptr@V__ExceptionPtr@@@0@AEBU?$_StaticAllocator@H@@AEAPEAUEHExceptionRecord@@$$QEA_N@Z 00000001800369a8     libcpmt:excptptr.obj
 0002:000139c4       $stateUnwindMap$??$allocate_shared@V__ExceptionPtr@@U?$_StaticAllocator@H@@AEAPEAUEHExceptionRecord@@_N@std@@YA?AV?$shared_ptr@V__ExceptionPtr@@@0@AEBU?$_StaticAllocator@H@@AEAPEAUEHExceptionRecord@@$$QEA_N@Z 00000001800369c4     libcpmt:excptptr.obj
 0002:000139dc       $tryMap$??$allocate_shared@V__ExceptionPtr@@U?$_StaticAllocator@H@@AEAPEAUEHExceptionRecord@@_N@std@@YA?AV?$shared_ptr@V__ExceptionPtr@@@0@AEBU?$_StaticAllocator@H@@AEAPEAUEHExceptionRecord@@$$QEA_N@Z 00000001800369dc     libcpmt:excptptr.obj
 0002:000139f0       $handlerMap$0$??$allocate_shared@V__ExceptionPtr@@U?$_StaticAllocator@H@@AEAPEAUEHExceptionRecord@@_N@std@@YA?AV?$shared_ptr@V__ExceptionPtr@@@0@AEBU?$_StaticAllocator@H@@AEAPEAUEHExceptionRecord@@$$QEA_N@Z 00000001800369f0     libcpmt:excptptr.obj
 0002:00013a08       $ip2state$??$allocate_shared@V__ExceptionPtr@@U?$_StaticAllocator@H@@AEAPEAUEHExceptionRecord@@_N@std@@YA?AV?$shared_ptr@V__ExceptionPtr@@@0@AEBU?$_StaticAllocator@H@@AEAPEAUEHExceptionRecord@@$$QEA_N@Z 0000000180036a08     libcpmt:excptptr.obj
 0002:00013a38       $unwind$?catch$18@?0???$allocate_shared@V__ExceptionPtr@@U?$_StaticAllocator@H@@AEAPEAUEHExceptionRecord@@_N@std@@YA?AV?$shared_ptr@V__ExceptionPtr@@@0@AEBU?$_StaticAllocator@H@@AEAPEAUEHExceptionRecord@@$$QEA_N@Z@4HA 0000000180036a38     libcpmt:excptptr.obj
 0002:00013a48       $unwind$??$free_environment@_W@@YAXQEAPEA_W@Z 0000000180036a48     libucrt:environment_initialization.obj
 0002:00013a48       $unwind$?_Delete_this@?$_Ref_count_obj@V__ExceptionPtr@@@std@@EEAAXXZ 0000000180036a48     libcpmt:excptptr.obj
 0002:00013a48       $unwind$??$free_environment@D@@YAXQEAPEAD@Z 0000000180036a48     libucrt:environment_initialization.obj
 0002:00013a54       $unwind$??$?0AEAPEAUEHExceptionRecord@@_N@?$_Ref_count_obj_alloc@V__ExceptionPtr@@U?$_StaticAllocator@H@@@std@@QEAA@AEBU?$_StaticAllocator@H@@AEAPEAUEHExceptionRecord@@$$QEA_N@Z 0000000180036a54     libcpmt:excptptr.obj
 0002:00013a6c       $stateUnwindMap$??$?0AEAPEAUEHExceptionRecord@@_N@?$_Ref_count_obj_alloc@V__ExceptionPtr@@U?$_StaticAllocator@H@@@std@@QEAA@AEBU?$_StaticAllocator@H@@AEAPEAUEHExceptionRecord@@$$QEA_N@Z 0000000180036a6c     libcpmt:excptptr.obj
 0002:00013a80       $ip2state$??$?0AEAPEAUEHExceptionRecord@@_N@?$_Ref_count_obj_alloc@V__ExceptionPtr@@U?$_StaticAllocator@H@@@std@@QEAA@AEBU?$_StaticAllocator@H@@AEAPEAUEHExceptionRecord@@$$QEA_N@Z 0000000180036a80     libcpmt:excptptr.obj
 0002:00013aa0       $unwind$_IsNonwritableInCurrentImage 0000000180036aa0     LIBCMT:pesect.obj
 0002:000145f0       .edata                     00000001800375f0     rainfall.exp
 0002:00014618       rgpv                       0000000180037618     rainfall.exp
 0002:0001461c       rgszName                   000000018003761c     rainfall.exp
 0002:00014620       rgwOrd                     0000000180037620     rainfall.exp
 0002:00014622       szName                     0000000180037622     rainfall.exp
 0002:00014630       $N00001                    0000000180037630     rainfall.exp
 0002:00014944       .idata$6                   0000000180037944     kernel32:KERNEL32.dll
 0003:00000000       ?init@std@@3JA             0000000180038000     libcpmt:xlock.obj
 0003:00000010       ?atcount_cdecl@@3_KA       0000000180038010     libcpmt:iosptrs.obj
 0003:000000b4       ?g_CommitFrequency@details@Concurrency@@3HA 00000001800380b4     libconcrt:utils.obj
 0003:00000160       ?__vcrt_flsindex@@3KA      0000000180038160     libvcruntime:per_thread_data.obj
 0003:00000174       errno_no_memory            0000000180038174     libucrt:errno.obj
 0003:00000178       doserrno_no_memory         0000000180038178     libucrt:errno.obj
 0003:00000350       __acrt_flsindex            0000000180038350     libucrt:per_thread_data.obj
 0003:00000358       _ctype_loc_style           0000000180038358     libucrt:wsetlocale.obj
 0003:00000520       ?dazSupported@?1??_ctrlfp@@9@9 0000000180038520     libucrt:fpctrl.obj
 0003:00000530       tzstd_program              0000000180038530     libucrt:timeset.obj
 0003:00000570       tzdst_program              0000000180038570     libucrt:timeset.obj
 0003:000005b0       tzname_states              00000001800385b0     libucrt:timeset.obj
 0003:000007f0       __rgctypeflag              00000001800387f0     libucrt:mbctype.obj
 0003:00000800       __rgcode_page_info         0000000180038800     libucrt:mbctype.obj
 0003:00000c10       ?_StaticAllocStorageLeft@@3_KA 0000000180038c10     libcpmt:excptptr.obj
 0003:00000c20       _module                    0000000180038c20     rainfall_node.obj
 0003:000013c0       ?initlocks@std@@3V_Init_locks@1@A 00000001800393c0     libcpmt:xlock.obj
 0003:000013d0       ?mtx@std@@3PAU_RTL_CRITICAL_SECTION@@A 00000001800393d0     libcpmt:xlock.obj
 0003:00001510       ?_Fac_head@std@@3PEAU_Fac_node@1@EA 0000000180039510     libcpmt:locale0.obj
 0003:00001528       global_locale              0000000180039528     libcpmt:locale0.obj
 0003:00001550       ?classic_locale@std@@3Vlocale@1@A 0000000180039550     libcpmt:locale0.obj
 0003:00001568       ?_Fac_tidy_reg@std@@3U_Fac_tidy_reg_t@1@B 0000000180039568     libcpmt:locale0.obj
 0003:00001569       ?registered@?1??_Setgloballocale@locale@std@@CAXPEAX@Z@4_NA 0000000180039569     libcpmt:locale0.obj
 0003:00001570       ?initlocks@@3V_Init_locks@std@@A 0000000180039570     libcpmt:cerr.obj
 0003:00001571       ?init_cerr@std@@3U_Init_cerr@1@A 0000000180039571     libcpmt:cerr.obj
 0003:000015f0       ?ferr@std@@3V?$basic_filebuf@DU?$char_traits@D@std@@@1@A 00000001800395f0     libcpmt:cerr.obj
 0003:000016f0       ?atfuns_cdecl@@3PAP6AXXZA  00000001800396f0     libcpmt:iosptrs.obj
 0003:00001740       ?initlocks@std@@3V_Init_locks@1@A 0000000180039740     libcpmt:iosptrs.obj
 0003:00001741       ?init_atexit@@3U_Init_atexit@@A 0000000180039741     libcpmt:iosptrs.obj
 0003:00001770       ?stdstr@std@@3PAPEAVios_base@1@A 0000000180039770     libcpmt:ios.obj
 0003:000017c0       ?stdopens@std@@3PADA       00000001800397c0     libcpmt:ios.obj
 0003:000017e0       thread_exit_data           00000001800397e0     libcpmt:xnotify.obj
 0003:00001d40       ?_Tss_mutex@@3U_RTL_CRITICAL_SECTION@@A 0000000180039d40     LIBCMT:thread_safe_statics.obj
 0003:00001d68       ?_Tss_cv@@3U_RTL_CONDITION_VARIABLE@@A 0000000180039d68     LIBCMT:thread_safe_statics.obj
 0003:00001d70       ?_Tss_event@@3PEAXEA       0000000180039d70     LIBCMT:thread_safe_statics.obj
 0003:00001d78       ?encoded_sleep_condition_variable_cs@@3P6AHPEAU_RTL_CONDITION_VARIABLE@@PEAU_RTL_CRITICAL_SECTION@@K@ZEA 0000000180039d78     LIBCMT:thread_safe_statics.obj
 0003:00001d80       ?encoded_wake_all_condition_variable@@3P6AXPEAU_RTL_CONDITION_VARIABLE@@@ZEA 0000000180039d80     LIBCMT:thread_safe_statics.obj
 0003:00001d98       ?module_local_atexit_table@@3U_onexit_table_t@@A 0000000180039d98     LIBCMT:utility.obj
 0003:00001db0       ?module_local_at_quick_exit_table@@3U_onexit_table_t@@A 0000000180039db0     LIBCMT:utility.obj
 0003:00001dc8       ?is_initialized_as_dll@@3_NA 0000000180039dc8     LIBCMT:utility.obj
 0003:00001dcc       ?__proc_attached@@3HA      0000000180039dcc     LIBCMT:dll_dllmain.obj
 0003:00001dd0       GS_ExceptionRecord         0000000180039dd0     LIBCMT:gs_report.obj
 0003:00001e70       GS_ContextRecord           0000000180039e70     LIBCMT:gs_report.obj
 0003:00002378       ?s_pfnGetCurrentProcessorNumberEx@platform@details@Concurrency@@3P6AXPEAU_PROCESSOR_NUMBER@@@ZEA 000000018003a378     libconcrt:Platform.obj
 0003:00002380       ?s_pfnSetThreadGroupAffinity@platform@details@Concurrency@@3P6AHPEAXPEBU_GROUP_AFFINITY@@PEAU4@@ZEA 000000018003a380     libconcrt:Platform.obj
 0003:00002388       ?s_pfnGetThreadGroupAffinity@platform@details@Concurrency@@3P6AHPEAXPEAU_GROUP_AFFINITY@@@ZEA 000000018003a388     libconcrt:Platform.obj
 0003:00002390       ?s_waiterPool@platform@details@Concurrency@@3PEAVWaiterThreadPool@123@EA 000000018003a390     libconcrt:Platform.obj
 0003:00002398       ?s_defaultWaiterPool@platform@details@Concurrency@@3VDefaultWaiterPool@123@A 000000018003a398     libconcrt:Platform.obj
 0003:000023a0       ?g_TraceInitialized@details@Concurrency@@3_NA 000000018003a3a0     libconcrt:utils.obj
 0003:000023a4       ?g_DesiredTraceLevel@details@Concurrency@@3HA 000000018003a3a4     libconcrt:utils.obj
 0003:000023a8       ?g_TraceCount@details@Concurrency@@3_KA 000000018003a3a8     libconcrt:utils.obj
 0003:000023c0       ?g_DebugOutFilePtr@details@Concurrency@@3PEAU_iobuf@@EA 000000018003a3c0     libconcrt:utils.obj
 0003:00002540       ?module_handles@@3PAPEAUHINSTANCE__@@A 000000018003a540     libvcruntime:winapi_downlevel.obj
 0003:00002560       ?encoded_function_pointers@@3PAPEAXA 000000018003a560     libvcruntime:winapi_downlevel.obj
 0003:000025b0       ?__vcrt_startup_thread_ptd@@3U__vcrt_ptd@@A 000000018003a5b0     libvcruntime:per_thread_data.obj
 0003:00002630       __vcrt_lock_table          000000018003a630     libvcruntime:locks.obj
 0003:00002658       __vcrt_locks_initialized   000000018003a658     libvcruntime:locks.obj
 0003:000026a8       ?heap@@3V_HeapManager@@A   000000018003a6a8     libvcruntime:undname.obj
 0003:000026d0       __acrt_invalid_parameter_handler 000000018003a6d0     libucrt:invalid_parameter.obj
 0003:000026e0       __acrt_lock_table          000000018003a6e0     libucrt:locks.obj
 0003:000028e8       __acrt_locks_initialized   000000018003a8e8     libucrt:locks.obj
 0003:00002910       __acrt_new_handler         000000018003a910     libucrt:new_handler.obj
 0003:00002918       c_termination_complete     000000018003a918     libucrt:exit.obj
 0003:00002920       thread_local_exit_callback_func 000000018003a920     libucrt:exit.obj
 0003:00002928       ?c_exit_complete@?5??common_exit@@YAXHW4_crt_exit_cleanup_mode@@W4_crt_exit_return_mode@@@Z@4_NA 000000018003a928     libucrt:exit.obj
 0003:00002930       ?program_name@?5???$common_configure_argv@D@@YAHW4_crt_argv_mode@@@Z@4PADA 000000018003a930     libucrt:argv_parsing.obj
 0003:00002a88       ctrlc_action               000000018003aa88     libucrt:signal.obj
 0003:00002a90       ctrlbreak_action           000000018003aa90     libucrt:signal.obj
 0003:00002a98       abort_action               000000018003aa98     libucrt:signal.obj
 0003:00002aa0       term_action                000000018003aaa0     libucrt:signal.obj
 0003:00002ac0       module_handles             000000018003aac0     libucrt:winapi_thunks.obj
 0003:00002b60       encoded_function_pointers  000000018003ab60     libucrt:winapi_thunks.obj
 0003:00002c60       ?static_enum_proc@?1??enum_system_locales_ex_nolock@@YAHQ6AHPEA_WK_J@Z@Z@4P6AH0K1@ZEA 000000018003ac60     libucrt:winapi_thunks.obj
 0003:00002c68       ?state_cache@?1??__acrt_is_packaged_app@@9@4JA 000000018003ac68     libucrt:winapi_thunks.obj
 0003:00003088       __acrt_global_new_mode     000000018003b088     libucrt:new_mode.obj
 0003:000030b0       _tzname                    000000018003b0b0     libucrt:timeset.obj
 0003:000030c0       tz_api_used                000000018003b0c0     libucrt:tzset.obj
 0003:000030d0       tz_info                    000000018003b0d0     libucrt:tzset.obj
 0003:00003194       fSystemSet                 000000018003b194     libucrt:mbctype.obj
 0003:000031a0       ?initialized@?1??__acrt_initialize_multibyte@@9@4_NA 000000018003b1a0     libucrt:mbctype.obj
 0003:000031d0       user_matherr               000000018003b1d0     libucrt:matherr.obj
 0003:000031d8       __acrt_app_type            000000018003b1d8     libucrt:report_runtime_error.obj
 0003:0000320c       ?s_asyncId@platform@details@Concurrency@@3IA 000000018003b20c     libcpmt:ppltasks.obj
 0003:00003220       ?_StaticAllocStorage@@3PADA 000000018003b220     libcpmt:excptptr.obj
 0004:00000000       $pdata$??__Einitlocks@std@@YAXXZ 000000018003c000     libcpmt:xlock.obj
 0004:0000000c       $pdata$??__Ecerr@std@@YAXXZ 000000018003c00c     libcpmt:cerr.obj
 0004:00000018       $pdata$??__Eferr@std@@YAXXZ 000000018003c018     libcpmt:cerr.obj
 0004:00000024       $pdata$??__Einitlocks@@YAXXZ 000000018003c024     libcpmt:cerr.obj
 0004:00000030       $pdata$??__Einitlocks@std@@YAXXZ 000000018003c030     libcpmt:iosptrs.obj
 0004:0000003c       $pdata$??__Eg_DebugOutFilePtr@details@Concurrency@@YAXXZ 000000018003c03c     libconcrt:utils.obj
 0004:00000048       $pdata$??__E?s_cookie@Security@details@Concurrency@@2_KA@@YAXXZ 000000018003c048     libconcrt:staticinits.obj
 0004:00000054       $pdata$??__E?m_badAllocExceptionPtr@__ExceptionPtr@@0V?$shared_ptr@V__ExceptionPtr@@@std@@A@@YAXXZ 000000018003c054     libcpmt:excptptr.obj
 0004:00000060       $pdata$?_Deallocate@std@@YAXPEAX_K1@Z 000000018003c060     rainfall.obj
 0004:0000006c       $pdata$?calc_rain_stats@@YA?AVrain_result@@AEAVlocation@@@Z 000000018003c06c     rainfall.obj
 0004:00000078       $pdata$??1?$basic_string@DU?$char_traits@D@std@@V?$allocator@D@2@@std@@QEAA@XZ 000000018003c078     rainfall.obj
 0004:00000084       $pdata$??0?$basic_string@DU?$char_traits@D@std@@V?$allocator@D@2@@std@@QEAA@$$QEAV01@@Z 000000018003c084     rainfall.obj
 0004:00000090       $pdata$?_Assign_rv@?$basic_string@DU?$char_traits@D@std@@V?$allocator@D@2@@std@@QEAAX$$QEAV12@@Z 000000018003c090     rainfall.obj
 0004:0000009c       $pdata$?_Xlen@?$basic_string@DU?$char_traits@D@std@@V?$allocator@D@2@@std@@QEBAXXZ 000000018003c09c     rainfall.obj
 0004:000000a8       $pdata$?erase@?$basic_string@DU?$char_traits@D@std@@V?$allocator@D@2@@std@@QEAAAEAV12@_K0@Z 000000018003c0a8     rainfall.obj
 0004:000000b4       $pdata$?_Copy@?$basic_string@DU?$char_traits@D@std@@V?$allocator@D@2@@std@@QEAAX_K0@Z 000000018003c0b4     rainfall.obj
 0004:000000c0       $pdata$??$_Sort_unchecked1@PEAVsample@@_JU?$less@X@std@@@std@@YAXPEAVsample@@0_JAEAU?$less@X@0@@Z 000000018003c0c0     rainfall.obj
 0004:000000cc       $pdata$??$_Partition_by_median_guess_unchecked@PEAVsample@@U?$less@X@std@@@std@@YA?AU?$pair@PEAVsample@@PEAV1@@0@PEAVsample@@0AEAU?$less@X@0@@Z 000000018003c0cc     rainfall.obj
 0004:000000d8       $pdata$??$_Make_heap_unchecked@PEAVsample@@U?$less@X@std@@@std@@YAXPEAVsample@@0AEAU?$less@X@0@@Z 000000018003c0d8     rainfall.obj
 0004:000000e4       $pdata$??$_Sort_heap_unchecked@PEAVsample@@U?$less@X@std@@@std@@YAXPEAVsample@@0AEAU?$less@X@0@@Z 000000018003c0e4     rainfall.obj
 0004:000000f0       $pdata$??$_Insertion_sort_unchecked@PEAVsample@@U?$less@X@std@@@std@@YAXPEAVsample@@0AEAU?$less@X@0@@Z 000000018003c0f0     rainfall.obj
 0004:000000fc       $pdata$??4?$basic_string@DU?$char_traits@D@std@@V?$allocator@D@2@@std@@QEAAAEAV01@$$QEAV01@@Z 000000018003c0fc     rainfall.obj
 0004:00000108       $pdata$??$_Guess_median_unchecked@PEAVsample@@U?$less@X@std@@@std@@YAXPEAVsample@@00AEAU?$less@X@0@@Z 000000018003c108     rainfall.obj
 0004:00000114       $pdata$0$??$_Guess_median_unchecked@PEAVsample@@U?$less@X@std@@@std@@YAXPEAVsample@@00AEAU?$less@X@0@@Z 000000018003c114     rainfall.obj
 0004:00000120       $pdata$3$??$_Guess_median_unchecked@PEAVsample@@U?$less@X@std@@@std@@YAXPEAVsample@@00AEAU?$less@X@0@@Z 000000018003c120     rainfall.obj
 0004:0000012c       $pdata$4$??$_Guess_median_unchecked@PEAVsample@@U?$less@X@std@@@std@@YAXPEAVsample@@00AEAU?$less@X@0@@Z 000000018003c12c     rainfall.obj
 0004:00000138       $pdata$5$??$_Guess_median_unchecked@PEAVsample@@U?$less@X@std@@@std@@YAXPEAVsample@@00AEAU?$less@X@0@@Z 000000018003c138     rainfall.obj
 0004:00000144       $pdata$6$??$_Guess_median_unchecked@PEAVsample@@U?$less@X@std@@@std@@YAXPEAVsample@@00AEAU?$less@X@0@@Z 000000018003c144     rainfall.obj
 0004:00000150       $pdata$??$_Pop_heap_hole_by_index@PEAVsample@@_JV1@U?$less@X@std@@@std@@YAXPEAVsample@@_J1$$QEAV1@AEAU?$less@X@0@@Z 000000018003c150     rainfall.obj
 0004:0000015c       $pdata$??$swap@Vsample@@X@std@@YAXAEAVsample@@0@Z 000000018003c15c     rainfall.obj
 0004:00000168       $pdata$??$_Push_heap_by_index@PEAVsample@@_JV1@U?$less@X@std@@@std@@YAXPEAVsample@@_J1$$QEAV1@AEAU?$less@X@0@@Z 000000018003c168     rainfall.obj
 0004:00000174       $pdata$1$??$_Push_heap_by_index@PEAVsample@@_JV1@U?$less@X@std@@@std@@YAXPEAVsample@@_J1$$QEAV1@AEAU?$less@X@0@@Z 000000018003c174     rainfall.obj
 0004:00000180       $pdata$2$??$_Push_heap_by_index@PEAVsample@@_JV1@U?$less@X@std@@@std@@YAXPEAVsample@@_J1$$QEAV1@AEAU?$less@X@0@@Z 000000018003c180     rainfall.obj
 0004:0000018c       $pdata$3$??$_Push_heap_by_index@PEAVsample@@_JV1@U?$less@X@std@@@std@@YAXPEAVsample@@_J1$$QEAV1@AEAU?$less@X@0@@Z 000000018003c18c     rainfall.obj
 0004:00000198       $pdata$4$??$_Push_heap_by_index@PEAVsample@@_JV1@U?$less@X@std@@@std@@YAXPEAVsample@@_J1$$QEAV1@AEAU?$less@X@0@@Z 000000018003c198     rainfall.obj
 0004:000001a4       $pdata$??$_Move_backward_unchecked1@PEAVsample@@PEAV1@@std@@YAPEAVsample@@PEAV1@00U_General_ptr_iterator_tag@0@@Z 000000018003c1a4     rainfall.obj
 0004:000001b0       $pdata$?_Raise@exception@stdext@@QEBAXXZ 000000018003c1b0     rainfall_node.obj
 0004:000001bc       $pdata$??_Gruntime_error@std@@UEAAPEAXI@Z 000000018003c1bc     rainfall_node.obj
 0004:000001bc       $pdata$??_Gexception@stdext@@UEAAPEAXI@Z 000000018003c1bc     rainfall_node.obj
 0004:000001c8       $pdata$?NODE_SET_METHOD@node@@YAXV?$Local@VObject@v8@@@v8@@PEBDP6AXAEBV?$FunctionCallbackInfo@VValue@v8@@@3@@Z@Z 000000018003c1c8     rainfall_node.obj
 0004:000001d4       $pdata$??0_Locinfo@std@@QEAA@PEBD@Z 000000018003c1d4     rainfall_node.obj
 0004:000001e0       $pdata$??1_Locinfo@std@@QEAA@XZ 000000018003c1e0     rainfall_node.obj
 0004:000001ec       $pdata$??_G_Facet_base@std@@UEAAPEAXI@Z 000000018003c1ec     rainfall_node.obj
 0004:000001f8       $pdata$??1locale@std@@QEAA@XZ 000000018003c1f8     rainfall_node.obj
 0004:00000204       $pdata$?_Getcat@?$ctype@D@std@@SA_KPEAPEBVfacet@locale@2@PEBV42@@Z 000000018003c204     rainfall_node.obj
 0004:00000210       $pdata$?do_tolower@?$ctype@D@std@@MEBAPEBDPEADPEBD@Z 000000018003c210     rainfall_node.obj
 0004:0000021c       $pdata$0$?do_tolower@?$ctype@D@std@@MEBAPEBDPEADPEBD@Z 000000018003c21c     rainfall_node.obj
 0004:00000228       $pdata$1$?do_tolower@?$ctype@D@std@@MEBAPEBDPEADPEBD@Z 000000018003c228     rainfall_node.obj
 0004:00000234       $pdata$?do_toupper@?$ctype@D@std@@MEBAPEBDPEADPEBD@Z 000000018003c234     rainfall_node.obj
 0004:00000240       $pdata$0$?do_toupper@?$ctype@D@std@@MEBAPEBDPEADPEBD@Z 000000018003c240     rainfall_node.obj
 0004:0000024c       $pdata$1$?do_toupper@?$ctype@D@std@@MEBAPEBDPEADPEBD@Z 000000018003c24c     rainfall_node.obj
 0004:00000258       $pdata$?do_widen@?$ctype@D@std@@MEBAPEBDPEBD0PEAD@Z 000000018003c258     rainfall_node.obj
 0004:00000264       $pdata$?do_narrow@?$ctype@D@std@@MEBAPEBDPEBD0DPEAD@Z 000000018003c264     rainfall_node.obj
 0004:00000270       $pdata$??_G?$ctype@D@std@@MEAAPEAXI@Z 000000018003c270     rainfall_node.obj
 0004:0000027c       $pdata$??_G_Iostream_error_category@std@@UEAAPEAXI@Z 000000018003c27c     rainfall_node.obj
 0004:0000027c       $pdata$??_Gerror_category@std@@UEAAPEAXI@Z 000000018003c27c     rainfall_node.obj
 0004:00000288       $pdata$?message@error_code@std@@QEBA?AV?$basic_string@DU?$char_traits@D@std@@V?$allocator@D@2@@2@XZ 000000018003c288     rainfall_node.obj
 0004:00000294       $pdata$?equivalent@error_category@std@@UEBA_NHAEBVerror_condition@2@@Z 000000018003c294     rainfall_node.obj
 0004:000002a0       $pdata$?_Makestr@_System_error@std@@CA?AV?$basic_string@DU?$char_traits@D@std@@V?$allocator@D@2@@2@Verror_code@2@V32@@Z 000000018003c2a0     rainfall_node.obj
 0004:000002ac       $pdata$??_G_System_error@std@@UEAAPEAXI@Z 000000018003c2ac     rainfall_node.obj
 0004:000002ac       $pdata$??_Gfailure@ios_base@std@@UEAAPEAXI@Z 000000018003c2ac     rainfall_node.obj
 0004:000002b8       $pdata$?message@_Generic_error_category@std@@UEBA?AV?$basic_string@DU?$char_traits@D@std@@V?$allocator@D@2@@2@H@Z 000000018003c2b8     rainfall_node.obj
 0004:000002c4       $pdata$?message@_Iostream_error_category@std@@UEBA?AV?$basic_string@DU?$char_traits@D@std@@V?$allocator@D@2@@2@H@Z 000000018003c2c4     rainfall_node.obj
 0004:000002d0       $pdata$?clear@ios_base@std@@QEAAXH_N@Z 000000018003c2d0     rainfall_node.obj
 0004:000002dc       $pdata$?getloc@ios_base@std@@QEBA?AVlocale@2@XZ 000000018003c2dc     rainfall_node.obj
 0004:000002e8       $pdata$?WorkAsync@@YAXPEAUuv_work_s@@@Z 000000018003c2e8     rainfall_node.obj
 0004:000002f4       $pdata$?WorkAsyncComplete@@YAXPEAUuv_work_s@@H@Z 000000018003c2f4     rainfall_node.obj
 0004:00000300       $pdata$?CalculateResultsAsync@@YAXAEBV?$FunctionCallbackInfo@VValue@v8@@@v8@@@Z 000000018003c300     rainfall_node.obj
 0004:0000030c       $pdata$?CalculateResultsSync@@YAXAEBV?$FunctionCallbackInfo@VValue@v8@@@v8@@@Z 000000018003c30c     rainfall_node.obj
 0004:00000318       $pdata$?CalculateResults@@YAXAEBV?$FunctionCallbackInfo@VValue@v8@@@v8@@@Z 000000018003c318     rainfall_node.obj
 0004:00000324       $pdata$?pack_rain_result@@YAXPEAVIsolate@v8@@AEAV?$Local@VObject@v8@@@2@AEAVrain_result@@@Z 000000018003c324     rainfall_node.obj
 0004:00000330       $pdata$?RainfallData@@YAXAEBV?$FunctionCallbackInfo@VValue@v8@@@v8@@@Z 000000018003c330     rainfall_node.obj
 0004:0000033c       $pdata$?unpack_sample@@YA?AVsample@@PEAVIsolate@v8@@V?$Local@VObject@v8@@@3@@Z 000000018003c33c     rainfall_node.obj
 0004:00000348       $pdata$?unpack_location@@YA?AVlocation@@PEAVIsolate@v8@@V?$Local@VObject@v8@@@3@@Z 000000018003c348     rainfall_node.obj
 0004:00000354       $pdata$?AvgRainfall@@YAXAEBV?$FunctionCallbackInfo@VValue@v8@@@v8@@@Z 000000018003c354     rainfall_node.obj
 0004:00000360       $pdata$?init@@YAXV?$Local@VObject@v8@@@v8@@0@Z 000000018003c360     rainfall_node.obj
 0004:0000036c       $pdata$?resize@?$vector@Vrain_result@@V?$allocator@Vrain_result@@@std@@@std@@QEAAX_K@Z 000000018003c36c     rainfall_node.obj
 0004:00000378       $pdata$?push_back@?$vector@Vlocation@@V?$allocator@Vlocation@@@std@@@std@@QEAAX$$QEAVlocation@@@Z 000000018003c378     rainfall_node.obj
 0004:00000384       $pdata$?push_back@?$vector@Vsample@@V?$allocator@Vsample@@@std@@@std@@QEAAXAEBVsample@@@Z 000000018003c384     rainfall_node.obj
 0004:00000390       $pdata$??1?$_Yarn@_W@std@@QEAA@XZ 000000018003c390     rainfall_node.obj
 0004:00000390       $pdata$??1?$_Yarn@D@std@@QEAA@XZ 000000018003c390     rainfall_node.obj
 0004:0000039c       $pdata$?_Tidy@?$vector@Vrain_result@@V?$allocator@Vrain_result@@@std@@@std@@IEAAXXZ 000000018003c39c     rainfall_node.obj
 0004:000003a8       $pdata$?_Tidy@?$vector@Vlocation@@V?$allocator@Vlocation@@@std@@@std@@IEAAXXZ 000000018003c3a8     rainfall_node.obj
 0004:000003b4       $pdata$0$?_Tidy@?$vector@Vlocation@@V?$allocator@Vlocation@@@std@@@std@@IEAAXXZ 000000018003c3b4     rainfall_node.obj
 0004:000003c0       $pdata$1$?_Tidy@?$vector@Vlocation@@V?$allocator@Vlocation@@@std@@@std@@IEAAXXZ 000000018003c3c0     rainfall_node.obj
 0004:000003cc       $pdata$?_Reserve@?$vector@Vlocation@@V?$allocator@Vlocation@@@std@@@std@@IEAAX_K@Z 000000018003c3cc     rainfall_node.obj
 0004:000003d8       $pdata$?_Tidy@?$vector@Vsample@@V?$allocator@Vsample@@@std@@@std@@IEAAXXZ 000000018003c3d8     rainfall_node.obj
 0004:000003e4       $pdata$?_Reserve@?$vector@Vsample@@V?$allocator@Vsample@@@std@@@std@@IEAAX_K@Z 000000018003c3e4     rainfall_node.obj
 0004:000003f0       $pdata$?assign@?$basic_string@DU?$char_traits@D@std@@V?$allocator@D@2@@std@@QEAAAEAV12@PEBD_K@Z 000000018003c3f0     rainfall_node.obj
 0004:000003fc       $pdata$?assign@?$basic_string@DU?$char_traits@D@std@@V?$allocator@D@2@@std@@QEAAAEAV12@AEBV12@_K1@Z 000000018003c3fc     rainfall_node.obj
 0004:00000408       $pdata$?append@?$basic_string@DU?$char_traits@D@std@@V?$allocator@D@2@@std@@QEAAAEAV12@PEBD_K@Z 000000018003c408     rainfall_node.obj
 0004:00000414       $pdata$0$?append@?$basic_string@DU?$char_traits@D@std@@V?$allocator@D@2@@std@@QEAAAEAV12@PEBD_K@Z 000000018003c414     rainfall_node.obj
 0004:00000420       $pdata$1$?append@?$basic_string@DU?$char_traits@D@std@@V?$allocator@D@2@@std@@QEAAAEAV12@PEBD_K@Z 000000018003c420     rainfall_node.obj
 0004:0000042c       $pdata$2$?append@?$basic_string@DU?$char_traits@D@std@@V?$allocator@D@2@@std@@QEAAAEAV12@PEBD_K@Z 000000018003c42c     rainfall_node.obj
 0004:00000438       $pdata$?append@?$basic_string@DU?$char_traits@D@std@@V?$allocator@D@2@@std@@QEAAAEAV12@AEBV12@_K1@Z 000000018003c438     rainfall_node.obj
 0004:00000444       $pdata$0$?append@?$basic_string@DU?$char_traits@D@std@@V?$allocator@D@2@@std@@QEAAAEAV12@AEBV12@_K1@Z 000000018003c444     rainfall_node.obj
 0004:00000450       $pdata$1$?append@?$basic_string@DU?$char_traits@D@std@@V?$allocator@D@2@@std@@QEAAAEAV12@AEBV12@_K1@Z 000000018003c450     rainfall_node.obj
 0004:0000045c       $pdata$2$?append@?$basic_string@DU?$char_traits@D@std@@V?$allocator@D@2@@std@@QEAAAEAV12@AEBV12@_K1@Z 000000018003c45c     rainfall_node.obj
 0004:00000468       $pdata$?_Reallocate@?$vector@Vrain_result@@V?$allocator@Vrain_result@@@std@@@std@@IEAAX_K@Z 000000018003c468     rainfall_node.obj
 0004:00000474       $pdata$0$?_Reallocate@?$vector@Vrain_result@@V?$allocator@Vrain_result@@@std@@@std@@IEAAX_K@Z 000000018003c474     rainfall_node.obj
 0004:00000480       $pdata$1$?_Reallocate@?$vector@Vrain_result@@V?$allocator@Vrain_result@@@std@@@std@@IEAAX_K@Z 000000018003c480     rainfall_node.obj
 0004:0000048c       $pdata$2$?_Reallocate@?$vector@Vrain_result@@V?$allocator@Vrain_result@@@std@@@std@@IEAAX_K@Z 000000018003c48c     rainfall_node.obj
 0004:00000498       $pdata$?_Reallocate@?$vector@Vlocation@@V?$allocator@Vlocation@@@std@@@std@@IEAAX_K@Z 000000018003c498     rainfall_node.obj
 0004:000004a4       $pdata$2$?_Reallocate@?$vector@Vlocation@@V?$allocator@Vlocation@@@std@@@std@@IEAAX_K@Z 000000018003c4a4     rainfall_node.obj
 0004:000004b0       $pdata$3$?_Reallocate@?$vector@Vlocation@@V?$allocator@Vlocation@@@std@@@std@@IEAAX_K@Z 000000018003c4b0     rainfall_node.obj
 0004:000004bc       $pdata$4$?_Reallocate@?$vector@Vlocation@@V?$allocator@Vlocation@@@std@@@std@@IEAAX_K@Z 000000018003c4bc     rainfall_node.obj
 0004:000004c8       $pdata$?_Reallocate@?$vector@Vsample@@V?$allocator@Vsample@@@std@@@std@@IEAAX_K@Z 000000018003c4c8     rainfall_node.obj
 0004:000004d4       $pdata$0$?_Reallocate@?$vector@Vsample@@V?$allocator@Vsample@@@std@@@std@@IEAAX_K@Z 000000018003c4d4     rainfall_node.obj
 0004:000004e0       $pdata$2$?_Reallocate@?$vector@Vsample@@V?$allocator@Vsample@@@std@@@std@@IEAAX_K@Z 000000018003c4e0     rainfall_node.obj
 0004:000004ec       $pdata$3$?_Reallocate@?$vector@Vsample@@V?$allocator@Vsample@@@std@@@std@@IEAAX_K@Z 000000018003c4ec     rainfall_node.obj
 0004:000004f8       $pdata$4$?_Reallocate@?$vector@Vsample@@V?$allocator@Vsample@@@std@@@std@@IEAAX_K@Z 000000018003c4f8     rainfall_node.obj
 0004:00000504       $pdata$5$?_Reallocate@?$vector@Vsample@@V?$allocator@Vsample@@@std@@@std@@IEAAX_K@Z 000000018003c504     rainfall_node.obj
 0004:00000510       $pdata$??$use_facet@V?$ctype@D@std@@@std@@YAAEBV?$ctype@D@0@AEBVlocale@0@@Z 000000018003c510     rainfall_node.obj
 0004:0000051c       $pdata$??$_Immortalize@V_Iostream_error_category@std@@@std@@YAAEAV_Iostream_error_category@0@XZ 000000018003c51c     rainfall_node.obj
 0004:00000528       $pdata$??$?6U?$char_traits@D@std@@@std@@YAAEAV?$basic_ostream@DU?$char_traits@D@std@@@0@AEAV10@PEBD@Z 000000018003c528     rainfall_node.obj
 0004:00000534       $pdata$??1sentry@?$basic_ostream@DU?$char_traits@D@std@@@std@@QEAA@XZ 000000018003c534     rainfall_node.obj
 0004:00000540       $pdata$??0sentry@?$basic_ostream@DU?$char_traits@D@std@@@std@@QEAA@AEAV12@@Z 000000018003c540     rainfall_node.obj
 0004:0000054c       $pdata$?flush@?$basic_ostream@DU?$char_traits@D@std@@@std@@QEAAAEAV12@XZ 000000018003c54c     rainfall_node.obj
 0004:00000558       $pdata$?put@?$basic_ostream@DU?$char_traits@D@std@@@std@@QEAAAEAV12@D@Z 000000018003c558     rainfall_node.obj
 0004:00000564       $pdata$?widen@?$basic_ios@DU?$char_traits@D@std@@@std@@QEBADD@Z 000000018003c564     rainfall_node.obj
 0004:00000570       $pdata$??$_Destroy_range1@V?$allocator@Vsample@@@std@@PEAVsample@@@std@@YAXPEAVsample@@0AEAU?$_Wrap_alloc@V?$allocator@Vsample@@@std@@@0@U?$integral_constant@_N$0A@@0@@Z 000000018003c570     rainfall_node.obj
 0004:0000057c       $pdata$1$??$_Destroy_range1@V?$allocator@Vsample@@@std@@PEAVsample@@@std@@YAXPEAVsample@@0AEAU?$_Wrap_alloc@V?$allocator@Vsample@@@std@@@0@U?$integral_constant@_N$0A@@0@@Z 000000018003c57c     rainfall_node.obj
 0004:00000588       $pdata$2$??$_Destroy_range1@V?$allocator@Vsample@@@std@@PEAVsample@@@std@@YAXPEAVsample@@0AEAU?$_Wrap_alloc@V?$allocator@Vsample@@@std@@@0@U?$integral_constant@_N$0A@@0@@Z 000000018003c588     rainfall_node.obj
 0004:00000594       $pdata$3$??$_Destroy_range1@V?$allocator@Vsample@@@std@@PEAVsample@@@std@@YAXPEAVsample@@0AEAU?$_Wrap_alloc@V?$allocator@Vsample@@@std@@@0@U?$integral_constant@_N$0A@@0@@Z 000000018003c594     rainfall_node.obj
 0004:000005a0       $pdata$?load_exe_hook@@YAP6A_JXZIPEAUDelayLoadInfo@@@Z 000000018003c5a0     win_delay_load_hook.obj
 0004:000005b8       $pdata$??0bad_alloc@std@@QEAA@AEBV01@@Z 000000018003c5b8     libcpmt:xthrow.obj
 0004:000005c4       $pdata$??0exception@std@@QEAA@AEBV01@@Z 000000018003c5c4     libcpmt:xthrow.obj
 0004:000005d0       $pdata$??0length_error@std@@QEAA@AEBV01@@Z 000000018003c5d0     libcpmt:xthrow.obj
 0004:000005dc       $pdata$??0length_error@std@@QEAA@PEBD@Z 000000018003c5dc     libcpmt:xthrow.obj
 0004:000005e8       $pdata$??0logic_error@std@@QEAA@AEBV01@@Z 000000018003c5e8     libcpmt:xthrow.obj
 0004:000005f4       $pdata$??0out_of_range@std@@QEAA@AEBV01@@Z 000000018003c5f4     libcpmt:xthrow.obj
 0004:00000600       $pdata$??0out_of_range@std@@QEAA@PEBD@Z 000000018003c600     libcpmt:xthrow.obj
 0004:0000060c       $pdata$?_Xlength_error@std@@YAXPEBD@Z 000000018003c60c     libcpmt:xthrow.obj
 0004:00000618       $pdata$?_Xout_of_range@std@@YAXPEBD@Z 000000018003c618     libcpmt:xthrow.obj
 0004:00000624       $pdata$??0_Init_locks@std@@QEAA@XZ 000000018003c624     libcpmt:xlock.obj
 0004:00000630       $pdata$??0_Lockit@std@@QEAA@H@Z 000000018003c630     libcpmt:xlock.obj
 0004:0000063c       $pdata$??1_Init_locks@std@@QEAA@XZ 000000018003c63c     libcpmt:xlock.obj
 0004:00000648       $pdata$??1_Lockit@std@@QEAA@XZ 000000018003c648     libcpmt:xlock.obj
 0004:00000654       $pdata$??4?$_Yarn@D@std@@QEAAAEAV01@PEBD@Z 000000018003c654     libcpmt:locale0.obj
 0004:00000660       $pdata$??_G_Fac_node@std@@QEAAPEAXI@Z 000000018003c660     libcpmt:locale0.obj
 0004:0000066c       $pdata$??_G_Locimp@locale@std@@MEAAPEAXI@Z 000000018003c66c     libcpmt:locale0.obj
 0004:00000678       $pdata$?_Facet_Register@std@@YAXPEAV_Facet_base@1@@Z 000000018003c678     libcpmt:locale0.obj
 0004:00000684       $pdata$?_Init@locale@std@@CAPEAV_Locimp@12@_N@Z 000000018003c684     libcpmt:locale0.obj
 0004:00000690       $pdata$?_Locimp_dtor@_Locimp@locale@std@@CAXPEAV123@@Z 000000018003c690     libcpmt:locale0.obj
 0004:0000069c       $pdata$?_Locinfo_ctor@_Locinfo@std@@SAXPEAV12@PEBD@Z 000000018003c69c     libcpmt:locale0.obj
 0004:000006a8       $pdata$?_Locinfo_dtor@_Locinfo@std@@SAXPEAV12@@Z 000000018003c6a8     libcpmt:locale0.obj
 0004:000006b4       $pdata$?_New_Locimp@_Locimp@locale@std@@CAPEAV123@_N@Z 000000018003c6b4     libcpmt:locale0.obj
 0004:000006c0       $pdata$?_Setgloballocale@locale@std@@CAXPEAX@Z 000000018003c6c0     libcpmt:locale0.obj
 0004:000006cc       $pdata$_Deletegloballocale 000000018003c6cc     libcpmt:locale0.obj
 0004:000006d8       $pdata$tidy_global         000000018003c6d8     libcpmt:locale0.obj
 0004:000006e4       $pdata$??$use_facet@V?$codecvt@DDU_Mbstatet@@@std@@@std@@YAAEBV?$codecvt@DDU_Mbstatet@@@0@AEBVlocale@0@@Z 000000018003c6e4     libcpmt:cerr.obj
 0004:000006f0       $pdata$??0?$basic_ostream@DU?$char_traits@D@std@@@std@@QEAA@PEAV?$basic_streambuf@DU?$char_traits@D@std@@@1@_N@Z 000000018003c6f0     libcpmt:cerr.obj
 0004:000006fc       $pdata$??0?$basic_streambuf@DU?$char_traits@D@std@@@std@@IEAA@XZ 000000018003c6fc     libcpmt:cerr.obj
 0004:00000708       $pdata$??0bad_cast@std@@QEAA@AEBV01@@Z 000000018003c708     libcpmt:cerr.obj
 0004:00000714       $pdata$??1?$basic_filebuf@DU?$char_traits@D@std@@@std@@UEAA@XZ 000000018003c714     libcpmt:cerr.obj
 0004:00000720       $pdata$??1?$basic_ios@DU?$char_traits@D@std@@@std@@UEAA@XZ 000000018003c720     libcpmt:cerr.obj
 0004:0000072c       $pdata$??_G?$basic_filebuf@DU?$char_traits@D@std@@@std@@UEAAPEAXI@Z 000000018003c72c     libcpmt:cerr.obj
 0004:00000738       $pdata$??_G?$basic_ios@DU?$char_traits@D@std@@@std@@UEAAPEAXI@Z 000000018003c738     libcpmt:cerr.obj
 0004:00000744       $pdata$??_G?$basic_ostream@DU?$char_traits@D@std@@@std@@UEAAPEAXI@Z 000000018003c744     libcpmt:cerr.obj
 0004:00000750       $pdata$??_G?$basic_streambuf@DU?$char_traits@D@std@@@std@@UEAAPEAXI@Z 000000018003c750     libcpmt:cerr.obj
 0004:0000075c       $pdata$??_G?$codecvt@DDU_Mbstatet@@@std@@MEAAPEAXI@Z 000000018003c75c     libcpmt:cerr.obj
 0004:00000768       $pdata$??_Gios_base@std@@UEAAPEAXI@Z 000000018003c768     libcpmt:cerr.obj
 0004:00000774       $pdata$??_Glocale@std@@QEAAPEAXI@Z 000000018003c774     libcpmt:cerr.obj
 0004:00000780       $pdata$?_Endwrite@?$basic_filebuf@DU?$char_traits@D@std@@@std@@IEAA_NXZ 000000018003c780     libcpmt:cerr.obj
 0004:0000078c       $pdata$?_Getcat@?$codecvt@DDU_Mbstatet@@@std@@SA_KPEAPEBVfacet@locale@2@PEBV42@@Z 000000018003c78c     libcpmt:cerr.obj
 0004:00000798       $pdata$?_Init@?$basic_filebuf@DU?$char_traits@D@std@@@std@@IEAAXPEAU_iobuf@@W4_Initfl@12@@Z 000000018003c798     libcpmt:cerr.obj
 0004:000007a4       $pdata$?_Init@ios_base@std@@IEAAXXZ 000000018003c7a4     libcpmt:cerr.obj
 0004:000007b0       $pdata$?_Initcvt@?$basic_filebuf@DU?$char_traits@D@std@@@std@@IEAAXPEBV?$codecvt@DDU_Mbstatet@@@2@@Z 000000018003c7b0     libcpmt:cerr.obj
 0004:000007bc       $pdata$?_Lock@?$basic_filebuf@DU?$char_traits@D@std@@@std@@UEAAXXZ 000000018003c7bc     libcpmt:cerr.obj
 0004:000007c8       $pdata$?_Unlock@?$basic_filebuf@DU?$char_traits@D@std@@@std@@UEAAXXZ 000000018003c7c8     libcpmt:cerr.obj
 0004:000007d4       $pdata$?append@?$basic_string@DU?$char_traits@D@std@@V?$allocator@D@2@@std@@QEAAAEAV12@_KD@Z 000000018003c7d4     libcpmt:cerr.obj
 0004:000007e0       $pdata$?imbue@?$basic_filebuf@DU?$char_traits@D@std@@@std@@MEAAXAEBVlocale@2@@Z 000000018003c7e0     libcpmt:cerr.obj
 0004:000007ec       $pdata$?overflow@?$basic_filebuf@DU?$char_traits@D@std@@@std@@MEAAHH@Z 000000018003c7ec     libcpmt:cerr.obj
 0004:000007f8       $pdata$?pbackfail@?$basic_filebuf@DU?$char_traits@D@std@@@std@@MEAAHH@Z 000000018003c7f8     libcpmt:cerr.obj
 0004:00000804       $pdata$?seekoff@?$basic_filebuf@DU?$char_traits@D@std@@@std@@MEAA?AV?$fpos@U_Mbstatet@@@2@_JHH@Z 000000018003c804     libcpmt:cerr.obj
 0004:00000810       $pdata$?seekpos@?$basic_filebuf@DU?$char_traits@D@std@@@std@@MEAA?AV?$fpos@U_Mbstatet@@@2@V32@H@Z 000000018003c810     libcpmt:cerr.obj
 0004:0000081c       $pdata$?setbuf@?$basic_filebuf@DU?$char_traits@D@std@@@std@@MEAAPEAV?$basic_streambuf@DU?$char_traits@D@std@@@2@PEAD_J@Z 000000018003c81c     libcpmt:cerr.obj
 0004:00000828       $pdata$?sync@?$basic_filebuf@DU?$char_traits@D@std@@@std@@MEAAHXZ 000000018003c828     libcpmt:cerr.obj
 0004:00000834       $pdata$?uflow@?$basic_filebuf@DU?$char_traits@D@std@@@std@@MEAAHXZ 000000018003c834     libcpmt:cerr.obj
 0004:00000840       $pdata$?uflow@?$basic_streambuf@DU?$char_traits@D@std@@@std@@MEAAHXZ 000000018003c840     libcpmt:cerr.obj
 0004:0000084c       $pdata$?underflow@?$basic_filebuf@DU?$char_traits@D@std@@@std@@MEAAHXZ 000000018003c84c     libcpmt:cerr.obj
 0004:00000858       $pdata$?xsgetn@?$basic_streambuf@DU?$char_traits@D@std@@@std@@MEAA_JPEAD_J@Z 000000018003c858     libcpmt:cerr.obj
 0004:00000864       $pdata$?xsputn@?$basic_streambuf@DU?$char_traits@D@std@@@std@@MEAA_JPEBD_J@Z 000000018003c864     libcpmt:cerr.obj
 0004:00000870       $pdata$_Getctype           000000018003c870     libcpmt:_tolower.obj
 0004:0000087c       $pdata$_Tolower            000000018003c87c     libcpmt:_tolower.obj
 0004:00000888       $pdata$_Thrd_sleep         000000018003c888     libcpmt:cthread.obj
 0004:00000894       $pdata$_Toupper            000000018003c894     libcpmt:_toupper.obj
 0004:000008a0       $pdata$_Xtime_diff_to_millis2 000000018003c8a0     libcpmt:xtime.obj
 0004:000008ac       $pdata$_Xtime_get_ticks    000000018003c8ac     libcpmt:xtime.obj
 0004:000008b8       $pdata$xtime_get           000000018003c8b8     libcpmt:xtime.obj
 0004:000008c4       $pdata$?_Atexit@@YAXP6AXXZ@Z 000000018003c8c4     libcpmt:iosptrs.obj
 0004:000008d0       $pdata$?_Addstd@ios_base@std@@SAXPEAV12@@Z 000000018003c8d0     libcpmt:ios.obj
 0004:000008dc       $pdata$?_Ios_base_dtor@ios_base@std@@CAXPEAV12@@Z 000000018003c8dc     libcpmt:ios.obj
 0004:000008e8       $pdata$?_Tidy@ios_base@std@@AEAAXXZ 000000018003c8e8     libcpmt:ios.obj
 0004:000008f4       $pdata$__crtLCMapStringA   000000018003c8f4     libcpmt:StlLCMapStringA.obj
 0004:00000900       $pdata$?initialize_pointers@@YAHXZ 000000018003c900     libcpmt:winapisupp.obj
 0004:0000090c       $pdata$__crtGetSystemTimePreciseAsFileTime 000000018003c90c     libcpmt:winapisupp.obj
 0004:00000918       $pdata$__crtInitializeCriticalSectionEx 000000018003c918     libcpmt:winapisupp.obj
 0004:00000924       $pdata$GetTableIndexFromLocaleName 000000018003c924     libcpmt:winapinls.obj
 0004:00000930       $pdata$__crtDownlevelLocaleNameToLCID 000000018003c930     libcpmt:winapinls.obj
 0004:0000093c       $pdata$__crtLCMapStringEx  000000018003c93c     libcpmt:winapinls.obj
 0004:00000954       $pdata$??2@YAPEAX_K@Z      000000018003c954     LIBCMT:new_scalar.obj
 0004:00000960       $pdata$?__scrt_initialize_thread_safe_statics@@YAHXZ 000000018003c960     LIBCMT:thread_safe_statics.obj
 0004:0000096c       $pdata$?__scrt_uninitialize_thread_safe_statics@@YAXXZ 000000018003c96c     LIBCMT:thread_safe_statics.obj
 0004:00000978       $pdata$_Init_thread_footer 000000018003c978     LIBCMT:thread_safe_statics.obj
 0004:00000984       $pdata$_Init_thread_header 000000018003c984     LIBCMT:thread_safe_statics.obj
 0004:00000990       $pdata$_Init_thread_notify 000000018003c990     LIBCMT:thread_safe_statics.obj
 0004:0000099c       $pdata$_Init_thread_wait   000000018003c99c     LIBCMT:thread_safe_statics.obj
 0004:000009a8       $pdata$__scrt_acquire_startup_lock 000000018003c9a8     LIBCMT:utility.obj
 0004:000009b4       $pdata$__scrt_dllmain_after_initialize_c 000000018003c9b4     LIBCMT:utility.obj
 0004:000009c0       $pdata$__scrt_dllmain_before_initialize_c 000000018003c9c0     LIBCMT:utility.obj
 0004:000009cc       $pdata$__scrt_dllmain_crt_thread_attach 000000018003c9cc     LIBCMT:utility.obj
 0004:000009d8       $pdata$__scrt_dllmain_crt_thread_detach 000000018003c9d8     LIBCMT:utility.obj
 0004:000009e4       $pdata$__scrt_dllmain_exception_filter 000000018003c9e4     LIBCMT:utility.obj
 0004:000009f0       $pdata$__scrt_dllmain_uninitialize_c 000000018003c9f0     LIBCMT:utility.obj
 0004:000009fc       $pdata$__scrt_dllmain_uninitialize_critical 000000018003c9fc     LIBCMT:utility.obj
 0004:00000a08       $pdata$__scrt_initialize_crt 000000018003ca08     LIBCMT:utility.obj
 0004:00000a14       $pdata$__scrt_initialize_onexit_tables 000000018003ca14     LIBCMT:utility.obj
 0004:00000a20       $pdata$__scrt_is_nonwritable_in_current_image 000000018003ca20     LIBCMT:utility.obj
 0004:00000a2c       $pdata$__scrt_release_startup_lock 000000018003ca2c     LIBCMT:utility.obj
 0004:00000a38       $pdata$__scrt_uninitialize_crt 000000018003ca38     LIBCMT:utility.obj
 0004:00000a44       $pdata$_onexit             000000018003ca44     LIBCMT:utility.obj
 0004:00000a50       $pdata$atexit              000000018003ca50     LIBCMT:utility.obj
 0004:00000a5c       $pdata$?dllmain_crt_dispatch@@YAHQEAUHINSTANCE__@@KQEAX@Z 000000018003ca5c     LIBCMT:dll_dllmain.obj
 0004:00000a68       $pdata$?dllmain_crt_process_attach@@YAHQEAUHINSTANCE__@@QEAX@Z 000000018003ca68     LIBCMT:dll_dllmain.obj
 0004:00000a74       $pdata$?dllmain_crt_process_detach@@YAH_N@Z 000000018003ca74     LIBCMT:dll_dllmain.obj
 0004:00000a80       $pdata$?dllmain_dispatch@@YAHQEAUHINSTANCE__@@KQEAX@Z 000000018003ca80     LIBCMT:dll_dllmain.obj
 0004:00000a8c       $pdata$?dllmain_raw@@YAHQEAUHINSTANCE__@@KQEAX@Z 000000018003ca8c     LIBCMT:dll_dllmain.obj
 0004:00000a98       $pdata$_DllMainCRTStartup  000000018003ca98     LIBCMT:dll_dllmain.obj
 0004:00000aa4       $pdata$??_Gtype_info@@UEAAPEAXI@Z 000000018003caa4     LIBCMT:std_type_info_static.obj
 0004:00000ab0       $pdata$__GSHandlerCheck    000000018003cab0     LIBCMT:_gshandler_.obj
 0004:00000abc       $pdata$__GSHandlerCheckCommon 000000018003cabc     LIBCMT:_gshandler_.obj
 0004:00000ac8       $pdata$__GSHandlerCheck_EH 000000018003cac8     LIBCMT:gshandlereh.obj
 0004:00000ae0       $pdata$__raise_securityfailure 000000018003cae0     LIBCMT:gs_report.obj
 0004:00000aec       $pdata$__report_gsfailure  000000018003caec     LIBCMT:gs_report.obj
 0004:00000af8       $pdata$__report_rangecheckfailure 000000018003caf8     LIBCMT:gs_report.obj
 0004:00000b04       $pdata$__report_securityfailure 000000018003cb04     LIBCMT:gs_report.obj
 0004:00000b10       $pdata$capture_current_context 000000018003cb10     LIBCMT:gs_report.obj
 0004:00000b1c       $pdata$capture_previous_context 000000018003cb1c     LIBCMT:gs_report.obj
 0004:00000b28       $pdata$??0bad_array_new_length@std@@QEAA@AEBV01@@Z 000000018003cb28     LIBCMT:throw_bad_alloc.obj
 0004:00000b34       $pdata$?_Xbad_alloc@std@@YAXXZ 000000018003cb34     libcpmt:xthrow.obj
 0004:00000b34       $pdata$?__scrt_throw_std_bad_alloc@@YAXXZ 000000018003cb34     LIBCMT:throw_bad_alloc.obj
 0004:00000b40       $pdata$?__scrt_throw_std_bad_array_new_length@@YAXXZ 000000018003cb40     LIBCMT:throw_bad_alloc.obj
 0004:00000b4c       $pdata$__scrt_fastfail     000000018003cb4c     LIBCMT:utility_desktop.obj
 0004:00000b58       $pdata$__isa_available_init 000000018003cb58     LIBCMT:_cpu_disp_.obj
 0004:00000b64       $pdata$__security_init_cookie 000000018003cb64     LIBCMT:gs_support.obj
 0004:00000b70       $pdata$__scrt_initialize_default_local_stdio_options 000000018003cb70     LIBCMT:default_local_stdio_options.obj
 0004:00000b7c       $pdata$_RTC_Initialize     000000018003cb7c     LIBCMT:_initsect_.obj
 0004:00000b88       $pdata$_RTC_Terminate      000000018003cb88     LIBCMT:_initsect_.obj
 0004:00000b94       $pdata$??1DefaultWaiterPool@platform@details@Concurrency@@QEAA@XZ 000000018003cb94     libconcrt:Platform.obj
 0004:00000ba0       $pdata$_concrt_static_cleanup 000000018003cba0     libconcrt:utils.obj
 0004:00000bac       $pdata$?InitializeCookie@Security@details@Concurrency@@SA_KXZ 000000018003cbac     libconcrt:utils.obj
 0004:00000bb8       $pdata$?CheckOneShotStaticDestruction@SchedulerBase@details@Concurrency@@SAXXZ 000000018003cbb8     libconcrt:SchedulerBase.obj
 0004:00000bc4       $pdata$?OneShotStaticDestruction@UMSThreadScheduler@details@Concurrency@@SAXXZ 000000018003cbc4     libconcrt:UMSThreadScheduler.obj
 0004:00000bdc       $pdata$__DestructExceptionObject 000000018003cbdc     libvcruntime:frame.obj
 0004:00000be8       $pdata$??0bad_exception@std@@QEAA@AEBV01@@Z 000000018003cbe8     libvcruntime:frame.obj
 0004:00000bf4       $pdata$??_Gbad_exception@std@@UEAAPEAXI@Z 000000018003cbf4     libvcruntime:frame.obj
 0004:00000bf4       $pdata$??_Gbad_alloc@std@@UEAAPEAXI@Z 000000018003cbf4     libcpmt:xthrow.obj
 0004:00000bf4       $pdata$??_Gexception@std@@UEAAPEAXI@Z 000000018003cbf4     libcpmt:xthrow.obj
 0004:00000bf4       $pdata$??_Gbad_cast@std@@UEAAPEAXI@Z 000000018003cbf4     libcpmt:cerr.obj
 0004:00000bf4       $pdata$??_Glength_error@std@@UEAAPEAXI@Z 000000018003cbf4     libcpmt:xthrow.obj
 0004:00000bf4       $pdata$??_Glogic_error@std@@UEAAPEAXI@Z 000000018003cbf4     libcpmt:xthrow.obj
 0004:00000bf4       $pdata$??_Gout_of_range@std@@UEAAPEAXI@Z 000000018003cbf4     libcpmt:xthrow.obj
 0004:00000bf4       $pdata$??_Gbad_array_new_length@std@@UEAAPEAXI@Z 000000018003cbf4     LIBCMT:throw_bad_alloc.obj
 0004:00000c00       $pdata$?CatchIt@@YAXPEAUEHExceptionRecord@@PEA_KPEAU_CONTEXT@@PEAU_xDISPATCHER_CONTEXT@@PEBU_s_FuncInfo@@PEBU_s_HandlerType@@PEBU_s_CatchableType@@PEBU_s_TryBlockMapEntry@@H1EE@Z 000000018003cc00     libvcruntime:frame.obj
 0004:00000c0c       $pdata$?ExFilterRethrow@@YAHPEAU_EXCEPTION_POINTERS@@PEAUEHExceptionRecord@@PEAH@Z 000000018003cc0c     libvcruntime:frame.obj
 0004:00000c18       $pdata$?FindHandler@@YAXPEAUEHExceptionRecord@@PEA_KPEAU_CONTEXT@@PEAU_xDISPATCHER_CONTEXT@@PEBU_s_FuncInfo@@EH1@Z 000000018003cc18     libvcruntime:frame.obj
 0004:00000c24       $pdata$?FindHandlerForForeignException@@YAXPEAUEHExceptionRecord@@PEA_KPEAU_CONTEXT@@PEAU_xDISPATCHER_CONTEXT@@PEBU_s_FuncInfo@@HH1@Z 000000018003cc24     libvcruntime:frame.obj
 0004:00000c30       $pdata$?IsInExceptionSpec@@YAEPEAUEHExceptionRecord@@PEBU_s_ESTypeList@@@Z 000000018003cc30     libvcruntime:frame.obj
 0004:00000c3c       $pdata$__BuildCatchObject  000000018003cc3c     libvcruntime:frame.obj
 0004:00000c48       $pdata$__BuildCatchObjectHelper 000000018003cc48     libvcruntime:frame.obj
 0004:00000c54       $pdata$__CxxCallCatchBlock 000000018003cc54     libvcruntime:frame.obj
 0004:00000c60       $pdata$__FrameUnwindFilter 000000018003cc60     libvcruntime:frame.obj
 0004:00000c6c       $pdata$__FrameUnwindToState 000000018003cc6c     libvcruntime:frame.obj
 0004:00000c78       $pdata$__InternalCxxFrameHandler 000000018003cc78     libvcruntime:frame.obj
 0004:00000c84       $pdata$__TypeMatch         000000018003cc84     libvcruntime:frame.obj
 0004:00000c90       $pdata$__std_terminate     000000018003cc90     libvcruntime:frame.obj
 0004:00000c9c       $pdata$_purecall           000000018003cc9c     libvcruntime:purevirt.obj
 0004:00000ca8       $pdata$__std_exception_copy 000000018003cca8     libvcruntime:std_exception.obj
 0004:00000cb4       $pdata$__std_exception_destroy 000000018003ccb4     libvcruntime:std_exception.obj
 0004:00000cc0       $pdata$_CxxThrowException  000000018003ccc0     libvcruntime:throw.obj
 0004:00000ccc       $pdata$?_ExecutionInCatch@@YAHPEAU_xDISPATCHER_CONTEXT@@PEBU_s_FuncInfo@@@Z 000000018003cccc     libvcruntime:trnsctrl.obj
 0004:00000cd8       $pdata$?_GetEstablisherFrame@@YAPEA_KPEA_KPEAU_xDISPATCHER_CONTEXT@@PEBU_s_FuncInfo@@0@Z 000000018003ccd8     libvcruntime:trnsctrl.obj
 0004:00000ce4       $pdata$?_GetRangeOfTrysToCheck@@YAPEBU_s_TryBlockMapEntry@@PEA_KPEBU_s_FuncInfo@@HHPEAI2PEAU_xDISPATCHER_CONTEXT@@@Z 000000018003cce4     libvcruntime:trnsctrl.obj
 0004:00000cf0       $pdata$?__FrameUnwindToEmptyState@@YAXPEA_KPEAU_xDISPATCHER_CONTEXT@@PEBU_s_FuncInfo@@@Z 000000018003ccf0     libvcruntime:trnsctrl.obj
 0004:00000cfc       $pdata$?__SehTransFilter@@YAHPEAU_EXCEPTION_POINTERS@@PEAUEHExceptionRecord@@PEA_KPEAU_CONTEXT@@PEAU_xDISPATCHER_CONTEXT@@PEBU_s_FuncInfo@@PEAH@Z 000000018003ccfc     libvcruntime:trnsctrl.obj
 0004:00000d08       $pdata$_CallSETranslator   000000018003cd08     libvcruntime:trnsctrl.obj
 0004:00000d14       $pdata$_CreateFrameInfo    000000018003cd14     libvcruntime:trnsctrl.obj
 0004:00000d20       $pdata$_FindAndUnlinkFrame 000000018003cd20     libvcruntime:trnsctrl.obj
 0004:00000d2c       $pdata$_GetImageBase       000000018003cd2c     libvcruntime:trnsctrl.obj
 0004:00000d38       $pdata$_GetThrowImageBase  000000018003cd38     libvcruntime:trnsctrl.obj
 0004:00000d44       $pdata$_IsExceptionObjectToBeDestroyed 000000018003cd44     libvcruntime:trnsctrl.obj
 0004:00000d50       $pdata$_SetImageBase       000000018003cd50     libvcruntime:trnsctrl.obj
 0004:00000d5c       $pdata$_SetThrowImageBase  000000018003cd5c     libvcruntime:trnsctrl.obj
 0004:00000d68       $pdata$_UnwindNestedFrames 000000018003cd68     libvcruntime:trnsctrl.obj
 0004:00000d74       $pdata$__CxxFrameHandler3  000000018003cd74     libvcruntime:trnsctrl.obj
 0004:00000d98       $pdata$?try_get_function@@YAPEAXW4function_id@?A0x679b24ab@@QEBDQEBW4module_id@2@2@Z 000000018003cd98     libvcruntime:winapi_downlevel.obj
 0004:00000da4       $pdata$__vcrt_FlsAlloc     000000018003cda4     libvcruntime:winapi_downlevel.obj
 0004:00000db0       $pdata$__vcrt_FlsFree      000000018003cdb0     libvcruntime:winapi_downlevel.obj
 0004:00000dbc       $pdata$__vcrt_FlsGetValue  000000018003cdbc     libvcruntime:winapi_downlevel.obj
 0004:00000dc8       $pdata$__vcrt_FlsSetValue  000000018003cdc8     libvcruntime:winapi_downlevel.obj
 0004:00000dd4       $pdata$__vcrt_InitializeCriticalSectionEx 000000018003cdd4     libvcruntime:winapi_downlevel.obj
 0004:00000de0       $pdata$__vcrt_uninitialize_winapi_thunks 000000018003cde0     libvcruntime:winapi_downlevel.obj
 0004:00000dec       $pdata$__vcrt_initialize   000000018003cdec     libvcruntime:initialization.obj
 0004:00000df8       $pdata$__vcrt_thread_attach 000000018003cdf8     libvcruntime:initialization.obj
 0004:00000e04       $pdata$__vcrt_thread_detach 000000018003ce04     libvcruntime:initialization.obj
 0004:00000e10       $pdata$__vcrt_uninitialize 000000018003ce10     libvcruntime:initialization.obj
 0004:00000e1c       $pdata$__vcrt_uninitialize_critical 000000018003ce1c     libvcruntime:initialization.obj
 0004:00000e28       $pdata$__C_specific_handler 000000018003ce28     libvcruntime:_chandler_.obj
 0004:00000e34       $pdata$__std_type_info_destroy_list 000000018003ce34     libvcruntime:std_type_info.obj
 0004:00000e40       $pdata$__vcrt_freefls      000000018003ce40     libvcruntime:per_thread_data.obj
 0004:00000e4c       $pdata$__vcrt_freeptd      000000018003ce4c     libvcruntime:per_thread_data.obj
 0004:00000e58       $pdata$__vcrt_getptd       000000018003ce58     libvcruntime:per_thread_data.obj
 0004:00000e64       $pdata$__vcrt_getptd_noexit 000000018003ce64     libvcruntime:per_thread_data.obj
 0004:00000e70       $pdata$__vcrt_initialize_ptd 000000018003ce70     libvcruntime:per_thread_data.obj
 0004:00000e7c       $pdata$__vcrt_uninitialize_ptd 000000018003ce7c     libvcruntime:per_thread_data.obj
 0004:00000e88       $pdata$?__GetCurrentState@@YAHPEA_KPEAU_xDISPATCHER_CONTEXT@@PEBU_s_FuncInfo@@@Z 000000018003ce88     libvcruntime:ehstate.obj
 0004:00000e94       $pdata$?__GetUnwindTryBlock@@YAHPEA_KPEAU_xDISPATCHER_CONTEXT@@PEBU_s_FuncInfo@@@Z 000000018003ce94     libvcruntime:ehstate.obj
 0004:00000ea0       $pdata$?__SetUnwindTryBlock@@YAXPEA_KPEAU_xDISPATCHER_CONTEXT@@PEBU_s_FuncInfo@@H@Z 000000018003cea0     libvcruntime:ehstate.obj
 0004:00000eac       $pdata$?__StateFromIp@@YAHPEBU_s_FuncInfo@@PEAU_xDISPATCHER_CONTEXT@@_J@Z 000000018003ceac     libvcruntime:ehstate.obj
 0004:00000ef4       $pdata$__vcrt_initialize_locks 000000018003cef4     libvcruntime:locks.obj
 0004:00000f00       $pdata$__vcrt_uninitialize_locks 000000018003cf00     libvcruntime:locks.obj
 0004:00000f0c       $pdata$__acrt_call_reportfault 000000018003cf0c     libucrt:invalid_parameter.obj
 0004:00000f18       $pdata$_invalid_parameter  000000018003cf18     libucrt:invalid_parameter.obj
 0004:00000f24       $pdata$_invalid_parameter_noinfo 000000018003cf24     libucrt:invalid_parameter.obj
 0004:00000f30       $pdata$_invalid_parameter_noinfo_noreturn 000000018003cf30     libucrt:invalid_parameter.obj
 0004:00000f3c       $pdata$_invoke_watson      000000018003cf3c     libucrt:invalid_parameter.obj
 0004:00000f48       $pdata$abort               000000018003cf48     libucrt:abort.obj
 0004:00000f54       $pdata$??0_LocaleUpdate@@QEAA@QEAU__crt_locale_pointers@@@Z 000000018003cf54     libucrt:stricmp.obj
 0004:00000f60       $pdata$_stricmp            000000018003cf60     libucrt:stricmp.obj
 0004:00000f6c       $pdata$_stricmp_l          000000018003cf6c     libucrt:stricmp.obj
 0004:00000f78       $pdata$__acrt_initialize_locks 000000018003cf78     libucrt:locks.obj
 0004:00000f84       $pdata$__acrt_uninitialize_locks 000000018003cf84     libucrt:locks.obj
 0004:00000f90       $pdata$call_wsetlocale     000000018003cf90     libucrt:setlocale.obj
 0004:00000f9c       $pdata$setlocale           000000018003cf9c     libucrt:setlocale.obj
 0004:00000fa8       $pdata$__acrt_errno_map_os_error 000000018003cfa8     libucrt:errno.obj
 0004:00000fb4       $pdata$__doserrno          000000018003cfb4     libucrt:errno.obj
 0004:00000fc0       $pdata$_errno              000000018003cfc0     libucrt:errno.obj
 0004:00000fcc       $pdata$__acrt_initialize_stdio 000000018003cfcc     libucrt:_file.obj
 0004:00000fd8       $pdata$__acrt_uninitialize_stdio 000000018003cfd8     libucrt:_file.obj
 0004:00000fe4       $pdata$_get_stream_buffer_pointers 000000018003cfe4     libucrt:_file.obj
 0004:00000ff0       $pdata$_fclose_nolock      000000018003cff0     libucrt:fclose.obj
 0004:00000ffc       $pdata$fclose              000000018003cffc     libucrt:fclose.obj
 0004:00001008       $pdata$__acrt_stdio_flush_nolock 000000018003d008     libucrt:fflush.obj
 0004:00001014       $pdata$_fflush_nolock      000000018003d014     libucrt:fflush.obj
 0004:00001020       $pdata$common_flush_all    000000018003d020     libucrt:fflush.obj
 0004:0000102c       $pdata$fflush              000000018003d02c     libucrt:fflush.obj
 0004:00001038       $pdata$_fgetc_nolock       000000018003d038     libucrt:fgetc.obj
 0004:00001044       $pdata$fgetc               000000018003d044     libucrt:fgetc.obj
 0004:00001050       $pdata$fgetpos             000000018003d050     libucrt:fgetpos.obj
 0004:0000105c       $pdata$fputc               000000018003d05c     libucrt:fputc.obj
 0004:00001068       $pdata$fsetpos             000000018003d068     libucrt:fsetpos.obj
 0004:00001074       $pdata$?common_fseek@@YAHV__crt_stdio_stream@@_JH@Z 000000018003d074     libucrt:fseek.obj
 0004:00001080       $pdata$?common_fseek_binary_mode_read_only_fast_track_nolock@@YA_NV__crt_stdio_stream@@_JH@Z 000000018003d080     libucrt:fseek.obj
 0004:0000108c       $pdata$?common_fseek_nolock@@YAHV__crt_stdio_stream@@_JH@Z 000000018003d08c     libucrt:fseek.obj
 0004:00001098       $pdata$??$?RV<lambda_5d4c3fee44080f75d5d9762853974fe0>@@AEAV<lambda_532e024f4337e6fc7ad266c2bef9f4ed>@@V<lambda_c87bdc10097eb2402edb8ba9bdf0697b>@@@?$__crt_seh_guarded_call@_K@@QEAA_K$$QEAV<lambda_5d4c3fee44080f75d5d9762853974fe0>@@AEAV<lambda_532e024f4337e6fc7ad266c2bef9f4ed>@@$$QEAV<lambda_c87bdc10097eb2402edb8ba9bdf0697b>@@@Z 000000018003d098     libucrt:fwrite.obj
 0004:000010a4       $pdata$??R<lambda_532e024f4337e6fc7ad266c2bef9f4ed>@@QEBA_KXZ 000000018003d0a4     libucrt:fwrite.obj
 0004:000010b0       $pdata$_fwrite_nolock      000000018003d0b0     libucrt:fwrite.obj
 0004:000010bc       $pdata$fwrite              000000018003d0bc     libucrt:fwrite.obj
 0004:000010c8       $pdata$??$?RV<lambda_7a5ef57ff966f610505f1d28a3d40618>@@AEAV<lambda_b721fa326cdb32351d23dfa67958c160>@@V<lambda_5e0fb27672408a07956fe59e48ccb2aa>@@@?$__crt_seh_guarded_call@H@@QEAAH$$QEAV<lambda_7a5ef57ff966f610505f1d28a3d40618>@@AEAV<lambda_b721fa326cdb32351d23dfa67958c160>@@$$QEAV<lambda_5e0fb27672408a07956fe59e48ccb2aa>@@@Z 000000018003d0c8     libucrt:setvbuf.obj
 0004:000010d4       $pdata$??R<lambda_b721fa326cdb32351d23dfa67958c160>@@QEBAHXZ 000000018003d0d4     libucrt:setvbuf.obj
 0004:000010e0       $pdata$setvbuf             000000018003d0e0     libucrt:setvbuf.obj
 0004:000010ec       $pdata$_ungetc_nolock      000000018003d0ec     libucrt:ungetc.obj
 0004:000010f8       $pdata$ungetc              000000018003d0f8     libucrt:ungetc.obj
 0004:00001104       $pdata$_calloc_base        000000018003d104     libucrt:calloc_base.obj
 0004:00001110       $pdata$__pctype_func       000000018003d110     libucrt:ctype.obj
 0004:0000111c       $pdata$islower             000000018003d11c     libucrt:_ctype.obj
 0004:00001128       $pdata$isupper             000000018003d128     libucrt:_ctype.obj
 0004:00001134       $pdata$_wcsdup             000000018003d134     libucrt:wcsdup.obj
 0004:00001140       $pdata$___lc_codepage_func 000000018003d140     libucrt:initctype.obj
 0004:0000114c       $pdata$___lc_locale_name_func 000000018003d14c     libucrt:initctype.obj
 0004:00001158       $pdata$__acrt_locale_initialize_ctype 000000018003d158     libucrt:initctype.obj
 0004:00001164       $pdata$_malloc_base        000000018003d164     libucrt:malloc_base.obj
 0004:00001170       $pdata$_realloc_base       000000018003d170     libucrt:realloc_base.obj
 0004:00001194       $pdata$_free_base          000000018003d194     libucrt:free_base.obj
 0004:000011a0       $pdata$terminate           000000018003d1a0     libucrt:terminate.obj
 0004:000011ac       $pdata$?x_ismbbtype_l@@YAHPEAU__crt_locale_pointers@@IHH@Z 000000018003d1ac     libucrt:ismbbyte.obj
 0004:000011b8       $pdata$?internal_isupper_l@@YA_NHQEAU__crt_locale_pointers@@@Z 000000018003d1b8     libucrt:tolower_toupper.obj
 0004:000011c4       $pdata$_tolower_l          000000018003d1c4     libucrt:tolower_toupper.obj
 0004:000011d0       $pdata$wcscpy_s            000000018003d1d0     libucrt:wcscpy_s.obj
 0004:000011dc       $pdata$wcsnlen             000000018003d1dc     libucrt:strnlen.obj
 0004:000011e8       $pdata$_callnewh           000000018003d1e8     libucrt:new_handler.obj
 0004:000011f4       $pdata$_query_new_handler  000000018003d1f4     libucrt:new_handler.obj
 0004:00001200       $pdata$_seh_filter_exe     000000018003d200     libucrt:exception_filter.obj
 0004:0000120c       $pdata$?common_exit@@YAXHW4_crt_exit_cleanup_mode@@W4_crt_exit_return_mode@@@Z 000000018003d20c     libucrt:exit.obj
 0004:00001218       $pdata$?exit_or_terminate_process@@YAXI@Z 000000018003d218     libucrt:exit.obj
 0004:00001224       $pdata$?try_cor_exit_process@@YAXI@Z 000000018003d224     libucrt:exit.obj
 0004:00001230       $pdata$??$parse_command_line@D@@YAXPEADPEAPEAD0PEA_K2@Z 000000018003d230     libucrt:argv_parsing.obj
 0004:0000123c       $pdata$__acrt_allocate_buffer_for_argv 000000018003d23c     libucrt:argv_parsing.obj
 0004:00001248       $pdata$_configure_narrow_argv 000000018003d248     libucrt:argv_parsing.obj
 0004:00001254       $pdata$??$common_initialize_environment_nolock@D@@YAHXZ 000000018003d254     libucrt:environment_initialization.obj
 0004:00001260       $pdata$??$create_environment@D@@YAQEAPEADQEAD@Z 000000018003d260     libucrt:environment_initialization.obj
 0004:0000126c       $pdata$??$free_environment@D@@YAXQEAPEAD@Z 000000018003d26c     libucrt:environment_initialization.obj
 0004:0000126c       $pdata$??$free_environment@_W@@YAXQEAPEA_W@Z 000000018003d26c     libucrt:environment_initialization.obj
 0004:00001278       $pdata$??$uninitialize_environment_internal@D@@YAXAEAPEAPEAD@Z 000000018003d278     libucrt:environment_initialization.obj
 0004:00001284       $pdata$??$uninitialize_environment_internal@_W@@YAXAEAPEAPEA_W@Z 000000018003d284     libucrt:environment_initialization.obj
 0004:00001290       $pdata$__dcrt_uninitialize_environments_nolock 000000018003d290     libucrt:environment_initialization.obj
 0004:0000129c       $pdata$??$?RV<lambda_b8c45f8f788dd370798f47cfe8ac3a86>@@AEAV<lambda_4e60a939b0d047cfe11ddc22648dfba9>@@V<lambda_332c3edc96d0294ec56c57d38c1cdfd5>@@@?$__crt_seh_guarded_call@H@@QEAAH$$QEAV<lambda_b8c45f8f788dd370798f47cfe8ac3a86>@@AEAV<lambda_4e60a939b0d047cfe11ddc22648dfba9>@@$$QEAV<lambda_332c3edc96d0294ec56c57d38c1cdfd5>@@@Z 000000018003d29c     libucrt:onexit.obj
 0004:000012a8       $pdata$??$?RV<lambda_e24bbb7b643b32fcea6fa61b31d4c984>@@AEAV<lambda_275893d493268fdec8709772e3fcec0e>@@V<lambda_9d71df4d7cf3f480f8d633942495c3b0>@@@?$__crt_seh_guarded_call@H@@QEAAH$$QEAV<lambda_e24bbb7b643b32fcea6fa61b31d4c984>@@AEAV<lambda_275893d493268fdec8709772e3fcec0e>@@$$QEAV<lambda_9d71df4d7cf3f480f8d633942495c3b0>@@@Z 000000018003d2a8     libucrt:onexit.obj
 0004:000012b4       $pdata$??R<lambda_4e60a939b0d047cfe11ddc22648dfba9>@@QEBAHXZ 000000018003d2b4     libucrt:onexit.obj
 0004:000012c0       $pdata$_execute_onexit_table 000000018003d2c0     libucrt:onexit.obj
 0004:000012cc       $pdata$_register_onexit_function 000000018003d2cc     libucrt:onexit.obj
 0004:000012d8       $pdata$initialize_c        000000018003d2d8     libucrt:initialization.obj
 0004:000012e4       $pdata$uninitialize_environment 000000018003d2e4     libucrt:initialization.obj
 0004:000012f0       $pdata$initialize_pointers 000000018003d2f0     libucrt:initialization.obj
 0004:000012fc       $pdata$uninitialize_allocated_memory 000000018003d2fc     libucrt:initialization.obj
 0004:00001308       $pdata$__acrt_thread_attach 000000018003d308     libucrt:initialization.obj
 0004:00001314       $pdata$__acrt_thread_detach 000000018003d314     libucrt:initialization.obj
 0004:00001320       $pdata$__acrt_uninitialize_critical 000000018003d320     libucrt:initialization.obj
 0004:0000132c       $pdata$_initterm           000000018003d32c     libucrt:initterm.obj
 0004:00001338       $pdata$_initterm_e         000000018003d338     libucrt:initterm.obj
 0004:00001350       $pdata$sqrt                000000018003d350     libucrt:sqrt.obj
 0004:0000135c       $pdata$wcsncpy_s           000000018003d35c     libucrt:wcsncpy_s.obj
 0004:00001368       $pdata$strcpy_s            000000018003d368     libucrt:strcpy_s.obj
 0004:00001374       $pdata$??$parse_integer@KV?$c_string_character_source@_W@__crt_strtox@@@__crt_strtox@@YAKQEAU__crt_locale_pointers@@V?$c_string_character_source@_W@0@H_N@Z 000000018003d374     libucrt:atox.obj
 0004:00001380       $pdata$_wtol               000000018003d380     libucrt:atox.obj
 0004:0000138c       $pdata$??$?RV<lambda_46352004c1216016012b18bd6f87e700>@@AEAV<lambda_3bd07e1a1191394380780325891bf33f>@@V<lambda_334532d3f185bcaa59b5be82d7d22bff>@@@?$__crt_seh_guarded_call@X@@QEAAX$$QEAV<lambda_46352004c1216016012b18bd6f87e700>@@AEAV<lambda_3bd07e1a1191394380780325891bf33f>@@$$QEAV<lambda_334532d3f185bcaa59b5be82d7d22bff>@@@Z 000000018003d38c     libucrt:per_thread_data.obj
 0004:00001398       $pdata$??$?RV<lambda_5e887d1dcbef67a5eb4283622ba103bf>@@AEAV<lambda_4466841279450cc726390878d4a41900>@@V<lambda_341c25c0346d94847f1f3c463c57e077>@@@?$__crt_seh_guarded_call@X@@QEAAX$$QEAV<lambda_5e887d1dcbef67a5eb4283622ba103bf>@@AEAV<lambda_4466841279450cc726390878d4a41900>@@$$QEAV<lambda_341c25c0346d94847f1f3c463c57e077>@@@Z 000000018003d398     libucrt:per_thread_data.obj
 0004:000013a4       $pdata$??$?RV<lambda_72d1df2b273a38828b1ce30cbf4cdab5>@@AEAV<lambda_876a65b173b8412d3a47c70a915b0cf4>@@V<lambda_41932305e351933ebe8f8be3ed8bb5dc>@@@?$__crt_seh_guarded_call@X@@QEAAX$$QEAV<lambda_72d1df2b273a38828b1ce30cbf4cdab5>@@AEAV<lambda_876a65b173b8412d3a47c70a915b0cf4>@@$$QEAV<lambda_41932305e351933ebe8f8be3ed8bb5dc>@@@Z 000000018003d3a4     libucrt:per_thread_data.obj
 0004:000013b0       $pdata$??$?RV<lambda_fb3a7dec4e47f37f22dae91bb15c9095>@@AEAV<lambda_698284760c8add0bfb0756c19673e34b>@@V<lambda_dfb8eca1e75fef3034a8fb18dd509707>@@@?$__crt_seh_guarded_call@X@@QEAAX$$QEAV<lambda_fb3a7dec4e47f37f22dae91bb15c9095>@@AEAV<lambda_698284760c8add0bfb0756c19673e34b>@@$$QEAV<lambda_dfb8eca1e75fef3034a8fb18dd509707>@@@Z 000000018003d3b0     libucrt:per_thread_data.obj
 0004:000013bc       $pdata$?construct_ptd_array@@YAXQEAU__acrt_ptd@@@Z 000000018003d3bc     libucrt:per_thread_data.obj
 0004:000013c8       $pdata$?destroy_fls@@YAXPEAX@Z 000000018003d3c8     libucrt:per_thread_data.obj
 0004:000013d4       $pdata$?destroy_ptd_array@@YAXQEAU__acrt_ptd@@@Z 000000018003d3d4     libucrt:per_thread_data.obj
 0004:000013e0       $pdata$?replace_current_thread_locale_nolock@@YAXQEAU__acrt_ptd@@QEAU__crt_locale_data@@@Z 000000018003d3e0     libucrt:per_thread_data.obj
 0004:000013ec       $pdata$__acrt_freeptd      000000018003d3ec     libucrt:per_thread_data.obj
 0004:000013f8       $pdata$__acrt_getptd       000000018003d3f8     libucrt:per_thread_data.obj
 0004:00001404       $pdata$__acrt_getptd_noexit 000000018003d404     libucrt:per_thread_data.obj
 0004:00001410       $pdata$__acrt_initialize_ptd 000000018003d410     libucrt:per_thread_data.obj
 0004:0000141c       $pdata$__acrt_uninitialize_ptd 000000018003d41c     libucrt:per_thread_data.obj
 0004:00001428       $pdata$??$?RV<lambda_c36588078e9f5dfd39652860aa6b3aaf>@@AEAV<lambda_ec61778202f4f5fc7e7711acc23c3bca>@@V<lambda_dc9d2797ccde5d239b4a0efae8ebd7db>@@@?$__crt_seh_guarded_call@P6AXH@Z@@QEAAP6AXH@Z$$QEAV<lambda_c36588078e9f5dfd39652860aa6b3aaf>@@AEAV<lambda_ec61778202f4f5fc7e7711acc23c3bca>@@$$QEAV<lambda_dc9d2797ccde5d239b4a0efae8ebd7db>@@@Z 000000018003d428     libucrt:signal.obj
 0004:00001434       $pdata$__acrt_get_sigabrt_handler 000000018003d434     libucrt:signal.obj
 0004:00001440       $pdata$raise               000000018003d440     libucrt:signal.obj
 0004:0000144c       $pdata$__acrt_update_locale_info 000000018003d44c     libucrt:locale_update.obj
 0004:00001458       $pdata$__acrt_update_multibyte_info 000000018003d458     libucrt:locale_update.obj
 0004:00001464       $pdata$??$?RV<lambda_5df02c53a8f32f81fd64e5bbb78039f1>@@AEAV<lambda_2af78c5f5901b1372d98f9ab3177dfa6>@@AEAV<lambda_f51fe5fd7c79a33db34fc9310f277369>@@@?$__crt_seh_guarded_call@X@@QEAAX$$QEAV<lambda_5df02c53a8f32f81fd64e5bbb78039f1>@@AEAV<lambda_2af78c5f5901b1372d98f9ab3177dfa6>@@AEAV<lambda_f51fe5fd7c79a33db34fc9310f277369>@@@Z 000000018003d464     libucrt:wsetlocale.obj
 0004:00001470       $pdata$??$?RV<lambda_d67e8342c384adda8f857579ab50b2ae>@@AEAV<lambda_30712929f77e709619002f448b6a9510>@@V<lambda_4525336fd7e478d965fb7ca7a337cad8>@@@?$__crt_seh_guarded_call@X@@QEAAX$$QEAV<lambda_d67e8342c384adda8f857579ab50b2ae>@@AEAV<lambda_30712929f77e709619002f448b6a9510>@@$$QEAV<lambda_4525336fd7e478d965fb7ca7a337cad8>@@@Z 000000018003d470     libucrt:wsetlocale.obj
 0004:0000147c       $pdata$??R<lambda_2af78c5f5901b1372d98f9ab3177dfa6>@@QEBAXXZ 000000018003d47c     libucrt:wsetlocale.obj
 0004:00001488       $pdata$__acrt_copy_locale_name 000000018003d488     libucrt:wsetlocale.obj
 0004:00001494       $pdata$__acrt_uninitialize_locale 000000018003d494     libucrt:wsetlocale.obj
 0004:000014a0       $pdata$__lc_lctowcs        000000018003d4a0     libucrt:wsetlocale.obj
 0004:000014ac       $pdata$__lc_wcstolc        000000018003d4ac     libucrt:wsetlocale.obj
 0004:000014b8       $pdata$_copytlocinfo_nolock 000000018003d4b8     libucrt:wsetlocale.obj
 0004:000014c4       $pdata$_expandlocale       000000018003d4c4     libucrt:wsetlocale.obj
 0004:000014d0       $pdata$_wcscats            000000018003d4d0     libucrt:wsetlocale.obj
 0004:000014dc       $pdata$_wsetlocale         000000018003d4dc     libucrt:wsetlocale.obj
 0004:000014e8       $pdata$_wsetlocale_get_all 000000018003d4e8     libucrt:wsetlocale.obj
 0004:000014f4       $pdata$_wsetlocale_nolock  000000018003d4f4     libucrt:wsetlocale.obj
 0004:00001500       $pdata$_wsetlocale_set_cat 000000018003d500     libucrt:wsetlocale.obj
 0004:0000150c       $pdata$?<helper_func_cdecl>@<lambda_e2bb8337c48846e80c921ea5ddadc92d>@@CAHPEA_W@Z 000000018003d50c     libucrt:winapi_thunks.obj
 0004:00001518       $pdata$??$?RV<lambda_630b2aca97f6d20d5b5ea6529ea6b6af>@@AEAV<lambda_af91936f1d075d609f72d9d8cba980af>@@V<lambda_e82fa975f615b5c7c7b0e4d178fdae67>@@@?$__crt_seh_guarded_call@H@@QEAAH$$QEAV<lambda_630b2aca97f6d20d5b5ea6529ea6b6af>@@AEAV<lambda_af91936f1d075d609f72d9d8cba980af>@@$$QEAV<lambda_e82fa975f615b5c7c7b0e4d178fdae67>@@@Z 000000018003d518     libucrt:winapi_thunks.obj
 0004:00001524       $pdata$?try_get_function@@YAPEAXW4function_id@?A0x63058377@@QEBDQEBW4module_id@2@2@Z 000000018003d524     libucrt:winapi_thunks.obj
 0004:00001530       $pdata$__acrt_EnumSystemLocalesEx 000000018003d530     libucrt:winapi_thunks.obj
 0004:0000153c       $pdata$__acrt_FlsAlloc     000000018003d53c     libucrt:winapi_thunks.obj
 0004:00001548       $pdata$__acrt_FlsFree      000000018003d548     libucrt:winapi_thunks.obj
 0004:00001554       $pdata$__acrt_FlsGetValue  000000018003d554     libucrt:winapi_thunks.obj
 0004:00001560       $pdata$__acrt_FlsSetValue  000000018003d560     libucrt:winapi_thunks.obj
 0004:0000156c       $pdata$__acrt_GetLocaleInfoEx 000000018003d56c     libucrt:winapi_thunks.obj
 0004:00001578       $pdata$__acrt_GetUserDefaultLocaleName 000000018003d578     libucrt:winapi_thunks.obj
 0004:00001584       $pdata$__acrt_InitializeCriticalSectionEx 000000018003d584     libucrt:winapi_thunks.obj
 0004:00001590       $pdata$__acrt_IsValidLocaleName 000000018003d590     libucrt:winapi_thunks.obj
 0004:0000159c       $pdata$__acrt_LCIDToLocaleName 000000018003d59c     libucrt:winapi_thunks.obj
 0004:000015a8       $pdata$__acrt_LCMapStringEx 000000018003d5a8     libucrt:winapi_thunks.obj
 0004:000015b4       $pdata$__acrt_LocaleNameToLCID 000000018003d5b4     libucrt:winapi_thunks.obj
 0004:000015c0       $pdata$__acrt_can_use_vista_locale_apis 000000018003d5c0     libucrt:winapi_thunks.obj
 0004:000015cc       $pdata$__acrt_initialize_winapi_thunks 000000018003d5cc     libucrt:winapi_thunks.obj
 0004:000015d8       $pdata$__acrt_is_packaged_app 000000018003d5d8     libucrt:winapi_thunks.obj
 0004:000015e4       $pdata$__acrt_uninitialize_winapi_thunks 000000018003d5e4     libucrt:winapi_thunks.obj
 0004:000015f0       $pdata$?_mbstowcs_l_helper@@YA_KPEA_WPEBD_KPEAU__crt_locale_pointers@@@Z 000000018003d5f0     libucrt:mbstowcs.obj
 0004:000015fc       $pdata$_mbstowcs_s_l       000000018003d5fc     libucrt:mbstowcs.obj
 0004:00001608       $pdata$mbstowcs_s          000000018003d608     libucrt:mbstowcs.obj
 0004:00001614       $pdata$?_wcstombs_l_helper@@YA_KPEADPEB_W_KPEAU__crt_locale_pointers@@@Z 000000018003d614     libucrt:wcstombs.obj
 0004:00001620       $pdata$_wcstombs_s_l       000000018003d620     libucrt:wcstombs.obj
 0004:0000162c       $pdata$_fcloseall          000000018003d62c     libucrt:closeall.obj
 0004:00001638       $pdata$__acrt_stdio_free_buffer_nolock 000000018003d638     libucrt:_freebuf.obj
 0004:00001644       $pdata$?initialize_inherited_file_handles_nolock@@YAXXZ 000000018003d644     libucrt:ioinit.obj
 0004:00001650       $pdata$?initialize_stdio_handles_nolock@@YAXXZ 000000018003d650     libucrt:ioinit.obj
 0004:0000165c       $pdata$__acrt_initialize_lowio 000000018003d65c     libucrt:ioinit.obj
 0004:00001668       $pdata$__acrt_uninitialize_lowio 000000018003d668     libucrt:ioinit.obj
 0004:00001674       $pdata$??$?RV<lambda_bfedae4ebbf01fab1bb6dcc6a9e276e0>@@AEAV<lambda_2fe9b910cf3cbf4a0ab98a02ba45b3ec>@@V<lambda_237c231691f317818eb88cc1d5d642d6>@@@?$__crt_seh_guarded_call@H@@QEAAH$$QEAV<lambda_bfedae4ebbf01fab1bb6dcc6a9e276e0>@@AEAV<lambda_2fe9b910cf3cbf4a0ab98a02ba45b3ec>@@$$QEAV<lambda_237c231691f317818eb88cc1d5d642d6>@@@Z 000000018003d674     libucrt:close.obj
 0004:00001680       $pdata$_close              000000018003d680     libucrt:close.obj
 0004:0000168c       $pdata$_close_nolock       000000018003d68c     libucrt:close.obj
 0004:00001698       $pdata$_fileno             000000018003d698     libucrt:fileno.obj
 0004:000016a4       $pdata$??$?RV<lambda_b521505b218e5242e90febf6bfebc422>@@AEAV<lambda_6978c1fb23f02e42e1d9e99668cc68aa>@@V<lambda_314360699dd331753a4119843814e9a7>@@@?$__crt_seh_guarded_call@H@@QEAAH$$QEAV<lambda_b521505b218e5242e90febf6bfebc422>@@AEAV<lambda_6978c1fb23f02e42e1d9e99668cc68aa>@@$$QEAV<lambda_314360699dd331753a4119843814e9a7>@@@Z 000000018003d6a4     libucrt:commit.obj
 0004:000016b0       $pdata$_commit             000000018003d6b0     libucrt:commit.obj
 0004:000016bc       $pdata$?write_double_translated_ansi_nolock@@YA?AUwrite_result@?A0x9c548279@@HQEBDI@Z 000000018003d6bc     libucrt:write.obj
 0004:000016c8       $pdata$?write_text_ansi_nolock@@YA?AUwrite_result@?A0x9c548279@@HQEBDI@Z 000000018003d6c8     libucrt:write.obj
 0004:000016d4       $pdata$?write_text_utf16le_nolock@@YA?AUwrite_result@?A0x9c548279@@HQEBDI@Z 000000018003d6d4     libucrt:write.obj
 0004:000016e0       $pdata$?write_text_utf8_nolock@@YA?AUwrite_result@?A0x9c548279@@HQEBDI@Z 000000018003d6e0     libucrt:write.obj
 0004:000016ec       $pdata$_write              000000018003d6ec     libucrt:write.obj
 0004:000016f8       $pdata$_write_nolock       000000018003d6f8     libucrt:write.obj
 0004:00001704       $pdata$??$common_refill_and_read_nolock@D@@YAHV__crt_stdio_stream@@@Z 000000018003d704     libucrt:_filbuf.obj
 0004:00001710       $pdata$??$common_ftell@_J@@YA_JV__crt_stdio_stream@@@Z 000000018003d710     libucrt:ftell.obj
 0004:0000171c       $pdata$??$common_ftell_nolock@_J@@YA_JV__crt_stdio_stream@@@Z 000000018003d71c     libucrt:ftell.obj
 0004:00001728       $pdata$?common_ftell_read_mode_nolock@@YA_JV__crt_stdio_stream@@_J1@Z 000000018003d728     libucrt:ftell.obj
 0004:00001734       $pdata$?common_ftell_translated_utf8_nolock@@YA_JV__crt_stdio_stream@@_J@Z 000000018003d734     libucrt:ftell.obj
 0004:00001740       $pdata$??$write_buffer_nolock@D@@YA_NDV__crt_stdio_stream@@@Z 000000018003d740     libucrt:_flsbuf.obj
 0004:0000174c       $pdata$__acrt_stdio_flush_and_write_narrow_nolock 000000018003d74c     libucrt:_flsbuf.obj
 0004:00001758       $pdata$??$common_lseek@_J@@YA_JH_JH@Z 000000018003d758     libucrt:lseek.obj
 0004:00001764       $pdata$??$common_lseek_nolock@_J@@YA_JH_JH@Z 000000018003d764     libucrt:lseek.obj
 0004:00001770       $pdata$__acrt_stdio_begin_temporary_buffering_nolock 000000018003d770     libucrt:_sftbuf.obj
 0004:0000177c       $pdata$__acrt_stdio_end_temporary_buffering_nolock 000000018003d77c     libucrt:_sftbuf.obj
 0004:00001788       $pdata$__acrt_stdio_allocate_buffer_nolock 000000018003d788     libucrt:_getbuf.obj
 0004:00001794       $pdata$__acrt_initialize_heap 000000018003d794     libucrt:heap_handle.obj
 0004:000017a0       $pdata$_isctype_l          000000018003d7a0     libucrt:isctype.obj
 0004:000017ac       $pdata$?InternalGetLocaleInfoA@@YAHQEAU__crt_locale_pointers@@QEB_WKQEADH@Z 000000018003d7ac     libucrt:getlocaleinfoa.obj
 0004:000017b8       $pdata$__acrt_GetLocaleInfoA 000000018003d7b8     libucrt:getlocaleinfoa.obj
 0004:000017c4       $pdata$__acrt_GetStringTypeA 000000018003d7c4     libucrt:getstringtypea.obj
 0004:000017d0       $pdata$?__acrt_LCMapStringA_stat@@YAHPEAU__crt_locale_pointers@@PEB_WKPEBDHPEADHHH@Z 000000018003d7d0     libucrt:lcmapstringa.obj
 0004:000017dc       $pdata$__acrt_LCMapStringA 000000018003d7dc     libucrt:lcmapstringa.obj
 0004:000017e8       $pdata$iswctype            000000018003d7e8     libucrt:iswctype.obj
 0004:000017f4       $pdata$_raise_exc          000000018003d7f4     libucrt:fpexcept.obj
 0004:00001800       $pdata$_raise_exc_ex       000000018003d800     libucrt:fpexcept.obj
 0004:0000180c       $pdata$_raise_excf         000000018003d80c     libucrt:fpexcept.obj
 0004:00001818       $pdata$_set_errno_from_matherr 000000018003d818     libucrt:fpexcept.obj
 0004:00001824       $pdata$_clrfp              000000018003d824     libucrt:fpctrl.obj
 0004:00001830       $pdata$_ctrlfp             000000018003d830     libucrt:fpctrl.obj
 0004:0000183c       $pdata$_set_statfp         000000018003d83c     libucrt:fpctrl.obj
 0004:00001848       $pdata$_statfp             000000018003d848     libucrt:fpctrl.obj
 0004:00001854       $pdata$_mbtowc_l           000000018003d854     libucrt:mbtowc.obj
 0004:00001860       $pdata$__acrt_initialize_fma3 000000018003d860     libucrt:fma3_available.obj
 0004:0000186c       $pdata$_pow_special        000000018003d86c     libucrt:pow_special.obj
 0004:00001878       $pdata$_powf_special       000000018003d878     libucrt:pow_special.obj
 0004:00001884       $pdata$_wcsicmp            000000018003d884     libucrt:wcsicmp.obj
 0004:00001890       $pdata$_wcsicmp_l          000000018003d890     libucrt:wcsicmp.obj
 0004:0000189c       $pdata$_isleadbyte_l       000000018003d89c     libucrt:_wctype.obj
 0004:000018a8       $pdata$??$common_expand_argv_wildcards@D@@YAHQEAPEADQEAPEAPEAD@Z 000000018003d8a8     libucrt:argv_wildcards.obj
 0004:000018b4       $pdata$??$copy_and_add_argument_to_buffer@D@@YAHQEBD0_KAEAV?$argument_list@D@?A0xca0879c4@@@Z 000000018003d8b4     libucrt:argv_wildcards.obj
 0004:000018c0       $pdata$??$expand_argument_wildcards@D@@YAHQEAD0AEAV?$argument_list@D@?A0xca0879c4@@@Z 000000018003d8c0     libucrt:argv_wildcards.obj
 0004:000018cc       $pdata$?expand_if_necessary@?$argument_list@D@?A0xca0879c4@@AEAAHXZ 000000018003d8cc     libucrt:argv_wildcards.obj
 0004:000018d8       $pdata$??$?RV<lambda_99476a1ad63dd22509b5d3e65b0ffc95>@@AEAV<lambda_ad1ced32f4ac17aa236e5ef05d6b3b7c>@@V<lambda_f7424dd8d45958661754dc4f2697e9c3>@@@?$__crt_seh_guarded_call@X@@QEAAX$$QEAV<lambda_99476a1ad63dd22509b5d3e65b0ffc95>@@AEAV<lambda_ad1ced32f4ac17aa236e5ef05d6b3b7c>@@$$QEAV<lambda_f7424dd8d45958661754dc4f2697e9c3>@@@Z 000000018003d8d8     libucrt:mbctype.obj
 0004:000018e4       $pdata$??R<lambda_ad1ced32f4ac17aa236e5ef05d6b3b7c>@@QEBAXXZ 000000018003d8e4     libucrt:mbctype.obj
 0004:000018f0       $pdata$?getSystemCP@@YAHH@Z 000000018003d8f0     libucrt:mbctype.obj
 0004:000018fc       $pdata$?setSBCS@@YAXPEAU__crt_multibyte_data@@@Z 000000018003d8fc     libucrt:mbctype.obj
 0004:00001908       $pdata$?setSBUpLow@@YAXPEAU__crt_multibyte_data@@@Z 000000018003d908     libucrt:mbctype.obj
 0004:00001914       $pdata$?setmbcp_internal@@YAHH_N@Z 000000018003d914     libucrt:mbctype.obj
 0004:00001920       $pdata$__acrt_initialize_multibyte 000000018003d920     libucrt:mbctype.obj
 0004:0000192c       $pdata$__acrt_update_thread_multibyte_data 000000018003d92c     libucrt:mbctype.obj
 0004:00001938       $pdata$_setmbcp_nolock     000000018003d938     libucrt:mbctype.obj
 0004:00001944       $pdata$__acrt_initialize_command_line 000000018003d944     libucrt:argv_data.obj
 0004:00001950       $pdata$__dcrt_get_narrow_environment_from_os 000000018003d950     libucrt:get_environment_from_os.obj
 0004:0000195c       $pdata$_recalloc_base      000000018003d95c     libucrt:recalloc.obj
 0004:00001968       $pdata$__acrt_execute_initializers 000000018003d968     libucrt:shared_initialization.obj
 0004:00001974       $pdata$__acrt_execute_uninitializers 000000018003d974     libucrt:shared_initialization.obj
 0004:00001980       $pdata$__acrt_invoke_user_matherr 000000018003d980     libucrt:matherr.obj
 0004:0000198c       $pdata$_exp_special        000000018003d98c     libucrt:exp_special.obj
 0004:00001998       $pdata$_call_matherr       000000018003d998     libucrt:libm_error.obj
 0004:000019a4       $pdata$_exception_enabled  000000018003d9a4     libucrt:libm_error.obj
 0004:000019b0       $pdata$_handle_error       000000018003d9b0     libucrt:libm_error.obj
 0004:000019bc       $pdata$_handle_errorf      000000018003d9bc     libucrt:libm_error.obj
 0004:000019c8       $pdata$__acrt_free_locale  000000018003d9c8     libucrt:locale_refcounting.obj
 0004:000019d4       $pdata$__acrt_locale_free_lc_time_if_unreferenced 000000018003d9d4     libucrt:locale_refcounting.obj
 0004:000019e0       $pdata$__acrt_release_locale_ref 000000018003d9e0     libucrt:locale_refcounting.obj
 0004:000019ec       $pdata$__acrt_update_thread_locale_data 000000018003d9ec     libucrt:locale_refcounting.obj
 0004:000019f8       $pdata$_updatetlocinfoEx_nolock 000000018003d9f8     libucrt:locale_refcounting.obj
 0004:00001a04       $pdata$__acrt_locale_free_monetary 000000018003da04     libucrt:initmon.obj
 0004:00001a10       $pdata$__acrt_locale_initialize_monetary 000000018003da10     libucrt:initmon.obj
 0004:00001a1c       $pdata$__acrt_locale_free_numeric 000000018003da1c     libucrt:initnum.obj
 0004:00001a28       $pdata$__acrt_locale_initialize_numeric 000000018003da28     libucrt:initnum.obj
 0004:00001a34       $pdata$?free_crt_array_internal@@YAXQEAPEBX_K@Z 000000018003da34     libucrt:inittime.obj
 0004:00001a40       $pdata$?initialize_lc_time@@YA_NQEAU__crt_lc_time_data@@QEAU__crt_locale_data@@@Z 000000018003da40     libucrt:inittime.obj
 0004:00001a4c       $pdata$__acrt_locale_free_time 000000018003da4c     libucrt:inittime.obj
 0004:00001a58       $pdata$__acrt_locale_initialize_time 000000018003da58     libucrt:inittime.obj
 0004:00001a64       $pdata$wcscat_s            000000018003da64     libucrt:wcscat_s.obj
 0004:00001a70       $pdata$GetLocaleNameFromDefault 000000018003da70     libucrt:get_qualified_locale.obj
 0004:00001a7c       $pdata$GetLocaleNameFromLangCountry 000000018003da7c     libucrt:get_qualified_locale.obj
 0004:00001a88       $pdata$GetLocaleNameFromLanguage 000000018003da88     libucrt:get_qualified_locale.obj
 0004:00001a94       $pdata$LangCountryEnumProcEx 000000018003da94     libucrt:get_qualified_locale.obj
 0004:00001aa0       $pdata$LanguageEnumProcEx  000000018003daa0     libucrt:get_qualified_locale.obj
 0004:00001aac       $pdata$ProcessCodePage     000000018003daac     libucrt:get_qualified_locale.obj
 0004:00001ab8       $pdata$TestDefaultCountry  000000018003dab8     libucrt:get_qualified_locale.obj
 0004:00001ac4       $pdata$TranslateName       000000018003dac4     libucrt:get_qualified_locale.obj
 0004:00001ad0       $pdata$__acrt_get_qualified_locale 000000018003dad0     libucrt:get_qualified_locale.obj
 0004:00001adc       $pdata$CountryEnumProc     000000018003dadc     libucrt:getqloc_downlevel.obj
 0004:00001ae8       $pdata$GetLcidFromLangCountry 000000018003dae8     libucrt:getqloc_downlevel.obj
 0004:00001af4       $pdata$GetLcidFromLanguage 000000018003daf4     libucrt:getqloc_downlevel.obj
 0004:00001b00       $pdata$LangCountryEnumProc 000000018003db00     libucrt:getqloc_downlevel.obj
 0004:00001b0c       $pdata$LanguageEnumProc    000000018003db0c     libucrt:getqloc_downlevel.obj
 0004:00001b18       $pdata$ProcessCodePage     000000018003db18     libucrt:getqloc_downlevel.obj
 0004:00001b24       $pdata$TestDefaultLanguage 000000018003db24     libucrt:getqloc_downlevel.obj
 0004:00001b30       $pdata$TranslateName       000000018003db30     libucrt:getqloc_downlevel.obj
 0004:00001b3c       $pdata$__acrt_get_qualified_locale_downlevel 000000018003db3c     libucrt:getqloc_downlevel.obj
 0004:00001b48       $pdata$?GetTableIndexFromLocaleName@@YAHPEB_W@Z 000000018003db48     libucrt:lcidtoname_downlevel.obj
 0004:00001b54       $pdata$__acrt_DownlevelLCIDToLocaleName 000000018003db54     libucrt:lcidtoname_downlevel.obj
 0004:00001b60       $pdata$__acrt_DownlevelLocaleNameToLCID 000000018003db60     libucrt:lcidtoname_downlevel.obj
 0004:00001b6c       $pdata$__acrt_lowio_create_handle_array 000000018003db6c     libucrt:osfinfo.obj
 0004:00001b78       $pdata$__acrt_lowio_destroy_handle_array 000000018003db78     libucrt:osfinfo.obj
 0004:00001b84       $pdata$__acrt_lowio_ensure_fh_exists 000000018003db84     libucrt:osfinfo.obj
 0004:00001b90       $pdata$_free_osfhnd        000000018003db90     libucrt:osfinfo.obj
 0004:00001b9c       $pdata$_get_osfhandle      000000018003db9c     libucrt:osfinfo.obj
 0004:00001ba8       $pdata$_isatty             000000018003dba8     libucrt:isatty.obj
 0004:00001bb4       $pdata$_putwch_nolock      000000018003dbb4     libucrt:putwch.obj
 0004:00001bc0       $pdata$??$translate_text_mode_nolock@_W@@YAHHQEA_W_K@Z 000000018003dbc0     libucrt:read.obj
 0004:00001bcc       $pdata$?translate_ansi_or_utf8_nolock@@YAHHQEAD_KQEA_W1@Z 000000018003dbcc     libucrt:read.obj
 0004:00001bd8       $pdata$_read               000000018003dbd8     libucrt:read.obj
 0004:00001be4       $pdata$_read_nolock        000000018003dbe4     libucrt:read.obj
 0004:00001bf0       $pdata$strncpy_s           000000018003dbf0     libucrt:strncpy_s.obj
 0004:00001c08       $pdata$_towlower_l         000000018003dc08     libucrt:towlower.obj
 0004:00001c14       $pdata$?shortsort@@YAXPEAD0_KP6AHPEBX2@Z@Z 000000018003dc14     libucrt:qsort.obj
 0004:00001c20       $pdata$2$?shortsort@@YAXPEAD0_KP6AHPEBX2@Z@Z 000000018003dc20     libucrt:qsort.obj
 0004:00001c2c       $pdata$3$?shortsort@@YAXPEAD0_KP6AHPEBX2@Z@Z 000000018003dc2c     libucrt:qsort.obj
 0004:00001c38       $pdata$qsort               000000018003dc38     libucrt:qsort.obj
 0004:00001c44       $pdata$4$qsort             000000018003dc44     libucrt:qsort.obj
 0004:00001c50       $pdata$5$qsort             000000018003dc50     libucrt:qsort.obj
 0004:00001c5c       $pdata$strpbrk             000000018003dc5c     libucrt:strpbrk.obj
 0004:00001c68       $pdata$_mbsdec_l           000000018003dc68     libucrt:mbsdec.obj
 0004:00001c74       $pdata$?initialize_multibyte@@YAHXZ 000000018003dc74     libucrt:multibyte_initializer.obj
 0004:00001c80       $pdata$_msize              000000018003dc80     libucrt:msize.obj
 0004:00001c8c       $pdata$??$common_xtox@K_W@@YAHKQEA_W_KI_N@Z 000000018003dc8c     libucrt:xtoa.obj
 0004:00001c98       $pdata$??$common_xtox_s@K_W@@YAHKQEA_W_KI_N@Z 000000018003dc98     libucrt:xtoa.obj
 0004:00001ca4       $pdata$_itow_s             000000018003dca4     libucrt:xtoa.obj
 0004:00001cb0       $pdata$_wcsnicmp           000000018003dcb0     libucrt:wcsnicmp.obj
 0004:00001cbc       $pdata$_wcsnicmp_l         000000018003dcbc     libucrt:wcsnicmp.obj
 0004:00001cc8       $pdata$__dcrt_lowio_initialize_console_output 000000018003dcc8     libucrt:initcon.obj
 0004:00001cd4       $pdata$__dcrt_terminate_console_output 000000018003dcd4     libucrt:initcon.obj
 0004:00001cec       $pdata$__acrt_LCMapStringW 000000018003dcec     libucrt:lcmapstringw.obj
 0004:00001cf8       $pdata$_log10_special      000000018003dcf8     libucrt:log_special.obj
 0004:00001d04       $pdata$_log_special_common 000000018003dd04     libucrt:log_special.obj
 0004:00001d10       $pdata$?DloadAcquireSectionWriteAccess@@YAXXZ 000000018003dd10     DelayImp:delayhlp.obj
 0004:00001d1c       $pdata$?DloadGetSRWLockFunctionPointers@@YAEXZ 000000018003dd1c     DelayImp:delayhlp.obj
 0004:00001d28       $pdata$?DloadMakePermanentImageCommit@@YAXPEAX_K@Z 000000018003dd28     DelayImp:delayhlp.obj
 0004:00001d34       $pdata$?DloadObtainSection@@YAPEAXPEAK0@Z 000000018003dd34     DelayImp:delayhlp.obj
 0004:00001d40       $pdata$?DloadProtectSection@@YAXKPEAK@Z 000000018003dd40     DelayImp:delayhlp.obj
 0004:00001d4c       $pdata$?DloadReleaseSectionWriteAccess@@YAXXZ 000000018003dd4c     DelayImp:delayhlp.obj
 0004:00001d58       $pdata$__delayLoadHelper2  000000018003dd58     DelayImp:delayhlp.obj
 0004:00001d64       $pdata$??$?0AEAPEAUEHExceptionRecord@@_N@?$_Ref_count_obj_alloc@V__ExceptionPtr@@U?$_StaticAllocator@H@@@std@@QEAA@AEBU?$_StaticAllocator@H@@AEAPEAUEHExceptionRecord@@$$QEA_N@Z 000000018003dd64     libcpmt:excptptr.obj
 0004:00001d70       $pdata$??$allocate_shared@V__ExceptionPtr@@U?$_StaticAllocator@H@@AEAPEAUEHExceptionRecord@@_N@std@@YA?AV?$shared_ptr@V__ExceptionPtr@@@0@AEBU?$_StaticAllocator@H@@AEAPEAUEHExceptionRecord@@$$QEA_N@Z 000000018003dd70     libcpmt:excptptr.obj
 0004:00001d7c       $pdata$??$make_shared@V__ExceptionPtr@@AEAPEAUEHExceptionRecord@@_N@std@@YA?AV?$shared_ptr@V__ExceptionPtr@@@0@AEAPEAUEHExceptionRecord@@$$QEA_N@Z 000000018003dd7c     libcpmt:excptptr.obj
 0004:00001d88       $pdata$??0__ExceptionPtr@@QEAA@PEBUEHExceptionRecord@@_N@Z 000000018003dd88     libcpmt:excptptr.obj
 0004:00001d94       $pdata$??1__ExceptionPtr@@QEAA@XZ 000000018003dd94     libcpmt:excptptr.obj
 0004:00001da0       $pdata$??_G?$_Ref_count_obj@V__ExceptionPtr@@@std@@UEAAPEAXI@Z 000000018003dda0     libcpmt:excptptr.obj
 0004:00001da0       $pdata$??_G?$_Ref_count_obj_alloc@V__ExceptionPtr@@U?$_StaticAllocator@H@@@std@@UEAAPEAXI@Z 000000018003dda0     libcpmt:excptptr.obj
 0004:00001dac       $pdata$??_G_Ref_count_base@std@@UEAAPEAXI@Z 000000018003ddac     libcpmt:excptptr.obj
 0004:00001db8       $pdata$?_CallCopyCtor@__ExceptionPtr@@AEBAXPEAX0_KQEBU_s_CatchableType@@@Z 000000018003ddb8     libcpmt:excptptr.obj
 0004:00001dc4       $pdata$?_CopyException@__ExceptionPtr@@SA?AV?$shared_ptr@V__ExceptionPtr@@@std@@PEBXPEBU_s_ThrowInfo@@_N@Z 000000018003ddc4     libcpmt:excptptr.obj
 0004:00001dd0       $pdata$?_Delete_this@?$_Ref_count_obj@V__ExceptionPtr@@@std@@EEAAXXZ 000000018003ddd0     libcpmt:excptptr.obj
 0004:00001ddc       $pdata$?_Delete_this@?$_Ref_count_obj_alloc@V__ExceptionPtr@@U?$_StaticAllocator@H@@@std@@EEAAXXZ 000000018003dddc     libcpmt:excptptr.obj
 0004:00001de8       $pdata$?_InitBadAllocException@__ExceptionPtr@@CA?AV?$shared_ptr@V__ExceptionPtr@@@std@@XZ 000000018003dde8     libcpmt:excptptr.obj
 0004:00001df4       $pdata$?_Reset0@?$_Ptr_base@V__ExceptionPtr@@@std@@QEAAXPEAV__ExceptionPtr@@PEAV_Ref_count_base@2@@Z 000000018003ddf4     libcpmt:excptptr.obj
 0004:00001e00       $pdata$?_StaticAlloc@@YAPEAX_K@Z 000000018003de00     libcpmt:excptptr.obj
 0004:00001e0c       $pdata$_IsNonwritableInCurrentImage 000000018003de0c     LIBCMT:pesect.obj
 0004:00001e18       $pdata$wcschr              000000018003de18     libvcruntime:wcschr.obj
 0004:00001e30       $pdata$?dtor$0@?0??_Getcat@?$ctype@D@std@@SA_KPEAPEBVfacet@locale@2@PEBV42@@Z@4HA 000000018003de30     rainfall_node.obj
 0004:00001e3c       $pdata$?dtor$0@?0??unpack_sample@@YA?AVsample@@PEAVIsolate@v8@@V?$Local@VObject@v8@@@3@@Z@4HA 000000018003de3c     rainfall_node.obj
 0004:00001e48       $pdata$?dtor$0@?0??unpack_location@@YA?AVlocation@@PEAVIsolate@v8@@V?$Local@VObject@v8@@@3@@Z@4HA 000000018003de48     rainfall_node.obj
 0004:00001e54       $pdata$?dtor$0@?0??push_back@?$vector@Vsample@@V?$allocator@Vsample@@@std@@@std@@QEAAXAEBVsample@@@Z@4HA 000000018003de54     rainfall_node.obj
 0004:00001e60       $pdata$?dtor$2@?0??push_back@?$vector@Vsample@@V?$allocator@Vsample@@@std@@@std@@QEAAXAEBVsample@@@Z@4HA 000000018003de60     rainfall_node.obj
 0004:00001e6c       $pdata$?dtor$0@?0???0?$basic_ostream@DU?$char_traits@D@std@@@std@@QEAA@PEAV?$basic_streambuf@DU?$char_traits@D@std@@@1@_N@Z@4HA 000000018003de6c     libcpmt:cerr.obj
 0004:00001e78       $pdata$?dtor$0@?0??_Getcat@?$codecvt@DDU_Mbstatet@@@std@@SA_KPEAPEBVfacet@locale@2@PEBV42@@Z@4HA 000000018003de78     libcpmt:cerr.obj
 0004:00001e84       $pdata$__scrt_is_nonwritable_in_current_image$filt$0 000000018003de84     LIBCMT:utility.obj
 0004:00001e90       $pdata$?fin$0@?0??dllmain_crt_process_attach@@YAHQEAUHINSTANCE__@@QEAX@Z@4HA 000000018003de90     LIBCMT:dll_dllmain.obj
 0004:00001e9c       $pdata$?fin$0@?0??dllmain_crt_process_detach@@YAH_N@Z@4HA 000000018003de9c     LIBCMT:dll_dllmain.obj
 0004:00001ea8       $pdata$?filt$0@?0??dllmain_dispatch@@YAHQEAUHINSTANCE__@@KQEAX@Z@4HA 000000018003dea8     LIBCMT:dll_dllmain.obj
 0004:00001eb4       $pdata$__CxxCallCatchBlock$filt$0 000000018003deb4     libvcruntime:frame.obj
 0004:00001ec0       $pdata$__CxxCallCatchBlock$fin$1 000000018003dec0     libvcruntime:frame.obj
 0004:00001ecc       $pdata$__DestructExceptionObject$filt$0 000000018003decc     libvcruntime:frame.obj
 0004:00001ed8       $pdata$__FrameUnwindToState$filt$0 000000018003ded8     libvcruntime:frame.obj
 0004:00001ee4       $pdata$__FrameUnwindToState$fin$1 000000018003dee4     libvcruntime:frame.obj
 0004:00001ef0       $pdata$_CallSETranslator$filt$0 000000018003def0     libvcruntime:trnsctrl.obj
 0004:00001efc       $pdata$setlocale$fin$0     000000018003defc     libucrt:setlocale.obj
 0004:00001f08       $pdata$fflush$fin$0        000000018003df08     libucrt:fflush.obj
 0004:00001f08       $pdata$fclose$fin$0        000000018003df08     libucrt:fclose.obj
 0004:00001f14       $pdata$common_flush_all$fin$0 000000018003df14     libucrt:fflush.obj
 0004:00001f20       $pdata$common_flush_all$fin$1 000000018003df20     libucrt:fflush.obj
 0004:00001f2c       $pdata$fgetc$fin$0         000000018003df2c     libucrt:fgetc.obj
 0004:00001f38       $pdata$fputc$fin$0         000000018003df38     libucrt:fputc.obj
 0004:00001f44       $pdata$?fin$0@?0???$common_ftell@_J@@YA_JV__crt_stdio_stream@@@Z@4HA 000000018003df44     libucrt:ftell.obj
 0004:00001f44       $pdata$?fin$0@?0??common_fseek@@YAHV__crt_stdio_stream@@_JH@Z@4HA 000000018003df44     libucrt:fseek.obj
 0004:00001f50       $pdata$?fin$0@?0???$?RV<lambda_7a5ef57ff966f610505f1d28a3d40618>@@AEAV<lambda_b721fa326cdb32351d23dfa67958c160>@@V<lambda_5e0fb27672408a07956fe59e48ccb2aa>@@@?$__crt_seh_guarded_call@H@@QEAAH$$QEAV<lambda_7a5ef57ff966f610505f1d28a3d40618>@@AEAV<lambda_b721fa326cdb32351d23dfa67958c160>@@$$QEAV<lambda_5e0fb27672408a07956fe59e48ccb2aa>@@@Z@4HA 000000018003df50     libucrt:setvbuf.obj
 0004:00001f50       $pdata$?fin$0@?0???$?RV<lambda_5d4c3fee44080f75d5d9762853974fe0>@@AEAV<lambda_532e024f4337e6fc7ad266c2bef9f4ed>@@V<lambda_c87bdc10097eb2402edb8ba9bdf0697b>@@@?$__crt_seh_guarded_call@_K@@QEAA_K$$QEAV<lambda_5d4c3fee44080f75d5d9762853974fe0>@@AEAV<lambda_532e024f4337e6fc7ad266c2bef9f4ed>@@$$QEAV<lambda_c87bdc10097eb2402edb8ba9bdf0697b>@@@Z@4HA 000000018003df50     libucrt:fwrite.obj
 0004:00001f5c       $pdata$ungetc$fin$0        000000018003df5c     libucrt:ungetc.obj
 0004:00001f68       $pdata$_query_new_handler$fin$0 000000018003df68     libucrt:new_handler.obj
 0004:00001f74       $pdata$?filt$0@?0??common_exit@@YAXHW4_crt_exit_cleanup_mode@@W4_crt_exit_return_mode@@@Z@4HA 000000018003df74     libucrt:exit.obj
 0004:00001f80       $pdata$?fin$1@?0??common_exit@@YAXHW4_crt_exit_cleanup_mode@@W4_crt_exit_return_mode@@@Z@4HA 000000018003df80     libucrt:exit.obj
 0004:00001f8c       $pdata$?fin$0@?0???$?RV<lambda_e24bbb7b643b32fcea6fa61b31d4c984>@@AEAV<lambda_275893d493268fdec8709772e3fcec0e>@@V<lambda_9d71df4d7cf3f480f8d633942495c3b0>@@@?$__crt_seh_guarded_call@H@@QEAAH$$QEAV<lambda_e24bbb7b643b32fcea6fa61b31d4c984>@@AEAV<lambda_275893d493268fdec8709772e3fcec0e>@@$$QEAV<lambda_9d71df4d7cf3f480f8d633942495c3b0>@@@Z@4HA 000000018003df8c     libucrt:onexit.obj
 0004:00001f98       $pdata$raise$fin$0         000000018003df98     libucrt:signal.obj
 0004:00001fa4       $pdata$?fin$0@?0???$?RV<lambda_5df02c53a8f32f81fd64e5bbb78039f1>@@AEAV<lambda_2af78c5f5901b1372d98f9ab3177dfa6>@@AEAV<lambda_f51fe5fd7c79a33db34fc9310f277369>@@@?$__crt_seh_guarded_call@X@@QEAAX$$QEAV<lambda_5df02c53a8f32f81fd64e5bbb78039f1>@@AEAV<lambda_2af78c5f5901b1372d98f9ab3177dfa6>@@AEAV<lambda_f51fe5fd7c79a33db34fc9310f277369>@@@Z@4HA 000000018003dfa4     libucrt:wsetlocale.obj
 0004:00001fb0       $pdata$?fin$0@?0???$?RV<lambda_46352004c1216016012b18bd6f87e700>@@AEAV<lambda_3bd07e1a1191394380780325891bf33f>@@V<lambda_334532d3f185bcaa59b5be82d7d22bff>@@@?$__crt_seh_guarded_call@X@@QEAAX$$QEAV<lambda_46352004c1216016012b18bd6f87e700>@@AEAV<lambda_3bd07e1a1191394380780325891bf33f>@@$$QEAV<lambda_334532d3f185bcaa59b5be82d7d22bff>@@@Z@4HA 000000018003dfb0     libucrt:per_thread_data.obj
 0004:00001fb0       $pdata$?fin$0@?0???$?RV<lambda_c36588078e9f5dfd39652860aa6b3aaf>@@AEAV<lambda_ec61778202f4f5fc7e7711acc23c3bca>@@V<lambda_dc9d2797ccde5d239b4a0efae8ebd7db>@@@?$__crt_seh_guarded_call@P6AXH@Z@@QEAAP6AXH@Z$$QEAV<lambda_c36588078e9f5dfd39652860aa6b3aaf>@@AEAV<lambda_ec61778202f4f5fc7e7711acc23c3bca>@@$$QEAV<lambda_dc9d2797ccde5d239b4a0efae8ebd7db>@@@Z@4HA 000000018003dfb0     libucrt:signal.obj
 0004:00001fb0       $pdata$?fin$0@?0???$?RV<lambda_5e887d1dcbef67a5eb4283622ba103bf>@@AEAV<lambda_4466841279450cc726390878d4a41900>@@V<lambda_341c25c0346d94847f1f3c463c57e077>@@@?$__crt_seh_guarded_call@X@@QEAAX$$QEAV<lambda_5e887d1dcbef67a5eb4283622ba103bf>@@AEAV<lambda_4466841279450cc726390878d4a41900>@@$$QEAV<lambda_341c25c0346d94847f1f3c463c57e077>@@@Z@4HA 000000018003dfb0     libucrt:per_thread_data.obj
 0004:00001fb0       $pdata$?fin$0@?0???$?RV<lambda_d67e8342c384adda8f857579ab50b2ae>@@AEAV<lambda_30712929f77e709619002f448b6a9510>@@V<lambda_4525336fd7e478d965fb7ca7a337cad8>@@@?$__crt_seh_guarded_call@X@@QEAAX$$QEAV<lambda_d67e8342c384adda8f857579ab50b2ae>@@AEAV<lambda_30712929f77e709619002f448b6a9510>@@$$QEAV<lambda_4525336fd7e478d965fb7ca7a337cad8>@@@Z@4HA 000000018003dfb0     libucrt:wsetlocale.obj
 0004:00001fb0       $pdata$?fin$0@?0???$?RV<lambda_72d1df2b273a38828b1ce30cbf4cdab5>@@AEAV<lambda_876a65b173b8412d3a47c70a915b0cf4>@@V<lambda_41932305e351933ebe8f8be3ed8bb5dc>@@@?$__crt_seh_guarded_call@X@@QEAAX$$QEAV<lambda_72d1df2b273a38828b1ce30cbf4cdab5>@@AEAV<lambda_876a65b173b8412d3a47c70a915b0cf4>@@$$QEAV<lambda_41932305e351933ebe8f8be3ed8bb5dc>@@@Z@4HA 000000018003dfb0     libucrt:per_thread_data.obj
 0004:00001fb0       $pdata$?fin$0@?0???$?RV<lambda_fb3a7dec4e47f37f22dae91bb15c9095>@@AEAV<lambda_698284760c8add0bfb0756c19673e34b>@@V<lambda_dfb8eca1e75fef3034a8fb18dd509707>@@@?$__crt_seh_guarded_call@X@@QEAAX$$QEAV<lambda_fb3a7dec4e47f37f22dae91bb15c9095>@@AEAV<lambda_698284760c8add0bfb0756c19673e34b>@@$$QEAV<lambda_dfb8eca1e75fef3034a8fb18dd509707>@@@Z@4HA 000000018003dfb0     libucrt:per_thread_data.obj
 0004:00001fb0       $pdata$?fin$0@?0???$?RV<lambda_b8c45f8f788dd370798f47cfe8ac3a86>@@AEAV<lambda_4e60a939b0d047cfe11ddc22648dfba9>@@V<lambda_332c3edc96d0294ec56c57d38c1cdfd5>@@@?$__crt_seh_guarded_call@H@@QEAAH$$QEAV<lambda_b8c45f8f788dd370798f47cfe8ac3a86>@@AEAV<lambda_4e60a939b0d047cfe11ddc22648dfba9>@@$$QEAV<lambda_332c3edc96d0294ec56c57d38c1cdfd5>@@@Z@4HA 000000018003dfb0     libucrt:onexit.obj
 0004:00001fb0       $pdata$?fin$0@?0???$?RV<lambda_99476a1ad63dd22509b5d3e65b0ffc95>@@AEAV<lambda_ad1ced32f4ac17aa236e5ef05d6b3b7c>@@V<lambda_f7424dd8d45958661754dc4f2697e9c3>@@@?$__crt_seh_guarded_call@X@@QEAAX$$QEAV<lambda_99476a1ad63dd22509b5d3e65b0ffc95>@@AEAV<lambda_ad1ced32f4ac17aa236e5ef05d6b3b7c>@@$$QEAV<lambda_f7424dd8d45958661754dc4f2697e9c3>@@@Z@4HA 000000018003dfb0     libucrt:mbctype.obj
 0004:00001fb0       $pdata$?fin$0@?0???$?RV<lambda_630b2aca97f6d20d5b5ea6529ea6b6af>@@AEAV<lambda_af91936f1d075d609f72d9d8cba980af>@@V<lambda_e82fa975f615b5c7c7b0e4d178fdae67>@@@?$__crt_seh_guarded_call@H@@QEAAH$$QEAV<lambda_630b2aca97f6d20d5b5ea6529ea6b6af>@@AEAV<lambda_af91936f1d075d609f72d9d8cba980af>@@$$QEAV<lambda_e82fa975f615b5c7c7b0e4d178fdae67>@@@Z@4HA 000000018003dfb0     libucrt:winapi_thunks.obj
 0004:00001fbc       $pdata$_fcloseall$fin$0    000000018003dfbc     libucrt:closeall.obj
 0004:00001fc8       $pdata$__acrt_lowio_ensure_fh_exists$fin$0 000000018003dfc8     libucrt:osfinfo.obj
 0004:00001fc8       $pdata$__acrt_initialize_lowio$fin$0 000000018003dfc8     libucrt:ioinit.obj
 0004:00001fd4       $pdata$?fin$0@?0???$?RV<lambda_b521505b218e5242e90febf6bfebc422>@@AEAV<lambda_6978c1fb23f02e42e1d9e99668cc68aa>@@V<lambda_314360699dd331753a4119843814e9a7>@@@?$__crt_seh_guarded_call@H@@QEAAH$$QEAV<lambda_b521505b218e5242e90febf6bfebc422>@@AEAV<lambda_6978c1fb23f02e42e1d9e99668cc68aa>@@$$QEAV<lambda_314360699dd331753a4119843814e9a7>@@@Z@4HA 000000018003dfd4     libucrt:commit.obj
 0004:00001fd4       $pdata$?fin$0@?0???$?RV<lambda_bfedae4ebbf01fab1bb6dcc6a9e276e0>@@AEAV<lambda_2fe9b910cf3cbf4a0ab98a02ba45b3ec>@@V<lambda_237c231691f317818eb88cc1d5d642d6>@@@?$__crt_seh_guarded_call@H@@QEAAH$$QEAV<lambda_bfedae4ebbf01fab1bb6dcc6a9e276e0>@@AEAV<lambda_2fe9b910cf3cbf4a0ab98a02ba45b3ec>@@$$QEAV<lambda_237c231691f317818eb88cc1d5d642d6>@@@Z@4HA 000000018003dfd4     libucrt:close.obj
 0004:00001fe0       $pdata$_read$fin$0         000000018003dfe0     libucrt:read.obj
 0004:00001fe0       $pdata$?fin$0@?0???$common_lseek@_J@@YA_JH_JH@Z@4HA 000000018003dfe0     libucrt:lseek.obj
 0004:00001fe0       $pdata$_write$fin$0        000000018003dfe0     libucrt:write.obj
 0004:00001fec       $pdata$_ctrlfp$filt$0      000000018003dfec     libucrt:fpctrl.obj
 0004:00001ff8       $pdata$__acrt_update_thread_multibyte_data$fin$0 000000018003dff8     libucrt:mbctype.obj
 0004:00002004       $pdata$__acrt_update_thread_locale_data$fin$0 000000018003e004     libucrt:locale_refcounting.obj
 0004:00002004       $pdata$__acrt_uninitialize_locale$fin$0 000000018003e004     libucrt:wsetlocale.obj
 0004:00002010       $pdata$?dtor$1@?0???$?0AEAPEAUEHExceptionRecord@@_N@?$_Ref_count_obj_alloc@V__ExceptionPtr@@U?$_StaticAllocator@H@@@std@@QEAA@AEBU?$_StaticAllocator@H@@AEAPEAUEHExceptionRecord@@$$QEA_N@Z@4HA 000000018003e010     libcpmt:excptptr.obj
 0004:0000201c       $pdata$?dtor$11@?0???$allocate_shared@V__ExceptionPtr@@U?$_StaticAllocator@H@@AEAPEAUEHExceptionRecord@@_N@std@@YA?AV?$shared_ptr@V__ExceptionPtr@@@0@AEBU?$_StaticAllocator@H@@AEAPEAUEHExceptionRecord@@$$QEA_N@Z@4HA 000000018003e01c     libcpmt:excptptr.obj
 0004:00002028       $pdata$?catch$18@?0???$allocate_shared@V__ExceptionPtr@@U?$_StaticAllocator@H@@AEAPEAUEHExceptionRecord@@_N@std@@YA?AV?$shared_ptr@V__ExceptionPtr@@@0@AEBU?$_StaticAllocator@H@@AEAPEAUEHExceptionRecord@@$$QEA_N@Z@4HA 000000018003e028     libcpmt:excptptr.obj
 0004:00002034       $pdata$?dtor$0@?0???$make_shared@V__ExceptionPtr@@AEAPEAUEHExceptionRecord@@_N@std@@YA?AV?$shared_ptr@V__ExceptionPtr@@@0@AEAPEAUEHExceptionRecord@@$$QEA_N@Z@4HA 000000018003e034     libcpmt:excptptr.obj
 0004:00002040       $pdata$?dtor$5@?0???$make_shared@V__ExceptionPtr@@AEAPEAUEHExceptionRecord@@_N@std@@YA?AV?$shared_ptr@V__ExceptionPtr@@@0@AEAPEAUEHExceptionRecord@@$$QEA_N@Z@4HA 000000018003e040     libcpmt:excptptr.obj
 0004:0000204c       $pdata$?catch$0@?0??_CallCopyCtor@__ExceptionPtr@@AEBAXPEAX0_KQEBU_s_CatchableType@@@Z@4HA 000000018003e04c     libcpmt:excptptr.obj
 0004:00002058       $pdata$?catch$3@?0??_CopyException@__ExceptionPtr@@SA?AV?$shared_ptr@V__ExceptionPtr@@@std@@PEBXPEBU_s_ThrowInfo@@_N@Z@4HA 000000018003e058     libcpmt:excptptr.obj
 0004:00002064       $pdata$?catch$4@?0??_CopyException@__ExceptionPtr@@SA?AV?$shared_ptr@V__ExceptionPtr@@@std@@PEBXPEBU_s_ThrowInfo@@_N@Z@4HA 000000018003e064     libcpmt:excptptr.obj
 0004:00002070       $pdata$_IsNonwritableInCurrentImage$filt$0 000000018003e070     LIBCMT:pesect.obj
 0004:0000207c       $pdata$??__F_Fac_tidy_reg@std@@YAXXZ 000000018003e07c     libcpmt:locale0.obj
 0004:00002088       $pdata$??__Fclassic_locale@std@@YAXXZ 000000018003e088     libcpmt:locale0.obj
 0004:00002094       $pdata$??__Fcerr@std@@YAXXZ 000000018003e094     libcpmt:cerr.obj
 0004:000020a0       $pdata$??__Finit_atexit@@YAXXZ 000000018003e0a0     libcpmt:iosptrs.obj
 0004:000020ac       $pdata$??__F?m_badAllocExceptionPtr@__ExceptionPtr@@0V?$shared_ptr@V__ExceptionPtr@@@std@@A@@YAXXZ 000000018003e0ac     libcpmt:excptptr.obj
 0005:00000000       __guard_fids__             000000018003f000     libucrt:initialization.obj
 0005:00000060       __guard_fids___acrt_initialize_ptd 000000018003f060     libucrt:per_thread_data.obj
 0005:00000064       __guard_fids__             000000018003f064     libucrt:wsetlocale.obj
 0005:0000007c       __guard_fids_??$?RV<lambda_630b2aca97f6d20d5b5ea6529ea6b6af>@@AEAV<lambda_af91936f1d075d609f72d9d8cba980af>@@V<lambda_e82fa975f615b5c7c7b0e4d178fdae67>@@@?$__crt_seh_guarded_call@H@@QEAAH$$QEAV<lambda_630b2aca97f6d20d5b5ea6529ea6b6af>@@AEAV<lambda_af91936f1d075d609f72d9d8cba980af>@@$$QEAV<lambda_e82fa975f615b5c7c7b0e4d178fdae67>@@@Z 000000018003f07c     libucrt:winapi_thunks.obj
 0005:00000080       __guard_fids__             000000018003f080     libucrt:stdio_initializer.obj
 0005:00000084       __guard_fids__             000000018003f084     libucrt:stdio_initializer.obj
 0005:00000088       __guard_fids_??$expand_argument_wildcards@D@@YAHQEAD0AEAV?$argument_list@D@?A0xca0879c4@@@Z 000000018003f088     libucrt:argv_wildcards.obj
 0005:0000008c       __guard_fids__             000000018003f08c     libucrt:locale_initializer.obj
 0005:00000090       __guard_fids_GetLocaleNameFromLangCountry 000000018003f090     libucrt:get_qualified_locale.obj
 0005:00000094       __guard_fids_GetLocaleNameFromLanguage 000000018003f094     libucrt:get_qualified_locale.obj
 0005:00000098       __guard_fids___acrt_get_qualified_locale_downlevel 000000018003f098     libucrt:getqloc_downlevel.obj
 0005:0000009c       __guard_fids_GetLcidFromLangCountry 000000018003f09c     libucrt:getqloc_downlevel.obj
 0005:000000a0       __guard_fids_GetLcidFromLanguage 000000018003f0a0     libucrt:getqloc_downlevel.obj
 0005:000000a4       __guard_fids__             000000018003f0a4     libucrt:fma3_initializer.obj
 0005:000000a8       __guard_fids__             000000018003f0a8     libucrt:timeset_initializer.obj
 0005:000000ac       __guard_fids__             000000018003f0ac     libucrt:multibyte_initializer.obj
 0005:000000b0       __guard_fids__             000000018003f0b0     libucrt:console_output_initializer.obj
 0005:000000b4       __guard_fids__             000000018003f0b4     libcpmt:xthrow.obj
 0005:000000bc       __guard_fids__             000000018003f0bc     libcpmt:xthrow.obj
 0005:000000c4       __guard_fids__             000000018003f0c4     libcpmt:xthrow.obj
 0005:000000cc       __guard_fids__             000000018003f0cc     libcpmt:xthrow.obj
 0005:000000d4       __guard_fids__             000000018003f0d4     libcpmt:xthrow.obj
 0005:000000dc       __guard_fids__             000000018003f0dc     libcpmt:xthrow.obj
 0005:000000e4       __guard_fids_??__Einitlocks@std@@YAXXZ 000000018003f0e4     libcpmt:xlock.obj
 0005:000000e8       __guard_fids__             000000018003f0e8     libcpmt:xlock.obj
 0005:000000ec       __guard_fids_??__E_Fac_tidy_reg@std@@YAXXZ 000000018003f0ec     libcpmt:locale0.obj
 0005:000000f0       __guard_fids_?_Setgloballocale@locale@std@@CAXPEAX@Z 000000018003f0f0     libcpmt:locale0.obj
 0005:000000f4       __guard_fids_??__Eclassic_locale@std@@YAXXZ 000000018003f0f4     libcpmt:locale0.obj
 0005:000000f8       __guard_fids__             000000018003f0f8     libcpmt:locale0.obj
 0005:00000104       __guard_fids__             000000018003f104     libcpmt:locale0.obj
 0005:00000110       __guard_fids__             000000018003f110     libcpmt:locale0.obj
 0005:00000114       __guard_fids__             000000018003f114     libcpmt:locale0.obj
 0005:00000118       __guard_fids_??__Einitlocks@@YAXXZ 000000018003f118     libcpmt:cerr.obj
 0005:0000011c       __guard_fids_??__Eferr@std@@YAXXZ 000000018003f11c     libcpmt:cerr.obj
 0005:00000120       __guard_fids_??__Ecerr@std@@YAXXZ 000000018003f120     libcpmt:cerr.obj
 0005:00000124       __guard_fids__             000000018003f124     libcpmt:cerr.obj
 0005:0000012c       __guard_fids__             000000018003f12c     libcpmt:cerr.obj
 0005:00000158       __guard_fids__             000000018003f158     libcpmt:cerr.obj
 0005:00000170       __guard_fids__             000000018003f170     libcpmt:cerr.obj
 0005:00000178       __guard_fids__             000000018003f178     libcpmt:cerr.obj
 0005:00000190       __guard_fids__             000000018003f190     libcpmt:cerr.obj
 0005:00000198       __guard_fids__             000000018003f198     libcpmt:cerr.obj
 0005:0000019c       __guard_fids__             000000018003f19c     libcpmt:cerr.obj
 0005:000001d8       __guard_fids__             000000018003f1d8     libcpmt:cerr.obj
 0005:00000214       __guard_fids__             000000018003f214     libcpmt:cerr.obj
 0005:00000218       __guard_fids__             000000018003f218     libcpmt:cerr.obj
 0005:0000021c       __guard_fids__             000000018003f21c     libcpmt:cerr.obj
 0005:00000244       __guard_fids__             000000018003f244     libcpmt:cerr.obj
 0005:00000248       __guard_fids__             000000018003f248     libcpmt:cerr.obj
 0005:0000024c       __guard_fids__             000000018003f24c     libcpmt:cerr.obj
 0005:00000250       __guard_fids__             000000018003f250     libcpmt:cerr.obj
 0005:00000254       __guard_fids_??__Einitlocks@std@@YAXXZ 000000018003f254     libcpmt:iosptrs.obj
 0005:00000258       __guard_fids_??__Einit_atexit@@YAXXZ 000000018003f258     libcpmt:iosptrs.obj
 0005:0000025c       __guard_fids__             000000018003f25c     libcpmt:iosptrs.obj
 0005:00000260       __guard_fids__             000000018003f260     libcpmt:iosptrs.obj
 0005:00000264       __guard_fids__             000000018003f264     libcpmt:winapisupp.obj
 0005:00000268       __guard_fids__             000000018003f268     LIBCMT:thread_safe_statics.obj
 0005:0000026c       __guard_fids_?__scrt_initialize_thread_safe_statics@@YAHXZ 000000018003f26c     LIBCMT:thread_safe_statics.obj
 0005:00000270       __guard_fids_?dllmain_crt_process_attach@@YAHQEAUHINSTANCE__@@QEAX@Z 000000018003f270     LIBCMT:dll_dllmain.obj
 0005:00000278       __guard_fids_?dllmain_dispatch@@YAHQEAUHINSTANCE__@@KQEAX@Z 000000018003f278     LIBCMT:dll_dllmain.obj
 0005:0000027c       __guard_fids__             000000018003f27c     LIBCMT:std_type_info_static.obj
 0005:00000280       __guard_fids__             000000018003f280     LIBCMT:throw_bad_alloc.obj
 0005:00000288       __guard_fids__             000000018003f288     LIBCMT:guard_support.obj
 0005:0000028c       __guard_fids_??__Es_defaultWaiterPool@platform@details@Concurrency@@YAXXZ 000000018003f28c     libconcrt:Platform.obj
 0005:00000290       __guard_fids__             000000018003f290     libconcrt:Platform.obj
 0005:00000294       __guard_fids__             000000018003f294     libconcrt:utils.obj
 0005:00000298       __guard_fids__             000000018003f298     libconcrt:utils.obj
 0005:0000029c       __guard_fids__             000000018003f29c     libconcrt:staticinits.obj
 0005:000002a0       __guard_fids__             000000018003f2a0     libconcrt:staticinits.obj
 0005:000002a4       __guard_fids__             000000018003f2a4     libvcruntime:frame.obj
 0005:000002a8       __guard_fids__             000000018003f2a8     libvcruntime:frame.obj
 0005:000002b0       __guard_fids__UnwindNestedFrames 000000018003f2b0     libvcruntime:trnsctrl.obj
 0005:000002b4       __guard_fids___vcrt_initialize_ptd 000000018003f2b4     libvcruntime:per_thread_data.obj
 0005:000002b8       __guard_fids_??__E?m_badAllocExceptionPtr@__ExceptionPtr@@0V?$shared_ptr@V__ExceptionPtr@@@std@@A@@YAXXZ 000000018003f2b8     libcpmt:excptptr.obj
 0005:000002bc       __guard_fids__             000000018003f2bc     libcpmt:excptptr.obj
 0005:000002cc       __guard_fids__             000000018003f2cc     libcpmt:excptptr.obj
 0005:000002dc       __guard_fids__             000000018003f2dc     libcpmt:excptptr.obj
 0005:000002ec       __guard_fids__             000000018003f2ec     libcpmt:excptptr.obj
 0007:00000060       $R000000                   0000000180041060     * linker generated manifest res *

 Exports

  ordinal    name

        1    _register_rainfall_
